
A1200HIDToDB9.elf:     file format elf32-littlearm

Sections:
Idx Name          Size      VMA       LMA       File off  Algn
  0 .isr_vector   00000194  08000000  08000000  00010000  2**0
                  CONTENTS, ALLOC, LOAD, READONLY, DATA
  1 .text         00005e48  08000194  08000194  00010194  2**2
                  CONTENTS, ALLOC, LOAD, READONLY, CODE
  2 .rodata       00000020  08005fdc  08005fdc  00015fdc  2**2
                  CONTENTS, ALLOC, LOAD, READONLY, DATA
  3 .ARM.extab    00000000  08005ffc  08005ffc  0002009c  2**0
                  CONTENTS
  4 .ARM          00000008  08005ffc  08005ffc  00015ffc  2**2
                  CONTENTS, ALLOC, LOAD, READONLY, DATA
  5 .preinit_array 00000000  08006004  08006004  0002009c  2**0
                  CONTENTS, ALLOC, LOAD, DATA
  6 .init_array   00000004  08006004  08006004  00016004  2**2
                  CONTENTS, ALLOC, LOAD, DATA
  7 .fini_array   00000004  08006008  08006008  00016008  2**2
                  CONTENTS, ALLOC, LOAD, DATA
  8 .data         0000009c  20000000  0800600c  00020000  2**2
                  CONTENTS, ALLOC, LOAD, DATA
  9 .bss          0000084c  2000009c  080060a8  0002009c  2**2
                  ALLOC
 10 ._user_heap_stack 00004000  200008e8  080060a8  000208e8  2**0
                  ALLOC
 11 .ARM.attributes 00000030  00000000  00000000  0002009c  2**0
                  CONTENTS, READONLY
 12 .comment      00000053  00000000  00000000  000200cc  2**0
                  CONTENTS, READONLY
 13 .debug_frame  000002cc  00000000  00000000  00020120  2**2
                  CONTENTS, READONLY, DEBUGGING, OCTETS

Disassembly of section .text:

08000194 <__do_global_dtors_aux>:
 8000194:	b510      	push	{r4, lr}
 8000196:	4c05      	ldr	r4, [pc, #20]	; (80001ac <__do_global_dtors_aux+0x18>)
 8000198:	7823      	ldrb	r3, [r4, #0]
 800019a:	b933      	cbnz	r3, 80001aa <__do_global_dtors_aux+0x16>
 800019c:	4b04      	ldr	r3, [pc, #16]	; (80001b0 <__do_global_dtors_aux+0x1c>)
 800019e:	b113      	cbz	r3, 80001a6 <__do_global_dtors_aux+0x12>
 80001a0:	4804      	ldr	r0, [pc, #16]	; (80001b4 <__do_global_dtors_aux+0x20>)
 80001a2:	f3af 8000 	nop.w
 80001a6:	2301      	movs	r3, #1
 80001a8:	7023      	strb	r3, [r4, #0]
 80001aa:	bd10      	pop	{r4, pc}
 80001ac:	2000009c 	.word	0x2000009c
 80001b0:	00000000 	.word	0x00000000
 80001b4:	08005fc4 	.word	0x08005fc4

080001b8 <frame_dummy>:
 80001b8:	b508      	push	{r3, lr}
 80001ba:	4b03      	ldr	r3, [pc, #12]	; (80001c8 <frame_dummy+0x10>)
 80001bc:	b11b      	cbz	r3, 80001c6 <frame_dummy+0xe>
 80001be:	4903      	ldr	r1, [pc, #12]	; (80001cc <frame_dummy+0x14>)
 80001c0:	4803      	ldr	r0, [pc, #12]	; (80001d0 <frame_dummy+0x18>)
 80001c2:	f3af 8000 	nop.w
 80001c6:	bd08      	pop	{r3, pc}
 80001c8:	00000000 	.word	0x00000000
 80001cc:	200000a0 	.word	0x200000a0
 80001d0:	08005fc4 	.word	0x08005fc4

080001d4 <__aeabi_uldivmod>:
 80001d4:	b953      	cbnz	r3, 80001ec <__aeabi_uldivmod+0x18>
 80001d6:	b94a      	cbnz	r2, 80001ec <__aeabi_uldivmod+0x18>
 80001d8:	2900      	cmp	r1, #0
 80001da:	bf08      	it	eq
 80001dc:	2800      	cmpeq	r0, #0
 80001de:	bf1c      	itt	ne
 80001e0:	f04f 31ff 	movne.w	r1, #4294967295
 80001e4:	f04f 30ff 	movne.w	r0, #4294967295
 80001e8:	f000 b96e 	b.w	80004c8 <__aeabi_idiv0>
 80001ec:	f1ad 0c08 	sub.w	ip, sp, #8
 80001f0:	e96d ce04 	strd	ip, lr, [sp, #-16]!
 80001f4:	f000 f806 	bl	8000204 <__udivmoddi4>
 80001f8:	f8dd e004 	ldr.w	lr, [sp, #4]
 80001fc:	e9dd 2302 	ldrd	r2, r3, [sp, #8]
 8000200:	b004      	add	sp, #16
 8000202:	4770      	bx	lr

08000204 <__udivmoddi4>:
 8000204:	e92d 47f0 	stmdb	sp!, {r4, r5, r6, r7, r8, r9, sl, lr}
 8000208:	9d08      	ldr	r5, [sp, #32]
 800020a:	4604      	mov	r4, r0
 800020c:	468c      	mov	ip, r1
 800020e:	2b00      	cmp	r3, #0
 8000210:	f040 8083 	bne.w	800031a <__udivmoddi4+0x116>
 8000214:	428a      	cmp	r2, r1
 8000216:	4617      	mov	r7, r2
 8000218:	d947      	bls.n	80002aa <__udivmoddi4+0xa6>
 800021a:	fab2 f282 	clz	r2, r2
 800021e:	b142      	cbz	r2, 8000232 <__udivmoddi4+0x2e>
 8000220:	f1c2 0020 	rsb	r0, r2, #32
 8000224:	fa24 f000 	lsr.w	r0, r4, r0
 8000228:	4091      	lsls	r1, r2
 800022a:	4097      	lsls	r7, r2
 800022c:	ea40 0c01 	orr.w	ip, r0, r1
 8000230:	4094      	lsls	r4, r2
 8000232:	ea4f 4817 	mov.w	r8, r7, lsr #16
 8000236:	0c23      	lsrs	r3, r4, #16
 8000238:	fbbc f6f8 	udiv	r6, ip, r8
 800023c:	fa1f fe87 	uxth.w	lr, r7
 8000240:	fb08 c116 	mls	r1, r8, r6, ip
 8000244:	ea43 4301 	orr.w	r3, r3, r1, lsl #16
 8000248:	fb06 f10e 	mul.w	r1, r6, lr
 800024c:	4299      	cmp	r1, r3
 800024e:	d909      	bls.n	8000264 <__udivmoddi4+0x60>
 8000250:	18fb      	adds	r3, r7, r3
 8000252:	f106 30ff 	add.w	r0, r6, #4294967295
 8000256:	f080 8119 	bcs.w	800048c <__udivmoddi4+0x288>
 800025a:	4299      	cmp	r1, r3
 800025c:	f240 8116 	bls.w	800048c <__udivmoddi4+0x288>
 8000260:	3e02      	subs	r6, #2
 8000262:	443b      	add	r3, r7
 8000264:	1a5b      	subs	r3, r3, r1
 8000266:	b2a4      	uxth	r4, r4
 8000268:	fbb3 f0f8 	udiv	r0, r3, r8
 800026c:	fb08 3310 	mls	r3, r8, r0, r3
 8000270:	ea44 4403 	orr.w	r4, r4, r3, lsl #16
 8000274:	fb00 fe0e 	mul.w	lr, r0, lr
 8000278:	45a6      	cmp	lr, r4
 800027a:	d909      	bls.n	8000290 <__udivmoddi4+0x8c>
 800027c:	193c      	adds	r4, r7, r4
 800027e:	f100 33ff 	add.w	r3, r0, #4294967295
 8000282:	f080 8105 	bcs.w	8000490 <__udivmoddi4+0x28c>
 8000286:	45a6      	cmp	lr, r4
 8000288:	f240 8102 	bls.w	8000490 <__udivmoddi4+0x28c>
 800028c:	3802      	subs	r0, #2
 800028e:	443c      	add	r4, r7
 8000290:	ea40 4006 	orr.w	r0, r0, r6, lsl #16
 8000294:	eba4 040e 	sub.w	r4, r4, lr
 8000298:	2600      	movs	r6, #0
 800029a:	b11d      	cbz	r5, 80002a4 <__udivmoddi4+0xa0>
 800029c:	40d4      	lsrs	r4, r2
 800029e:	2300      	movs	r3, #0
 80002a0:	e9c5 4300 	strd	r4, r3, [r5]
 80002a4:	4631      	mov	r1, r6
 80002a6:	e8bd 87f0 	ldmia.w	sp!, {r4, r5, r6, r7, r8, r9, sl, pc}
 80002aa:	b902      	cbnz	r2, 80002ae <__udivmoddi4+0xaa>
 80002ac:	deff      	udf	#255	; 0xff
 80002ae:	fab2 f282 	clz	r2, r2
 80002b2:	2a00      	cmp	r2, #0
 80002b4:	d150      	bne.n	8000358 <__udivmoddi4+0x154>
 80002b6:	1bcb      	subs	r3, r1, r7
 80002b8:	ea4f 4e17 	mov.w	lr, r7, lsr #16
 80002bc:	fa1f f887 	uxth.w	r8, r7
 80002c0:	2601      	movs	r6, #1
 80002c2:	fbb3 fcfe 	udiv	ip, r3, lr
 80002c6:	0c21      	lsrs	r1, r4, #16
 80002c8:	fb0e 331c 	mls	r3, lr, ip, r3
 80002cc:	ea41 4103 	orr.w	r1, r1, r3, lsl #16
 80002d0:	fb08 f30c 	mul.w	r3, r8, ip
 80002d4:	428b      	cmp	r3, r1
 80002d6:	d907      	bls.n	80002e8 <__udivmoddi4+0xe4>
 80002d8:	1879      	adds	r1, r7, r1
 80002da:	f10c 30ff 	add.w	r0, ip, #4294967295
 80002de:	d202      	bcs.n	80002e6 <__udivmoddi4+0xe2>
 80002e0:	428b      	cmp	r3, r1
 80002e2:	f200 80e9 	bhi.w	80004b8 <__udivmoddi4+0x2b4>
 80002e6:	4684      	mov	ip, r0
 80002e8:	1ac9      	subs	r1, r1, r3
 80002ea:	b2a3      	uxth	r3, r4
 80002ec:	fbb1 f0fe 	udiv	r0, r1, lr
 80002f0:	fb0e 1110 	mls	r1, lr, r0, r1
 80002f4:	ea43 4401 	orr.w	r4, r3, r1, lsl #16
 80002f8:	fb08 f800 	mul.w	r8, r8, r0
 80002fc:	45a0      	cmp	r8, r4
 80002fe:	d907      	bls.n	8000310 <__udivmoddi4+0x10c>
 8000300:	193c      	adds	r4, r7, r4
 8000302:	f100 33ff 	add.w	r3, r0, #4294967295
 8000306:	d202      	bcs.n	800030e <__udivmoddi4+0x10a>
 8000308:	45a0      	cmp	r8, r4
 800030a:	f200 80d9 	bhi.w	80004c0 <__udivmoddi4+0x2bc>
 800030e:	4618      	mov	r0, r3
 8000310:	eba4 0408 	sub.w	r4, r4, r8
 8000314:	ea40 400c 	orr.w	r0, r0, ip, lsl #16
 8000318:	e7bf      	b.n	800029a <__udivmoddi4+0x96>
 800031a:	428b      	cmp	r3, r1
 800031c:	d909      	bls.n	8000332 <__udivmoddi4+0x12e>
 800031e:	2d00      	cmp	r5, #0
 8000320:	f000 80b1 	beq.w	8000486 <__udivmoddi4+0x282>
 8000324:	2600      	movs	r6, #0
 8000326:	e9c5 0100 	strd	r0, r1, [r5]
 800032a:	4630      	mov	r0, r6
 800032c:	4631      	mov	r1, r6
 800032e:	e8bd 87f0 	ldmia.w	sp!, {r4, r5, r6, r7, r8, r9, sl, pc}
 8000332:	fab3 f683 	clz	r6, r3
 8000336:	2e00      	cmp	r6, #0
 8000338:	d14a      	bne.n	80003d0 <__udivmoddi4+0x1cc>
 800033a:	428b      	cmp	r3, r1
 800033c:	d302      	bcc.n	8000344 <__udivmoddi4+0x140>
 800033e:	4282      	cmp	r2, r0
 8000340:	f200 80b8 	bhi.w	80004b4 <__udivmoddi4+0x2b0>
 8000344:	1a84      	subs	r4, r0, r2
 8000346:	eb61 0103 	sbc.w	r1, r1, r3
 800034a:	2001      	movs	r0, #1
 800034c:	468c      	mov	ip, r1
 800034e:	2d00      	cmp	r5, #0
 8000350:	d0a8      	beq.n	80002a4 <__udivmoddi4+0xa0>
 8000352:	e9c5 4c00 	strd	r4, ip, [r5]
 8000356:	e7a5      	b.n	80002a4 <__udivmoddi4+0xa0>
 8000358:	f1c2 0320 	rsb	r3, r2, #32
 800035c:	fa20 f603 	lsr.w	r6, r0, r3
 8000360:	4097      	lsls	r7, r2
 8000362:	fa01 f002 	lsl.w	r0, r1, r2
 8000366:	ea4f 4e17 	mov.w	lr, r7, lsr #16
 800036a:	40d9      	lsrs	r1, r3
 800036c:	4330      	orrs	r0, r6
 800036e:	0c03      	lsrs	r3, r0, #16
 8000370:	fbb1 f6fe 	udiv	r6, r1, lr
 8000374:	fa1f f887 	uxth.w	r8, r7
 8000378:	fb0e 1116 	mls	r1, lr, r6, r1
 800037c:	ea43 4301 	orr.w	r3, r3, r1, lsl #16
 8000380:	fb06 f108 	mul.w	r1, r6, r8
 8000384:	4299      	cmp	r1, r3
 8000386:	fa04 f402 	lsl.w	r4, r4, r2
 800038a:	d909      	bls.n	80003a0 <__udivmoddi4+0x19c>
 800038c:	18fb      	adds	r3, r7, r3
 800038e:	f106 3cff 	add.w	ip, r6, #4294967295
 8000392:	f080 808d 	bcs.w	80004b0 <__udivmoddi4+0x2ac>
 8000396:	4299      	cmp	r1, r3
 8000398:	f240 808a 	bls.w	80004b0 <__udivmoddi4+0x2ac>
 800039c:	3e02      	subs	r6, #2
 800039e:	443b      	add	r3, r7
 80003a0:	1a5b      	subs	r3, r3, r1
 80003a2:	b281      	uxth	r1, r0
 80003a4:	fbb3 f0fe 	udiv	r0, r3, lr
 80003a8:	fb0e 3310 	mls	r3, lr, r0, r3
 80003ac:	ea41 4103 	orr.w	r1, r1, r3, lsl #16
 80003b0:	fb00 f308 	mul.w	r3, r0, r8
 80003b4:	428b      	cmp	r3, r1
 80003b6:	d907      	bls.n	80003c8 <__udivmoddi4+0x1c4>
 80003b8:	1879      	adds	r1, r7, r1
 80003ba:	f100 3cff 	add.w	ip, r0, #4294967295
 80003be:	d273      	bcs.n	80004a8 <__udivmoddi4+0x2a4>
 80003c0:	428b      	cmp	r3, r1
 80003c2:	d971      	bls.n	80004a8 <__udivmoddi4+0x2a4>
 80003c4:	3802      	subs	r0, #2
 80003c6:	4439      	add	r1, r7
 80003c8:	1acb      	subs	r3, r1, r3
 80003ca:	ea40 4606 	orr.w	r6, r0, r6, lsl #16
 80003ce:	e778      	b.n	80002c2 <__udivmoddi4+0xbe>
 80003d0:	f1c6 0c20 	rsb	ip, r6, #32
 80003d4:	fa03 f406 	lsl.w	r4, r3, r6
 80003d8:	fa22 f30c 	lsr.w	r3, r2, ip
 80003dc:	431c      	orrs	r4, r3
 80003de:	fa20 f70c 	lsr.w	r7, r0, ip
 80003e2:	fa01 f306 	lsl.w	r3, r1, r6
 80003e6:	ea4f 4e14 	mov.w	lr, r4, lsr #16
 80003ea:	fa21 f10c 	lsr.w	r1, r1, ip
 80003ee:	431f      	orrs	r7, r3
 80003f0:	0c3b      	lsrs	r3, r7, #16
 80003f2:	fbb1 f9fe 	udiv	r9, r1, lr
 80003f6:	fa1f f884 	uxth.w	r8, r4
 80003fa:	fb0e 1119 	mls	r1, lr, r9, r1
 80003fe:	ea43 4101 	orr.w	r1, r3, r1, lsl #16
 8000402:	fb09 fa08 	mul.w	sl, r9, r8
 8000406:	458a      	cmp	sl, r1
 8000408:	fa02 f206 	lsl.w	r2, r2, r6
 800040c:	fa00 f306 	lsl.w	r3, r0, r6
 8000410:	d908      	bls.n	8000424 <__udivmoddi4+0x220>
 8000412:	1861      	adds	r1, r4, r1
 8000414:	f109 30ff 	add.w	r0, r9, #4294967295
 8000418:	d248      	bcs.n	80004ac <__udivmoddi4+0x2a8>
 800041a:	458a      	cmp	sl, r1
 800041c:	d946      	bls.n	80004ac <__udivmoddi4+0x2a8>
 800041e:	f1a9 0902 	sub.w	r9, r9, #2
 8000422:	4421      	add	r1, r4
 8000424:	eba1 010a 	sub.w	r1, r1, sl
 8000428:	b2bf      	uxth	r7, r7
 800042a:	fbb1 f0fe 	udiv	r0, r1, lr
 800042e:	fb0e 1110 	mls	r1, lr, r0, r1
 8000432:	ea47 4701 	orr.w	r7, r7, r1, lsl #16
 8000436:	fb00 f808 	mul.w	r8, r0, r8
 800043a:	45b8      	cmp	r8, r7
 800043c:	d907      	bls.n	800044e <__udivmoddi4+0x24a>
 800043e:	19e7      	adds	r7, r4, r7
 8000440:	f100 31ff 	add.w	r1, r0, #4294967295
 8000444:	d22e      	bcs.n	80004a4 <__udivmoddi4+0x2a0>
 8000446:	45b8      	cmp	r8, r7
 8000448:	d92c      	bls.n	80004a4 <__udivmoddi4+0x2a0>
 800044a:	3802      	subs	r0, #2
 800044c:	4427      	add	r7, r4
 800044e:	ea40 4009 	orr.w	r0, r0, r9, lsl #16
 8000452:	eba7 0708 	sub.w	r7, r7, r8
 8000456:	fba0 8902 	umull	r8, r9, r0, r2
 800045a:	454f      	cmp	r7, r9
 800045c:	46c6      	mov	lr, r8
 800045e:	4649      	mov	r1, r9
 8000460:	d31a      	bcc.n	8000498 <__udivmoddi4+0x294>
 8000462:	d017      	beq.n	8000494 <__udivmoddi4+0x290>
 8000464:	b15d      	cbz	r5, 800047e <__udivmoddi4+0x27a>
 8000466:	ebb3 020e 	subs.w	r2, r3, lr
 800046a:	eb67 0701 	sbc.w	r7, r7, r1
 800046e:	fa07 fc0c 	lsl.w	ip, r7, ip
 8000472:	40f2      	lsrs	r2, r6
 8000474:	ea4c 0202 	orr.w	r2, ip, r2
 8000478:	40f7      	lsrs	r7, r6
 800047a:	e9c5 2700 	strd	r2, r7, [r5]
 800047e:	2600      	movs	r6, #0
 8000480:	4631      	mov	r1, r6
 8000482:	e8bd 87f0 	ldmia.w	sp!, {r4, r5, r6, r7, r8, r9, sl, pc}
 8000486:	462e      	mov	r6, r5
 8000488:	4628      	mov	r0, r5
 800048a:	e70b      	b.n	80002a4 <__udivmoddi4+0xa0>
 800048c:	4606      	mov	r6, r0
 800048e:	e6e9      	b.n	8000264 <__udivmoddi4+0x60>
 8000490:	4618      	mov	r0, r3
 8000492:	e6fd      	b.n	8000290 <__udivmoddi4+0x8c>
 8000494:	4543      	cmp	r3, r8
 8000496:	d2e5      	bcs.n	8000464 <__udivmoddi4+0x260>
 8000498:	ebb8 0e02 	subs.w	lr, r8, r2
 800049c:	eb69 0104 	sbc.w	r1, r9, r4
 80004a0:	3801      	subs	r0, #1
 80004a2:	e7df      	b.n	8000464 <__udivmoddi4+0x260>
 80004a4:	4608      	mov	r0, r1
 80004a6:	e7d2      	b.n	800044e <__udivmoddi4+0x24a>
 80004a8:	4660      	mov	r0, ip
 80004aa:	e78d      	b.n	80003c8 <__udivmoddi4+0x1c4>
 80004ac:	4681      	mov	r9, r0
 80004ae:	e7b9      	b.n	8000424 <__udivmoddi4+0x220>
 80004b0:	4666      	mov	r6, ip
 80004b2:	e775      	b.n	80003a0 <__udivmoddi4+0x19c>
 80004b4:	4630      	mov	r0, r6
 80004b6:	e74a      	b.n	800034e <__udivmoddi4+0x14a>
 80004b8:	f1ac 0c02 	sub.w	ip, ip, #2
 80004bc:	4439      	add	r1, r7
 80004be:	e713      	b.n	80002e8 <__udivmoddi4+0xe4>
 80004c0:	3802      	subs	r0, #2
 80004c2:	443c      	add	r4, r7
 80004c4:	e724      	b.n	8000310 <__udivmoddi4+0x10c>
 80004c6:	bf00      	nop

080004c8 <__aeabi_idiv0>:
 80004c8:	4770      	bx	lr
 80004ca:	bf00      	nop

080004cc <MX_GPIO_Init>:
 80004cc:	b5f0      	push	{r4, r5, r6, r7, lr}
 80004ce:	2400      	movs	r4, #0
 80004d0:	b08b      	sub	sp, #44	; 0x2c
 80004d2:	e9cd 4404 	strd	r4, r4, [sp, #16]
 80004d6:	e9cd 4406 	strd	r4, r4, [sp, #24]
 80004da:	f44f 5360 	mov.w	r3, #14336	; 0x3800
 80004de:	f2c4 0302 	movt	r3, #16386	; 0x4002
 80004e2:	9400      	str	r4, [sp, #0]
 80004e4:	9408      	str	r4, [sp, #32]
 80004e6:	6b1a      	ldr	r2, [r3, #48]	; 0x30
 80004e8:	f042 0280 	orr.w	r2, r2, #128	; 0x80
 80004ec:	631a      	str	r2, [r3, #48]	; 0x30
 80004ee:	6b1a      	ldr	r2, [r3, #48]	; 0x30
 80004f0:	f002 0280 	and.w	r2, r2, #128	; 0x80
 80004f4:	9200      	str	r2, [sp, #0]
 80004f6:	9a00      	ldr	r2, [sp, #0]
 80004f8:	9401      	str	r4, [sp, #4]
 80004fa:	6b1a      	ldr	r2, [r3, #48]	; 0x30
 80004fc:	f042 0204 	orr.w	r2, r2, #4
 8000500:	631a      	str	r2, [r3, #48]	; 0x30
 8000502:	6b1a      	ldr	r2, [r3, #48]	; 0x30
 8000504:	f002 0204 	and.w	r2, r2, #4
 8000508:	9201      	str	r2, [sp, #4]
 800050a:	9a01      	ldr	r2, [sp, #4]
 800050c:	9402      	str	r4, [sp, #8]
 800050e:	6b1a      	ldr	r2, [r3, #48]	; 0x30
 8000510:	f042 0201 	orr.w	r2, r2, #1
 8000514:	631a      	str	r2, [r3, #48]	; 0x30
 8000516:	6b1a      	ldr	r2, [r3, #48]	; 0x30
 8000518:	f002 0201 	and.w	r2, r2, #1
 800051c:	9202      	str	r2, [sp, #8]
 800051e:	9a02      	ldr	r2, [sp, #8]
 8000520:	9403      	str	r4, [sp, #12]
 8000522:	6b1a      	ldr	r2, [r3, #48]	; 0x30
 8000524:	f042 0202 	orr.w	r2, r2, #2
 8000528:	631a      	str	r2, [r3, #48]	; 0x30
 800052a:	6b1b      	ldr	r3, [r3, #48]	; 0x30
 800052c:	f44f 6600 	mov.w	r6, #2048	; 0x800
 8000530:	f2c4 0602 	movt	r6, #16386	; 0x4002
 8000534:	f003 0302 	and.w	r3, r3, #2
 8000538:	f44f 6580 	mov.w	r5, #1024	; 0x400
 800053c:	9303      	str	r3, [sp, #12]
 800053e:	4630      	mov	r0, r6
 8000540:	4622      	mov	r2, r4
 8000542:	f2c4 0502 	movt	r5, #16386	; 0x4002
 8000546:	f641 0101 	movw	r1, #6145	; 0x1801
 800054a:	9b03      	ldr	r3, [sp, #12]
 800054c:	f000 fea8 	bl	80012a0 <HAL_GPIO_WritePin>
 8000550:	4622      	mov	r2, r4
 8000552:	4628      	mov	r0, r5
 8000554:	21f8      	movs	r1, #248	; 0xf8
 8000556:	f000 fea3 	bl	80012a0 <HAL_GPIO_WritePin>
 800055a:	2700      	movs	r7, #0
 800055c:	4630      	mov	r0, r6
 800055e:	a904      	add	r1, sp, #16
 8000560:	f641 0201 	movw	r2, #6145	; 0x1801
 8000564:	2301      	movs	r3, #1
 8000566:	2600      	movs	r6, #0
 8000568:	e9cd 2304 	strd	r2, r3, [sp, #16]
 800056c:	e9cd 6706 	strd	r6, r7, [sp, #24]
 8000570:	f000 fd90 	bl	8001094 <HAL_GPIO_Init>
 8000574:	22f8      	movs	r2, #248	; 0xf8
 8000576:	2301      	movs	r3, #1
 8000578:	4628      	mov	r0, r5
 800057a:	a904      	add	r1, sp, #16
 800057c:	e9cd 6706 	strd	r6, r7, [sp, #24]
 8000580:	e9cd 2304 	strd	r2, r3, [sp, #16]
 8000584:	f000 fd86 	bl	8001094 <HAL_GPIO_Init>
 8000588:	b00b      	add	sp, #44	; 0x2c
 800058a:	bdf0      	pop	{r4, r5, r6, r7, pc}

0800058c <ProcessJoystick>:
 800058c:	f240 03c8 	movw	r3, #200	; 0xc8
 8000590:	f2c2 0300 	movt	r3, #8192	; 0x2000
 8000594:	781b      	ldrb	r3, [r3, #0]
 8000596:	2b02      	cmp	r3, #2
 8000598:	d000      	beq.n	800059c <ProcessJoystick+0x10>
 800059a:	4770      	bx	lr
 800059c:	f240 10f8 	movw	r0, #504	; 0x1f8
 80005a0:	b510      	push	{r4, lr}
 80005a2:	f2c2 0000 	movt	r0, #8192	; 0x2000
 80005a6:	f003 f893 	bl	80036d0 <USBH_HID_GetDeviceType>
 80005aa:	28ff      	cmp	r0, #255	; 0xff
 80005ac:	d000      	beq.n	80005b0 <ProcessJoystick+0x24>
 80005ae:	bd10      	pop	{r4, pc}
 80005b0:	f240 10f8 	movw	r0, #504	; 0x1f8
 80005b4:	f2c2 0000 	movt	r0, #8192	; 0x2000
 80005b8:	f003 f986 	bl	80038c8 <USBH_HID_GetGamepadInfo>
 80005bc:	f240 04d4 	movw	r4, #212	; 0xd4
 80005c0:	f2c2 0400 	movt	r4, #8192	; 0x2000
 80005c4:	6020      	str	r0, [r4, #0]
 80005c6:	2800      	cmp	r0, #0
 80005c8:	d0f1      	beq.n	80005ae <ProcessJoystick+0x22>
 80005ca:	7802      	ldrb	r2, [r0, #0]
 80005cc:	f44f 6080 	mov.w	r0, #1024	; 0x400
 80005d0:	43d2      	mvns	r2, r2
 80005d2:	f002 0201 	and.w	r2, r2, #1
 80005d6:	f2c4 0002 	movt	r0, #16386	; 0x4002
 80005da:	2110      	movs	r1, #16
 80005dc:	f000 fe60 	bl	80012a0 <HAL_GPIO_WritePin>
 80005e0:	6823      	ldr	r3, [r4, #0]
 80005e2:	781a      	ldrb	r2, [r3, #0]
 80005e4:	f44f 6080 	mov.w	r0, #1024	; 0x400
 80005e8:	ea6f 0252 	mvn.w	r2, r2, lsr #1
 80005ec:	f002 0201 	and.w	r2, r2, #1
 80005f0:	f2c4 0002 	movt	r0, #16386	; 0x4002
 80005f4:	2120      	movs	r1, #32
 80005f6:	f000 fe53 	bl	80012a0 <HAL_GPIO_WritePin>
 80005fa:	6823      	ldr	r3, [r4, #0]
 80005fc:	781a      	ldrb	r2, [r3, #0]
 80005fe:	f44f 6080 	mov.w	r0, #1024	; 0x400
 8000602:	ea6f 0292 	mvn.w	r2, r2, lsr #2
 8000606:	f002 0201 	and.w	r2, r2, #1
 800060a:	f2c4 0002 	movt	r0, #16386	; 0x4002
 800060e:	2140      	movs	r1, #64	; 0x40
 8000610:	f000 fe46 	bl	80012a0 <HAL_GPIO_WritePin>
 8000614:	6823      	ldr	r3, [r4, #0]
 8000616:	781a      	ldrb	r2, [r3, #0]
 8000618:	f44f 6080 	mov.w	r0, #1024	; 0x400
 800061c:	ea6f 02d2 	mvn.w	r2, r2, lsr #3
 8000620:	f002 0201 	and.w	r2, r2, #1
 8000624:	f2c4 0002 	movt	r0, #16386	; 0x4002
 8000628:	2180      	movs	r1, #128	; 0x80
 800062a:	f000 fe39 	bl	80012a0 <HAL_GPIO_WritePin>
 800062e:	6823      	ldr	r3, [r4, #0]
 8000630:	781a      	ldrb	r2, [r3, #0]
 8000632:	f44f 6000 	mov.w	r0, #2048	; 0x800
 8000636:	ea6f 1212 	mvn.w	r2, r2, lsr #4
 800063a:	f002 0201 	and.w	r2, r2, #1
 800063e:	f2c4 0002 	movt	r0, #16386	; 0x4002
 8000642:	f44f 5180 	mov.w	r1, #4096	; 0x1000
 8000646:	f000 fe2b 	bl	80012a0 <HAL_GPIO_WritePin>
 800064a:	6823      	ldr	r3, [r4, #0]
 800064c:	781a      	ldrb	r2, [r3, #0]
 800064e:	f44f 6080 	mov.w	r0, #1024	; 0x400
 8000652:	ea6f 1252 	mvn.w	r2, r2, lsr #5
 8000656:	f002 0201 	and.w	r2, r2, #1
 800065a:	f2c4 0002 	movt	r0, #16386	; 0x4002
 800065e:	f44f 6100 	mov.w	r1, #2048	; 0x800
 8000662:	f000 fe1d 	bl	80012a0 <HAL_GPIO_WritePin>
 8000666:	6823      	ldr	r3, [r4, #0]
 8000668:	781a      	ldrb	r2, [r3, #0]
 800066a:	f44f 6000 	mov.w	r0, #2048	; 0x800
 800066e:	ea6f 1292 	mvn.w	r2, r2, lsr #6
 8000672:	e8bd 4010 	ldmia.w	sp!, {r4, lr}
 8000676:	f002 0201 	and.w	r2, r2, #1
 800067a:	f2c4 0002 	movt	r0, #16386	; 0x4002
 800067e:	2108      	movs	r1, #8
 8000680:	f000 be0e 	b.w	80012a0 <HAL_GPIO_WritePin>

08000684 <SystemClock_Config>:
 8000684:	b530      	push	{r4, r5, lr}
 8000686:	2300      	movs	r3, #0
 8000688:	b095      	sub	sp, #84	; 0x54
 800068a:	e9cd 330a 	strd	r3, r3, [sp, #40]	; 0x28
 800068e:	e9cd 330c 	strd	r3, r3, [sp, #48]	; 0x30
 8000692:	e9cd 3303 	strd	r3, r3, [sp, #12]
 8000696:	e9cd 3305 	strd	r3, r3, [sp, #20]
 800069a:	f44f 5260 	mov.w	r2, #14336	; 0x3800
 800069e:	f2c4 0202 	movt	r2, #16386	; 0x4002
 80006a2:	9300      	str	r3, [sp, #0]
 80006a4:	9302      	str	r3, [sp, #8]
 80006a6:	6c11      	ldr	r1, [r2, #64]	; 0x40
 80006a8:	f041 5180 	orr.w	r1, r1, #268435456	; 0x10000000
 80006ac:	6411      	str	r1, [r2, #64]	; 0x40
 80006ae:	6c11      	ldr	r1, [r2, #64]	; 0x40
 80006b0:	f44f 42e0 	mov.w	r2, #28672	; 0x7000
 80006b4:	f001 5180 	and.w	r1, r1, #268435456	; 0x10000000
 80006b8:	9100      	str	r1, [sp, #0]
 80006ba:	f2c4 0200 	movt	r2, #16384	; 0x4000
 80006be:	9900      	ldr	r1, [sp, #0]
 80006c0:	9301      	str	r3, [sp, #4]
 80006c2:	6813      	ldr	r3, [r2, #0]
 80006c4:	f423 4340 	bic.w	r3, r3, #49152	; 0xc000
 80006c8:	f443 4380 	orr.w	r3, r3, #16384	; 0x4000
 80006cc:	6013      	str	r3, [r2, #0]
 80006ce:	6813      	ldr	r3, [r2, #0]
 80006d0:	f403 4340 	and.w	r3, r3, #49152	; 0xc000
 80006d4:	9301      	str	r3, [sp, #4]
 80006d6:	2401      	movs	r4, #1
 80006d8:	f44f 3580 	mov.w	r5, #65536	; 0x10000
 80006dc:	2202      	movs	r2, #2
 80006de:	f44f 0380 	mov.w	r3, #4194304	; 0x400000
 80006e2:	e9cd 4508 	strd	r4, r5, [sp, #32]
 80006e6:	e9cd 230e 	strd	r2, r3, [sp, #56]	; 0x38
 80006ea:	2404      	movs	r4, #4
 80006ec:	25a8      	movs	r5, #168	; 0xa8
 80006ee:	2204      	movs	r2, #4
 80006f0:	2307      	movs	r3, #7
 80006f2:	a808      	add	r0, sp, #32
 80006f4:	e9cd 4510 	strd	r4, r5, [sp, #64]	; 0x40
 80006f8:	e9cd 2312 	strd	r2, r3, [sp, #72]	; 0x48
 80006fc:	9901      	ldr	r1, [sp, #4]
 80006fe:	f001 fb07 	bl	8001d10 <HAL_RCC_OscConfig>
 8000702:	b108      	cbz	r0, 8000708 <SystemClock_Config+0x84>
 8000704:	b672      	cpsid	i
 8000706:	e7fe      	b.n	8000706 <SystemClock_Config+0x82>
 8000708:	4603      	mov	r3, r0
 800070a:	240f      	movs	r4, #15
 800070c:	2502      	movs	r5, #2
 800070e:	9306      	str	r3, [sp, #24]
 8000710:	2200      	movs	r2, #0
 8000712:	f44f 5380 	mov.w	r3, #4096	; 0x1000
 8000716:	a802      	add	r0, sp, #8
 8000718:	2102      	movs	r1, #2
 800071a:	e9cd 4502 	strd	r4, r5, [sp, #8]
 800071e:	e9cd 2304 	strd	r2, r3, [sp, #16]
 8000722:	f001 fd63 	bl	80021ec <HAL_RCC_ClockConfig>
 8000726:	b108      	cbz	r0, 800072c <SystemClock_Config+0xa8>
 8000728:	b672      	cpsid	i
 800072a:	e7fe      	b.n	800072a <SystemClock_Config+0xa6>
 800072c:	b015      	add	sp, #84	; 0x54
 800072e:	bd30      	pop	{r4, r5, pc}

08000730 <main>:
 8000730:	b508      	push	{r3, lr}
 8000732:	f000 fc0d 	bl	8000f50 <HAL_Init>
 8000736:	f7ff ffa5 	bl	8000684 <SystemClock_Config>
 800073a:	f7ff fec7 	bl	80004cc <MX_GPIO_Init>
 800073e:	f005 f9e5 	bl	8005b0c <MX_USB_HOST_Init>
 8000742:	f000 fb13 	bl	8000d6c <MX_TIM2_Init>
 8000746:	f000 fb53 	bl	8000df0 <MX_TIM3_Init>
 800074a:	f240 1070 	movw	r0, #368	; 0x170
 800074e:	f2c2 0000 	movt	r0, #8192	; 0x2000
 8000752:	f001 fec7 	bl	80024e4 <HAL_TIM_Base_Start_IT>
 8000756:	f240 1028 	movw	r0, #296	; 0x128
 800075a:	f2c2 0000 	movt	r0, #8192	; 0x2000
 800075e:	f001 fec1 	bl	80024e4 <HAL_TIM_Base_Start_IT>
 8000762:	f005 f9fd 	bl	8005b60 <MX_USB_HOST_Process>
 8000766:	f000 f82b 	bl	80007c0 <ProcessMouse>
 800076a:	f7ff ff0f 	bl	800058c <ProcessJoystick>
 800076e:	e7f8      	b.n	8000762 <main+0x32>

08000770 <HAL_TIM_PeriodElapsedCallback>:
 8000770:	6803      	ldr	r3, [r0, #0]
 8000772:	f44f 4288 	mov.w	r2, #17408	; 0x4400
 8000776:	f2c4 0201 	movt	r2, #16385	; 0x4001
 800077a:	4293      	cmp	r3, r2
 800077c:	b510      	push	{r4, lr}
 800077e:	4604      	mov	r4, r0
 8000780:	d009      	beq.n	8000796 <HAL_TIM_PeriodElapsedCallback+0x26>
 8000782:	f1b3 4f80 	cmp.w	r3, #1073741824	; 0x40000000
 8000786:	d00c      	beq.n	80007a2 <HAL_TIM_PeriodElapsedCallback+0x32>
 8000788:	f44f 6280 	mov.w	r2, #1024	; 0x400
 800078c:	f2c4 0200 	movt	r2, #16384	; 0x4000
 8000790:	4293      	cmp	r3, r2
 8000792:	d00f      	beq.n	80007b4 <HAL_TIM_PeriodElapsedCallback+0x44>
 8000794:	bd10      	pop	{r4, pc}
 8000796:	f000 fbf7 	bl	8000f88 <HAL_IncTick>
 800079a:	6823      	ldr	r3, [r4, #0]
 800079c:	f1b3 4f80 	cmp.w	r3, #1073741824	; 0x40000000
 80007a0:	d1f2      	bne.n	8000788 <HAL_TIM_PeriodElapsedCallback+0x18>
 80007a2:	f000 f909 	bl	80009b8 <ProcessX_IRQ>
 80007a6:	6823      	ldr	r3, [r4, #0]
 80007a8:	f44f 6280 	mov.w	r2, #1024	; 0x400
 80007ac:	f2c4 0200 	movt	r2, #16384	; 0x4000
 80007b0:	4293      	cmp	r3, r2
 80007b2:	d1ef      	bne.n	8000794 <HAL_TIM_PeriodElapsedCallback+0x24>
 80007b4:	e8bd 4010 	ldmia.w	sp!, {r4, lr}
 80007b8:	f000 b986 	b.w	8000ac8 <ProcessY_IRQ>

080007bc <Error_Handler>:
 80007bc:	b672      	cpsid	i
 80007be:	e7fe      	b.n	80007be <Error_Handler+0x2>

080007c0 <ProcessMouse>:
 80007c0:	b5f8      	push	{r3, r4, r5, r6, r7, lr}
 80007c2:	f240 03c8 	movw	r3, #200	; 0xc8
 80007c6:	f2c2 0300 	movt	r3, #8192	; 0x2000
 80007ca:	781b      	ldrb	r3, [r3, #0]
 80007cc:	2b02      	cmp	r3, #2
 80007ce:	d000      	beq.n	80007d2 <ProcessMouse+0x12>
 80007d0:	bdf8      	pop	{r3, r4, r5, r6, r7, pc}
 80007d2:	f240 10f8 	movw	r0, #504	; 0x1f8
 80007d6:	f2c2 0000 	movt	r0, #8192	; 0x2000
 80007da:	f002 ff79 	bl	80036d0 <USBH_HID_GetDeviceType>
 80007de:	2801      	cmp	r0, #1
 80007e0:	4604      	mov	r4, r0
 80007e2:	d1f5      	bne.n	80007d0 <ProcessMouse+0x10>
 80007e4:	f240 10f8 	movw	r0, #504	; 0x1f8
 80007e8:	f2c2 0000 	movt	r0, #8192	; 0x2000
 80007ec:	f003 fa7c 	bl	8003ce8 <USBH_HID_GetMouseInfo>
 80007f0:	f240 05dc 	movw	r5, #220	; 0xdc
 80007f4:	f2c2 0500 	movt	r5, #8192	; 0x2000
 80007f8:	6028      	str	r0, [r5, #0]
 80007fa:	2800      	cmp	r0, #0
 80007fc:	d0e8      	beq.n	80007d0 <ProcessMouse+0x10>
 80007fe:	7803      	ldrb	r3, [r0, #0]
 8000800:	2b00      	cmp	r3, #0
 8000802:	f040 8083 	bne.w	800090c <ProcessMouse+0x14c>
 8000806:	7842      	ldrb	r2, [r0, #1]
 8000808:	2a00      	cmp	r2, #0
 800080a:	f000 80b6 	beq.w	800097a <ProcessMouse+0x1ba>
 800080e:	f240 01b9 	movw	r1, #185	; 0xb9
 8000812:	f2c2 0100 	movt	r1, #8192	; 0x2000
 8000816:	780c      	ldrb	r4, [r1, #0]
 8000818:	2c00      	cmp	r4, #0
 800081a:	f040 80ae 	bne.w	800097a <ProcessMouse+0x1ba>
 800081e:	f240 04bc 	movw	r4, #188	; 0xbc
 8000822:	f2c2 0400 	movt	r4, #8192	; 0x2000
 8000826:	2700      	movs	r7, #0
 8000828:	2601      	movs	r6, #1
 800082a:	8027      	strh	r7, [r4, #0]
 800082c:	700e      	strb	r6, [r1, #0]
 800082e:	b25b      	sxtb	r3, r3
 8000830:	2b00      	cmp	r3, #0
 8000832:	f340 80ba 	ble.w	80009aa <ProcessMouse+0x1ea>
 8000836:	f240 01ba 	movw	r1, #186	; 0xba
 800083a:	f2c2 0100 	movt	r1, #8192	; 0x2000
 800083e:	880e      	ldrh	r6, [r1, #0]
 8000840:	4433      	add	r3, r6
 8000842:	b21b      	sxth	r3, r3
 8000844:	800b      	strh	r3, [r1, #0]
 8000846:	880b      	ldrh	r3, [r1, #0]
 8000848:	b21b      	sxth	r3, r3
 800084a:	f5b3 7f96 	cmp.w	r3, #300	; 0x12c
 800084e:	bfc4      	itt	gt
 8000850:	f44f 7396 	movgt.w	r3, #300	; 0x12c
 8000854:	800b      	strhgt	r3, [r1, #0]
 8000856:	880b      	ldrh	r3, [r1, #0]
 8000858:	b29b      	uxth	r3, r3
 800085a:	2b7f      	cmp	r3, #127	; 0x7f
 800085c:	d872      	bhi.n	8000944 <ProcessMouse+0x184>
 800085e:	2b00      	cmp	r3, #0
 8000860:	f000 8089 	beq.w	8000976 <ProcessMouse+0x1b6>
 8000864:	f242 7610 	movw	r6, #10000	; 0x2710
 8000868:	fbb6 f6f3 	udiv	r6, r6, r3
 800086c:	11b6      	asrs	r6, r6, #6
 800086e:	3e01      	subs	r6, #1
 8000870:	b2f6      	uxtb	r6, r6
 8000872:	f240 0100 	movw	r1, #0
 8000876:	f2c2 0100 	movt	r1, #8192	; 0x2000
 800087a:	b253      	sxtb	r3, r2
 800087c:	2b00      	cmp	r3, #0
 800087e:	700e      	strb	r6, [r1, #0]
 8000880:	dd62      	ble.n	8000948 <ProcessMouse+0x188>
 8000882:	8822      	ldrh	r2, [r4, #0]
 8000884:	4413      	add	r3, r2
 8000886:	b21b      	sxth	r3, r3
 8000888:	8023      	strh	r3, [r4, #0]
 800088a:	8823      	ldrh	r3, [r4, #0]
 800088c:	b21b      	sxth	r3, r3
 800088e:	f5b3 7f96 	cmp.w	r3, #300	; 0x12c
 8000892:	bfc4      	itt	gt
 8000894:	f44f 7396 	movgt.w	r3, #300	; 0x12c
 8000898:	8023      	strhgt	r3, [r4, #0]
 800089a:	8823      	ldrh	r3, [r4, #0]
 800089c:	b29b      	uxth	r3, r3
 800089e:	2b7f      	cmp	r3, #127	; 0x7f
 80008a0:	d84e      	bhi.n	8000940 <ProcessMouse+0x180>
 80008a2:	2b00      	cmp	r3, #0
 80008a4:	d065      	beq.n	8000972 <ProcessMouse+0x1b2>
 80008a6:	f242 7410 	movw	r4, #10000	; 0x2710
 80008aa:	fbb4 f4f3 	udiv	r4, r4, r3
 80008ae:	11a4      	asrs	r4, r4, #6
 80008b0:	3c01      	subs	r4, #1
 80008b2:	b2e4      	uxtb	r4, r4
 80008b4:	7882      	ldrb	r2, [r0, #2]
 80008b6:	f240 0301 	movw	r3, #1
 80008ba:	f2c2 0300 	movt	r3, #8192	; 0x2000
 80008be:	fab2 f282 	clz	r2, r2
 80008c2:	f44f 6000 	mov.w	r0, #2048	; 0x800
 80008c6:	0952      	lsrs	r2, r2, #5
 80008c8:	f2c4 0002 	movt	r0, #16386	; 0x4002
 80008cc:	f44f 5180 	mov.w	r1, #4096	; 0x1000
 80008d0:	701c      	strb	r4, [r3, #0]
 80008d2:	f000 fce5 	bl	80012a0 <HAL_GPIO_WritePin>
 80008d6:	682b      	ldr	r3, [r5, #0]
 80008d8:	78da      	ldrb	r2, [r3, #3]
 80008da:	f44f 6080 	mov.w	r0, #1024	; 0x400
 80008de:	fab2 f282 	clz	r2, r2
 80008e2:	0952      	lsrs	r2, r2, #5
 80008e4:	f2c4 0002 	movt	r0, #16386	; 0x4002
 80008e8:	f44f 6100 	mov.w	r1, #2048	; 0x800
 80008ec:	f000 fcd8 	bl	80012a0 <HAL_GPIO_WritePin>
 80008f0:	682b      	ldr	r3, [r5, #0]
 80008f2:	791a      	ldrb	r2, [r3, #4]
 80008f4:	f44f 6000 	mov.w	r0, #2048	; 0x800
 80008f8:	fab2 f282 	clz	r2, r2
 80008fc:	e8bd 40f8 	ldmia.w	sp!, {r3, r4, r5, r6, r7, lr}
 8000900:	0952      	lsrs	r2, r2, #5
 8000902:	f2c4 0002 	movt	r0, #16386	; 0x4002
 8000906:	2108      	movs	r1, #8
 8000908:	f000 bcca 	b.w	80012a0 <HAL_GPIO_WritePin>
 800090c:	f240 02b8 	movw	r2, #184	; 0xb8
 8000910:	f2c2 0200 	movt	r2, #8192	; 0x2000
 8000914:	7811      	ldrb	r1, [r2, #0]
 8000916:	b24e      	sxtb	r6, r1
 8000918:	b9e1      	cbnz	r1, 8000954 <ProcessMouse+0x194>
 800091a:	f240 01ba 	movw	r1, #186	; 0xba
 800091e:	f2c2 0100 	movt	r1, #8192	; 0x2000
 8000922:	b25b      	sxtb	r3, r3
 8000924:	800e      	strh	r6, [r1, #0]
 8000926:	2b00      	cmp	r3, #0
 8000928:	7014      	strb	r4, [r2, #0]
 800092a:	f240 04bc 	movw	r4, #188	; 0xbc
 800092e:	7842      	ldrb	r2, [r0, #1]
 8000930:	f2c2 0400 	movt	r4, #8192	; 0x2000
 8000934:	dc83      	bgt.n	800083e <ProcessMouse+0x7e>
 8000936:	880e      	ldrh	r6, [r1, #0]
 8000938:	1af3      	subs	r3, r6, r3
 800093a:	b21b      	sxth	r3, r3
 800093c:	800b      	strh	r3, [r1, #0]
 800093e:	e782      	b.n	8000846 <ProcessMouse+0x86>
 8000940:	2400      	movs	r4, #0
 8000942:	e7b7      	b.n	80008b4 <ProcessMouse+0xf4>
 8000944:	2600      	movs	r6, #0
 8000946:	e794      	b.n	8000872 <ProcessMouse+0xb2>
 8000948:	bf1e      	ittt	ne
 800094a:	8822      	ldrhne	r2, [r4, #0]
 800094c:	1ad3      	subne	r3, r2, r3
 800094e:	b21b      	sxthne	r3, r3
 8000950:	8023      	strh	r3, [r4, #0]
 8000952:	e79a      	b.n	800088a <ProcessMouse+0xca>
 8000954:	7842      	ldrb	r2, [r0, #1]
 8000956:	b9da      	cbnz	r2, 8000990 <ProcessMouse+0x1d0>
 8000958:	b25b      	sxtb	r3, r3
 800095a:	f240 01ba 	movw	r1, #186	; 0xba
 800095e:	f240 04bc 	movw	r4, #188	; 0xbc
 8000962:	2b00      	cmp	r3, #0
 8000964:	f2c2 0100 	movt	r1, #8192	; 0x2000
 8000968:	f2c2 0400 	movt	r4, #8192	; 0x2000
 800096c:	f73f af67 	bgt.w	800083e <ProcessMouse+0x7e>
 8000970:	e7e1      	b.n	8000936 <ProcessMouse+0x176>
 8000972:	24ff      	movs	r4, #255	; 0xff
 8000974:	e79e      	b.n	80008b4 <ProcessMouse+0xf4>
 8000976:	26ff      	movs	r6, #255	; 0xff
 8000978:	e77b      	b.n	8000872 <ProcessMouse+0xb2>
 800097a:	f240 04bc 	movw	r4, #188	; 0xbc
 800097e:	f2c2 0400 	movt	r4, #8192	; 0x2000
 8000982:	f240 01ba 	movw	r1, #186	; 0xba
 8000986:	f2c2 0100 	movt	r1, #8192	; 0x2000
 800098a:	2300      	movs	r3, #0
 800098c:	800b      	strh	r3, [r1, #0]
 800098e:	e75a      	b.n	8000846 <ProcessMouse+0x86>
 8000990:	f240 01b9 	movw	r1, #185	; 0xb9
 8000994:	f2c2 0100 	movt	r1, #8192	; 0x2000
 8000998:	780c      	ldrb	r4, [r1, #0]
 800099a:	2c00      	cmp	r4, #0
 800099c:	f43f af3f 	beq.w	800081e <ProcessMouse+0x5e>
 80009a0:	f240 04bc 	movw	r4, #188	; 0xbc
 80009a4:	f2c2 0400 	movt	r4, #8192	; 0x2000
 80009a8:	e741      	b.n	800082e <ProcessMouse+0x6e>
 80009aa:	d0ea      	beq.n	8000982 <ProcessMouse+0x1c2>
 80009ac:	f240 01ba 	movw	r1, #186	; 0xba
 80009b0:	f2c2 0100 	movt	r1, #8192	; 0x2000
 80009b4:	e7bf      	b.n	8000936 <ProcessMouse+0x176>
 80009b6:	bf00      	nop

080009b8 <ProcessX_IRQ>:
 80009b8:	b538      	push	{r3, r4, r5, lr}
 80009ba:	f240 05ba 	movw	r5, #186	; 0xba
 80009be:	f2c2 0500 	movt	r5, #8192	; 0x2000
 80009c2:	882b      	ldrh	r3, [r5, #0]
 80009c4:	b21b      	sxth	r3, r3
 80009c6:	2b00      	cmp	r3, #0
 80009c8:	dd42      	ble.n	8000a50 <ProcessX_IRQ+0x98>
 80009ca:	f240 04be 	movw	r4, #190	; 0xbe
 80009ce:	f2c2 0400 	movt	r4, #8192	; 0x2000
 80009d2:	7823      	ldrb	r3, [r4, #0]
 80009d4:	b25a      	sxtb	r2, r3
 80009d6:	2b00      	cmp	r3, #0
 80009d8:	d041      	beq.n	8000a5e <ProcessX_IRQ+0xa6>
 80009da:	7823      	ldrb	r3, [r4, #0]
 80009dc:	2b01      	cmp	r3, #1
 80009de:	d04c      	beq.n	8000a7a <ProcessX_IRQ+0xc2>
 80009e0:	7823      	ldrb	r3, [r4, #0]
 80009e2:	2b02      	cmp	r3, #2
 80009e4:	d054      	beq.n	8000a90 <ProcessX_IRQ+0xd8>
 80009e6:	7823      	ldrb	r3, [r4, #0]
 80009e8:	2b03      	cmp	r3, #3
 80009ea:	d05c      	beq.n	8000aa6 <ProcessX_IRQ+0xee>
 80009ec:	f240 03b8 	movw	r3, #184	; 0xb8
 80009f0:	f2c2 0300 	movt	r3, #8192	; 0x2000
 80009f4:	781a      	ldrb	r2, [r3, #0]
 80009f6:	b302      	cbz	r2, 8000a3a <ProcessX_IRQ+0x82>
 80009f8:	7822      	ldrb	r2, [r4, #0]
 80009fa:	3201      	adds	r2, #1
 80009fc:	b252      	sxtb	r2, r2
 80009fe:	7022      	strb	r2, [r4, #0]
 8000a00:	882a      	ldrh	r2, [r5, #0]
 8000a02:	3a01      	subs	r2, #1
 8000a04:	b212      	sxth	r2, r2
 8000a06:	802a      	strh	r2, [r5, #0]
 8000a08:	781a      	ldrb	r2, [r3, #0]
 8000a0a:	2a01      	cmp	r2, #1
 8000a0c:	d105      	bne.n	8000a1a <ProcessX_IRQ+0x62>
 8000a0e:	7822      	ldrb	r2, [r4, #0]
 8000a10:	b252      	sxtb	r2, r2
 8000a12:	2a03      	cmp	r2, #3
 8000a14:	bfc4      	itt	gt
 8000a16:	2200      	movgt	r2, #0
 8000a18:	7022      	strbgt	r2, [r4, #0]
 8000a1a:	781b      	ldrb	r3, [r3, #0]
 8000a1c:	b913      	cbnz	r3, 8000a24 <ProcessX_IRQ+0x6c>
 8000a1e:	7823      	ldrb	r3, [r4, #0]
 8000a20:	061b      	lsls	r3, r3, #24
 8000a22:	d427      	bmi.n	8000a74 <ProcessX_IRQ+0xbc>
 8000a24:	f240 0300 	movw	r3, #0
 8000a28:	f2c2 0300 	movt	r3, #8192	; 0x2000
 8000a2c:	781a      	ldrb	r2, [r3, #0]
 8000a2e:	b94a      	cbnz	r2, 8000a44 <ProcessX_IRQ+0x8c>
 8000a30:	f04f 4380 	mov.w	r3, #1073741824	; 0x40000000
 8000a34:	2201      	movs	r2, #1
 8000a36:	62da      	str	r2, [r3, #44]	; 0x2c
 8000a38:	bd38      	pop	{r3, r4, r5, pc}
 8000a3a:	7822      	ldrb	r2, [r4, #0]
 8000a3c:	3a01      	subs	r2, #1
 8000a3e:	b252      	sxtb	r2, r2
 8000a40:	7022      	strb	r2, [r4, #0]
 8000a42:	e7dd      	b.n	8000a00 <ProcessX_IRQ+0x48>
 8000a44:	781b      	ldrb	r3, [r3, #0]
 8000a46:	f04f 4280 	mov.w	r2, #1073741824	; 0x40000000
 8000a4a:	b2db      	uxtb	r3, r3
 8000a4c:	62d3      	str	r3, [r2, #44]	; 0x2c
 8000a4e:	bd38      	pop	{r3, r4, r5, pc}
 8000a50:	f240 03be 	movw	r3, #190	; 0xbe
 8000a54:	f2c2 0300 	movt	r3, #8192	; 0x2000
 8000a58:	2200      	movs	r2, #0
 8000a5a:	701a      	strb	r2, [r3, #0]
 8000a5c:	e7e2      	b.n	8000a24 <ProcessX_IRQ+0x6c>
 8000a5e:	f44f 6080 	mov.w	r0, #1024	; 0x400
 8000a62:	f2c4 0002 	movt	r0, #16386	; 0x4002
 8000a66:	2140      	movs	r1, #64	; 0x40
 8000a68:	f000 fc1a 	bl	80012a0 <HAL_GPIO_WritePin>
 8000a6c:	7823      	ldrb	r3, [r4, #0]
 8000a6e:	2b01      	cmp	r3, #1
 8000a70:	d1b6      	bne.n	80009e0 <ProcessX_IRQ+0x28>
 8000a72:	e002      	b.n	8000a7a <ProcessX_IRQ+0xc2>
 8000a74:	2303      	movs	r3, #3
 8000a76:	7023      	strb	r3, [r4, #0]
 8000a78:	e7d4      	b.n	8000a24 <ProcessX_IRQ+0x6c>
 8000a7a:	f44f 6080 	mov.w	r0, #1024	; 0x400
 8000a7e:	f2c4 0002 	movt	r0, #16386	; 0x4002
 8000a82:	2200      	movs	r2, #0
 8000a84:	2110      	movs	r1, #16
 8000a86:	f000 fc0b 	bl	80012a0 <HAL_GPIO_WritePin>
 8000a8a:	7823      	ldrb	r3, [r4, #0]
 8000a8c:	2b02      	cmp	r3, #2
 8000a8e:	d1aa      	bne.n	80009e6 <ProcessX_IRQ+0x2e>
 8000a90:	f44f 6080 	mov.w	r0, #1024	; 0x400
 8000a94:	f2c4 0002 	movt	r0, #16386	; 0x4002
 8000a98:	2201      	movs	r2, #1
 8000a9a:	2140      	movs	r1, #64	; 0x40
 8000a9c:	f000 fc00 	bl	80012a0 <HAL_GPIO_WritePin>
 8000aa0:	7823      	ldrb	r3, [r4, #0]
 8000aa2:	2b03      	cmp	r3, #3
 8000aa4:	d1a2      	bne.n	80009ec <ProcessX_IRQ+0x34>
 8000aa6:	f44f 6080 	mov.w	r0, #1024	; 0x400
 8000aaa:	2201      	movs	r2, #1
 8000aac:	f2c4 0002 	movt	r0, #16386	; 0x4002
 8000ab0:	2110      	movs	r1, #16
 8000ab2:	f000 fbf5 	bl	80012a0 <HAL_GPIO_WritePin>
 8000ab6:	f240 03b8 	movw	r3, #184	; 0xb8
 8000aba:	f2c2 0300 	movt	r3, #8192	; 0x2000
 8000abe:	781a      	ldrb	r2, [r3, #0]
 8000ac0:	2a00      	cmp	r2, #0
 8000ac2:	d199      	bne.n	80009f8 <ProcessX_IRQ+0x40>
 8000ac4:	e7b9      	b.n	8000a3a <ProcessX_IRQ+0x82>
 8000ac6:	bf00      	nop

08000ac8 <ProcessY_IRQ>:
 8000ac8:	b538      	push	{r3, r4, r5, lr}
 8000aca:	f240 05bc 	movw	r5, #188	; 0xbc
 8000ace:	f2c2 0500 	movt	r5, #8192	; 0x2000
 8000ad2:	882b      	ldrh	r3, [r5, #0]
 8000ad4:	b21b      	sxth	r3, r3
 8000ad6:	2b00      	cmp	r3, #0
 8000ad8:	dd46      	ble.n	8000b68 <ProcessY_IRQ+0xa0>
 8000ada:	f240 04bf 	movw	r4, #191	; 0xbf
 8000ade:	f2c2 0400 	movt	r4, #8192	; 0x2000
 8000ae2:	7823      	ldrb	r3, [r4, #0]
 8000ae4:	2b03      	cmp	r3, #3
 8000ae6:	d058      	beq.n	8000b9a <ProcessY_IRQ+0xd2>
 8000ae8:	7823      	ldrb	r3, [r4, #0]
 8000aea:	2b02      	cmp	r3, #2
 8000aec:	d060      	beq.n	8000bb0 <ProcessY_IRQ+0xe8>
 8000aee:	7823      	ldrb	r3, [r4, #0]
 8000af0:	2b01      	cmp	r3, #1
 8000af2:	d068      	beq.n	8000bc6 <ProcessY_IRQ+0xfe>
 8000af4:	7823      	ldrb	r3, [r4, #0]
 8000af6:	b25a      	sxtb	r2, r3
 8000af8:	2b00      	cmp	r3, #0
 8000afa:	d03c      	beq.n	8000b76 <ProcessY_IRQ+0xae>
 8000afc:	f240 03b9 	movw	r3, #185	; 0xb9
 8000b00:	f2c2 0300 	movt	r3, #8192	; 0x2000
 8000b04:	781a      	ldrb	r2, [r3, #0]
 8000b06:	b312      	cbz	r2, 8000b4e <ProcessY_IRQ+0x86>
 8000b08:	7822      	ldrb	r2, [r4, #0]
 8000b0a:	3201      	adds	r2, #1
 8000b0c:	b252      	sxtb	r2, r2
 8000b0e:	7022      	strb	r2, [r4, #0]
 8000b10:	882a      	ldrh	r2, [r5, #0]
 8000b12:	3a01      	subs	r2, #1
 8000b14:	b212      	sxth	r2, r2
 8000b16:	802a      	strh	r2, [r5, #0]
 8000b18:	781a      	ldrb	r2, [r3, #0]
 8000b1a:	2a01      	cmp	r2, #1
 8000b1c:	d105      	bne.n	8000b2a <ProcessY_IRQ+0x62>
 8000b1e:	7822      	ldrb	r2, [r4, #0]
 8000b20:	b252      	sxtb	r2, r2
 8000b22:	2a03      	cmp	r2, #3
 8000b24:	bfc4      	itt	gt
 8000b26:	2200      	movgt	r2, #0
 8000b28:	7022      	strbgt	r2, [r4, #0]
 8000b2a:	781b      	ldrb	r3, [r3, #0]
 8000b2c:	b913      	cbnz	r3, 8000b34 <ProcessY_IRQ+0x6c>
 8000b2e:	7823      	ldrb	r3, [r4, #0]
 8000b30:	061b      	lsls	r3, r3, #24
 8000b32:	d42f      	bmi.n	8000b94 <ProcessY_IRQ+0xcc>
 8000b34:	f240 0301 	movw	r3, #1
 8000b38:	f2c2 0300 	movt	r3, #8192	; 0x2000
 8000b3c:	781a      	ldrb	r2, [r3, #0]
 8000b3e:	b95a      	cbnz	r2, 8000b58 <ProcessY_IRQ+0x90>
 8000b40:	f44f 6380 	mov.w	r3, #1024	; 0x400
 8000b44:	f2c4 0300 	movt	r3, #16384	; 0x4000
 8000b48:	2201      	movs	r2, #1
 8000b4a:	62da      	str	r2, [r3, #44]	; 0x2c
 8000b4c:	bd38      	pop	{r3, r4, r5, pc}
 8000b4e:	7822      	ldrb	r2, [r4, #0]
 8000b50:	3a01      	subs	r2, #1
 8000b52:	b252      	sxtb	r2, r2
 8000b54:	7022      	strb	r2, [r4, #0]
 8000b56:	e7db      	b.n	8000b10 <ProcessY_IRQ+0x48>
 8000b58:	781b      	ldrb	r3, [r3, #0]
 8000b5a:	f44f 6280 	mov.w	r2, #1024	; 0x400
 8000b5e:	f2c4 0200 	movt	r2, #16384	; 0x4000
 8000b62:	b2db      	uxtb	r3, r3
 8000b64:	62d3      	str	r3, [r2, #44]	; 0x2c
 8000b66:	bd38      	pop	{r3, r4, r5, pc}
 8000b68:	f240 03bf 	movw	r3, #191	; 0xbf
 8000b6c:	f2c2 0300 	movt	r3, #8192	; 0x2000
 8000b70:	2200      	movs	r2, #0
 8000b72:	701a      	strb	r2, [r3, #0]
 8000b74:	e7de      	b.n	8000b34 <ProcessY_IRQ+0x6c>
 8000b76:	f44f 6080 	mov.w	r0, #1024	; 0x400
 8000b7a:	f2c4 0002 	movt	r0, #16386	; 0x4002
 8000b7e:	2180      	movs	r1, #128	; 0x80
 8000b80:	f000 fb8e 	bl	80012a0 <HAL_GPIO_WritePin>
 8000b84:	f240 03b9 	movw	r3, #185	; 0xb9
 8000b88:	f2c2 0300 	movt	r3, #8192	; 0x2000
 8000b8c:	781a      	ldrb	r2, [r3, #0]
 8000b8e:	2a00      	cmp	r2, #0
 8000b90:	d1ba      	bne.n	8000b08 <ProcessY_IRQ+0x40>
 8000b92:	e7dc      	b.n	8000b4e <ProcessY_IRQ+0x86>
 8000b94:	2303      	movs	r3, #3
 8000b96:	7023      	strb	r3, [r4, #0]
 8000b98:	e7cc      	b.n	8000b34 <ProcessY_IRQ+0x6c>
 8000b9a:	f44f 6080 	mov.w	r0, #1024	; 0x400
 8000b9e:	f2c4 0002 	movt	r0, #16386	; 0x4002
 8000ba2:	2201      	movs	r2, #1
 8000ba4:	2120      	movs	r1, #32
 8000ba6:	f000 fb7b 	bl	80012a0 <HAL_GPIO_WritePin>
 8000baa:	7823      	ldrb	r3, [r4, #0]
 8000bac:	2b02      	cmp	r3, #2
 8000bae:	d19e      	bne.n	8000aee <ProcessY_IRQ+0x26>
 8000bb0:	f44f 6080 	mov.w	r0, #1024	; 0x400
 8000bb4:	f2c4 0002 	movt	r0, #16386	; 0x4002
 8000bb8:	2201      	movs	r2, #1
 8000bba:	2180      	movs	r1, #128	; 0x80
 8000bbc:	f000 fb70 	bl	80012a0 <HAL_GPIO_WritePin>
 8000bc0:	7823      	ldrb	r3, [r4, #0]
 8000bc2:	2b01      	cmp	r3, #1
 8000bc4:	d196      	bne.n	8000af4 <ProcessY_IRQ+0x2c>
 8000bc6:	f44f 6080 	mov.w	r0, #1024	; 0x400
 8000bca:	2200      	movs	r2, #0
 8000bcc:	f2c4 0002 	movt	r0, #16386	; 0x4002
 8000bd0:	2120      	movs	r1, #32
 8000bd2:	f000 fb65 	bl	80012a0 <HAL_GPIO_WritePin>
 8000bd6:	7823      	ldrb	r3, [r4, #0]
 8000bd8:	b25a      	sxtb	r2, r3
 8000bda:	2b00      	cmp	r3, #0
 8000bdc:	d18e      	bne.n	8000afc <ProcessY_IRQ+0x34>
 8000bde:	e7ca      	b.n	8000b76 <ProcessY_IRQ+0xae>

08000be0 <HAL_MspInit>:
 8000be0:	b500      	push	{lr}
 8000be2:	f44f 5360 	mov.w	r3, #14336	; 0x3800
 8000be6:	b083      	sub	sp, #12
 8000be8:	f2c4 0302 	movt	r3, #16386	; 0x4002
 8000bec:	2200      	movs	r2, #0
 8000bee:	9200      	str	r2, [sp, #0]
 8000bf0:	6c59      	ldr	r1, [r3, #68]	; 0x44
 8000bf2:	f441 4180 	orr.w	r1, r1, #16384	; 0x4000
 8000bf6:	6459      	str	r1, [r3, #68]	; 0x44
 8000bf8:	6c59      	ldr	r1, [r3, #68]	; 0x44
 8000bfa:	f401 4180 	and.w	r1, r1, #16384	; 0x4000
 8000bfe:	9100      	str	r1, [sp, #0]
 8000c00:	9900      	ldr	r1, [sp, #0]
 8000c02:	9201      	str	r2, [sp, #4]
 8000c04:	6c19      	ldr	r1, [r3, #64]	; 0x40
 8000c06:	f041 5180 	orr.w	r1, r1, #268435456	; 0x10000000
 8000c0a:	6419      	str	r1, [r3, #64]	; 0x40
 8000c0c:	6c1b      	ldr	r3, [r3, #64]	; 0x40
 8000c0e:	f003 5380 	and.w	r3, r3, #268435456	; 0x10000000
 8000c12:	9301      	str	r3, [sp, #4]
 8000c14:	4611      	mov	r1, r2
 8000c16:	2005      	movs	r0, #5
 8000c18:	9b01      	ldr	r3, [sp, #4]
 8000c1a:	f000 f9f3 	bl	8001004 <HAL_NVIC_SetPriority>
 8000c1e:	2005      	movs	r0, #5
 8000c20:	b003      	add	sp, #12
 8000c22:	f85d eb04 	ldr.w	lr, [sp], #4
 8000c26:	f000 ba27 	b.w	8001078 <HAL_NVIC_EnableIRQ>
 8000c2a:	bf00      	nop

08000c2c <HAL_InitTick>:
 8000c2c:	b530      	push	{r4, r5, lr}
 8000c2e:	4601      	mov	r1, r0
 8000c30:	b089      	sub	sp, #36	; 0x24
 8000c32:	2200      	movs	r2, #0
 8000c34:	2019      	movs	r0, #25
 8000c36:	f000 f9e5 	bl	8001004 <HAL_NVIC_SetPriority>
 8000c3a:	2019      	movs	r0, #25
 8000c3c:	f000 fa1c 	bl	8001078 <HAL_NVIC_EnableIRQ>
 8000c40:	f44f 5360 	mov.w	r3, #14336	; 0x3800
 8000c44:	f2c4 0302 	movt	r3, #16386	; 0x4002
 8000c48:	2500      	movs	r5, #0
 8000c4a:	9502      	str	r5, [sp, #8]
 8000c4c:	6c5a      	ldr	r2, [r3, #68]	; 0x44
 8000c4e:	f442 3200 	orr.w	r2, r2, #131072	; 0x20000
 8000c52:	645a      	str	r2, [r3, #68]	; 0x44
 8000c54:	6c5b      	ldr	r3, [r3, #68]	; 0x44
 8000c56:	f403 3300 	and.w	r3, r3, #131072	; 0x20000
 8000c5a:	a901      	add	r1, sp, #4
 8000c5c:	9302      	str	r3, [sp, #8]
 8000c5e:	a803      	add	r0, sp, #12
 8000c60:	9b02      	ldr	r3, [sp, #8]
 8000c62:	f001 fb95 	bl	8002390 <HAL_RCC_GetClockConfig>
 8000c66:	f001 fb7f 	bl	8002368 <HAL_RCC_GetPCLK2Freq>
 8000c6a:	f64d 6383 	movw	r3, #56963	; 0xde83
 8000c6e:	f2c4 331b 	movt	r3, #17179	; 0x431b
 8000c72:	fba3 3000 	umull	r3, r0, r3, r0
 8000c76:	f240 04e0 	movw	r4, #224	; 0xe0
 8000c7a:	f2c2 0400 	movt	r4, #8192	; 0x2000
 8000c7e:	0c83      	lsrs	r3, r0, #18
 8000c80:	f44f 4288 	mov.w	r2, #17408	; 0x4400
 8000c84:	3b01      	subs	r3, #1
 8000c86:	f2c4 0201 	movt	r2, #16385	; 0x4001
 8000c8a:	f240 31e7 	movw	r1, #999	; 0x3e7
 8000c8e:	4620      	mov	r0, r4
 8000c90:	6063      	str	r3, [r4, #4]
 8000c92:	6125      	str	r5, [r4, #16]
 8000c94:	60a5      	str	r5, [r4, #8]
 8000c96:	6022      	str	r2, [r4, #0]
 8000c98:	60e1      	str	r1, [r4, #12]
 8000c9a:	f001 fb99 	bl	80023d0 <HAL_TIM_Base_Init>
 8000c9e:	b110      	cbz	r0, 8000ca6 <HAL_InitTick+0x7a>
 8000ca0:	2001      	movs	r0, #1
 8000ca2:	b009      	add	sp, #36	; 0x24
 8000ca4:	bd30      	pop	{r4, r5, pc}
 8000ca6:	4620      	mov	r0, r4
 8000ca8:	f001 fc1c 	bl	80024e4 <HAL_TIM_Base_Start_IT>
 8000cac:	b009      	add	sp, #36	; 0x24
 8000cae:	bd30      	pop	{r4, r5, pc}

08000cb0 <NMI_Handler>:
 8000cb0:	e7fe      	b.n	8000cb0 <NMI_Handler>
 8000cb2:	bf00      	nop

08000cb4 <HardFault_Handler>:
 8000cb4:	e7fe      	b.n	8000cb4 <HardFault_Handler>
 8000cb6:	bf00      	nop

08000cb8 <MemManage_Handler>:
 8000cb8:	e7fe      	b.n	8000cb8 <MemManage_Handler>
 8000cba:	bf00      	nop

08000cbc <BusFault_Handler>:
 8000cbc:	e7fe      	b.n	8000cbc <BusFault_Handler>
 8000cbe:	bf00      	nop

08000cc0 <UsageFault_Handler>:
 8000cc0:	e7fe      	b.n	8000cc0 <UsageFault_Handler>
 8000cc2:	bf00      	nop

08000cc4 <SVC_Handler>:
 8000cc4:	4770      	bx	lr
 8000cc6:	bf00      	nop

08000cc8 <DebugMon_Handler>:
 8000cc8:	4770      	bx	lr
 8000cca:	bf00      	nop

08000ccc <PendSV_Handler>:
 8000ccc:	4770      	bx	lr
 8000cce:	bf00      	nop

08000cd0 <SysTick_Handler>:
 8000cd0:	4770      	bx	lr
 8000cd2:	bf00      	nop

08000cd4 <RCC_IRQHandler>:
 8000cd4:	4770      	bx	lr
 8000cd6:	bf00      	nop

08000cd8 <TIM1_UP_TIM10_IRQHandler>:
 8000cd8:	f240 00e0 	movw	r0, #224	; 0xe0
 8000cdc:	f2c2 0000 	movt	r0, #8192	; 0x2000
 8000ce0:	f001 bcf4 	b.w	80026cc <HAL_TIM_IRQHandler>

08000ce4 <TIM2_IRQHandler>:
 8000ce4:	f240 1070 	movw	r0, #368	; 0x170
 8000ce8:	f2c2 0000 	movt	r0, #8192	; 0x2000
 8000cec:	f001 bcee 	b.w	80026cc <HAL_TIM_IRQHandler>

08000cf0 <TIM3_IRQHandler>:
 8000cf0:	f240 1028 	movw	r0, #296	; 0x128
 8000cf4:	f2c2 0000 	movt	r0, #8192	; 0x2000
 8000cf8:	f001 bce8 	b.w	80026cc <HAL_TIM_IRQHandler>

08000cfc <OTG_FS_IRQHandler>:
 8000cfc:	f240 50d4 	movw	r0, #1492	; 0x5d4
 8000d00:	f2c2 0000 	movt	r0, #8192	; 0x2000
 8000d04:	f000 bbd0 	b.w	80014a8 <HAL_HCD_IRQHandler>

08000d08 <_sbrk>:
 8000d08:	f240 01c0 	movw	r1, #192	; 0xc0
 8000d0c:	f2c2 0100 	movt	r1, #8192	; 0x2000
 8000d10:	b510      	push	{r4, lr}
 8000d12:	f240 0200 	movw	r2, #0
 8000d16:	f242 0400 	movw	r4, #8192	; 0x2000
 8000d1a:	680b      	ldr	r3, [r1, #0]
 8000d1c:	f2c2 0201 	movt	r2, #8193	; 0x2001
 8000d20:	f2c0 0400 	movt	r4, #0
 8000d24:	1b12      	subs	r2, r2, r4
 8000d26:	b12b      	cbz	r3, 8000d34 <_sbrk+0x2c>
 8000d28:	4418      	add	r0, r3
 8000d2a:	4290      	cmp	r0, r2
 8000d2c:	d80a      	bhi.n	8000d44 <_sbrk+0x3c>
 8000d2e:	6008      	str	r0, [r1, #0]
 8000d30:	4618      	mov	r0, r3
 8000d32:	bd10      	pop	{r4, pc}
 8000d34:	f640 03e8 	movw	r3, #2280	; 0x8e8
 8000d38:	f2c2 0300 	movt	r3, #8192	; 0x2000
 8000d3c:	4418      	add	r0, r3
 8000d3e:	4290      	cmp	r0, r2
 8000d40:	600b      	str	r3, [r1, #0]
 8000d42:	d9f4      	bls.n	8000d2e <_sbrk+0x26>
 8000d44:	f005 f834 	bl	8005db0 <__errno>
 8000d48:	230c      	movs	r3, #12
 8000d4a:	6003      	str	r3, [r0, #0]
 8000d4c:	f04f 33ff 	mov.w	r3, #4294967295
 8000d50:	4618      	mov	r0, r3
 8000d52:	bd10      	pop	{r4, pc}

08000d54 <SystemInit>:
 8000d54:	f44f 436d 	mov.w	r3, #60672	; 0xed00
 8000d58:	f2ce 0300 	movt	r3, #57344	; 0xe000
 8000d5c:	f8d3 2088 	ldr.w	r2, [r3, #136]	; 0x88
 8000d60:	f442 0270 	orr.w	r2, r2, #15728640	; 0xf00000
 8000d64:	f8c3 2088 	str.w	r2, [r3, #136]	; 0x88
 8000d68:	4770      	bx	lr
 8000d6a:	bf00      	nop

08000d6c <MX_TIM2_Init>:
 8000d6c:	b500      	push	{lr}
 8000d6e:	f240 1070 	movw	r0, #368	; 0x170
 8000d72:	b087      	sub	sp, #28
 8000d74:	f2c2 0000 	movt	r0, #8192	; 0x2000
 8000d78:	f241 43ff 	movw	r3, #5375	; 0x14ff
 8000d7c:	f04f 4180 	mov.w	r1, #1073741824	; 0x40000000
 8000d80:	e9c0 1300 	strd	r1, r3, [r0]
 8000d84:	f44f 727a 	mov.w	r2, #1000	; 0x3e8
 8000d88:	2300      	movs	r3, #0
 8000d8a:	e9c0 3202 	strd	r3, r2, [r0, #8]
 8000d8e:	e9cd 3303 	strd	r3, r3, [sp, #12]
 8000d92:	6103      	str	r3, [r0, #16]
 8000d94:	6183      	str	r3, [r0, #24]
 8000d96:	9302      	str	r3, [sp, #8]
 8000d98:	9300      	str	r3, [sp, #0]
 8000d9a:	9305      	str	r3, [sp, #20]
 8000d9c:	9301      	str	r3, [sp, #4]
 8000d9e:	f001 fb17 	bl	80023d0 <HAL_TIM_Base_Init>
 8000da2:	b9c8      	cbnz	r0, 8000dd8 <MX_TIM2_Init+0x6c>
 8000da4:	f240 1070 	movw	r0, #368	; 0x170
 8000da8:	f44f 5380 	mov.w	r3, #4096	; 0x1000
 8000dac:	a902      	add	r1, sp, #8
 8000dae:	f2c2 0000 	movt	r0, #8192	; 0x2000
 8000db2:	9302      	str	r3, [sp, #8]
 8000db4:	f001 fbd2 	bl	800255c <HAL_TIM_ConfigClockSource>
 8000db8:	b9b0      	cbnz	r0, 8000de8 <MX_TIM2_Init+0x7c>
 8000dba:	f240 1070 	movw	r0, #368	; 0x170
 8000dbe:	2200      	movs	r2, #0
 8000dc0:	2300      	movs	r3, #0
 8000dc2:	4669      	mov	r1, sp
 8000dc4:	f2c2 0000 	movt	r0, #8192	; 0x2000
 8000dc8:	e9cd 2300 	strd	r2, r3, [sp]
 8000dcc:	f001 fd28 	bl	8002820 <HAL_TIMEx_MasterConfigSynchronization>
 8000dd0:	b928      	cbnz	r0, 8000dde <MX_TIM2_Init+0x72>
 8000dd2:	b007      	add	sp, #28
 8000dd4:	f85d fb04 	ldr.w	pc, [sp], #4
 8000dd8:	f7ff fcf0 	bl	80007bc <Error_Handler>
 8000ddc:	e7e2      	b.n	8000da4 <MX_TIM2_Init+0x38>
 8000dde:	f7ff fced 	bl	80007bc <Error_Handler>
 8000de2:	b007      	add	sp, #28
 8000de4:	f85d fb04 	ldr.w	pc, [sp], #4
 8000de8:	f7ff fce8 	bl	80007bc <Error_Handler>
 8000dec:	e7e5      	b.n	8000dba <MX_TIM2_Init+0x4e>
 8000dee:	bf00      	nop

08000df0 <MX_TIM3_Init>:
 8000df0:	b500      	push	{lr}
 8000df2:	f240 1028 	movw	r0, #296	; 0x128
 8000df6:	f44f 6380 	mov.w	r3, #1024	; 0x400
 8000dfa:	b087      	sub	sp, #28
 8000dfc:	f2c2 0000 	movt	r0, #8192	; 0x2000
 8000e00:	f2c4 0300 	movt	r3, #16384	; 0x4000
 8000e04:	f241 41ff 	movw	r1, #5375	; 0x14ff
 8000e08:	e9c0 3100 	strd	r3, r1, [r0]
 8000e0c:	f44f 727a 	mov.w	r2, #1000	; 0x3e8
 8000e10:	2300      	movs	r3, #0
 8000e12:	e9c0 3202 	strd	r3, r2, [r0, #8]
 8000e16:	e9cd 3303 	strd	r3, r3, [sp, #12]
 8000e1a:	6103      	str	r3, [r0, #16]
 8000e1c:	6183      	str	r3, [r0, #24]
 8000e1e:	9302      	str	r3, [sp, #8]
 8000e20:	9300      	str	r3, [sp, #0]
 8000e22:	9305      	str	r3, [sp, #20]
 8000e24:	9301      	str	r3, [sp, #4]
 8000e26:	f001 fad3 	bl	80023d0 <HAL_TIM_Base_Init>
 8000e2a:	b9c8      	cbnz	r0, 8000e60 <MX_TIM3_Init+0x70>
 8000e2c:	f240 1028 	movw	r0, #296	; 0x128
 8000e30:	f44f 5380 	mov.w	r3, #4096	; 0x1000
 8000e34:	a902      	add	r1, sp, #8
 8000e36:	f2c2 0000 	movt	r0, #8192	; 0x2000
 8000e3a:	9302      	str	r3, [sp, #8]
 8000e3c:	f001 fb8e 	bl	800255c <HAL_TIM_ConfigClockSource>
 8000e40:	b9b0      	cbnz	r0, 8000e70 <MX_TIM3_Init+0x80>
 8000e42:	f240 1028 	movw	r0, #296	; 0x128
 8000e46:	2200      	movs	r2, #0
 8000e48:	2300      	movs	r3, #0
 8000e4a:	4669      	mov	r1, sp
 8000e4c:	f2c2 0000 	movt	r0, #8192	; 0x2000
 8000e50:	e9cd 2300 	strd	r2, r3, [sp]
 8000e54:	f001 fce4 	bl	8002820 <HAL_TIMEx_MasterConfigSynchronization>
 8000e58:	b928      	cbnz	r0, 8000e66 <MX_TIM3_Init+0x76>
 8000e5a:	b007      	add	sp, #28
 8000e5c:	f85d fb04 	ldr.w	pc, [sp], #4
 8000e60:	f7ff fcac 	bl	80007bc <Error_Handler>
 8000e64:	e7e2      	b.n	8000e2c <MX_TIM3_Init+0x3c>
 8000e66:	f7ff fca9 	bl	80007bc <Error_Handler>
 8000e6a:	b007      	add	sp, #28
 8000e6c:	f85d fb04 	ldr.w	pc, [sp], #4
 8000e70:	f7ff fca4 	bl	80007bc <Error_Handler>
 8000e74:	e7e5      	b.n	8000e42 <MX_TIM3_Init+0x52>
 8000e76:	bf00      	nop

08000e78 <HAL_TIM_Base_MspInit>:
 8000e78:	b500      	push	{lr}
 8000e7a:	6803      	ldr	r3, [r0, #0]
 8000e7c:	f1b3 4f80 	cmp.w	r3, #1073741824	; 0x40000000
 8000e80:	b083      	sub	sp, #12
 8000e82:	d008      	beq.n	8000e96 <HAL_TIM_Base_MspInit+0x1e>
 8000e84:	f44f 6280 	mov.w	r2, #1024	; 0x400
 8000e88:	f2c4 0200 	movt	r2, #16384	; 0x4000
 8000e8c:	4293      	cmp	r3, r2
 8000e8e:	d01b      	beq.n	8000ec8 <HAL_TIM_Base_MspInit+0x50>
 8000e90:	b003      	add	sp, #12
 8000e92:	f85d fb04 	ldr.w	pc, [sp], #4
 8000e96:	f44f 5360 	mov.w	r3, #14336	; 0x3800
 8000e9a:	2200      	movs	r2, #0
 8000e9c:	f2c4 0302 	movt	r3, #16386	; 0x4002
 8000ea0:	9200      	str	r2, [sp, #0]
 8000ea2:	6c19      	ldr	r1, [r3, #64]	; 0x40
 8000ea4:	f041 0101 	orr.w	r1, r1, #1
 8000ea8:	6419      	str	r1, [r3, #64]	; 0x40
 8000eaa:	6c1b      	ldr	r3, [r3, #64]	; 0x40
 8000eac:	f003 0301 	and.w	r3, r3, #1
 8000eb0:	9300      	str	r3, [sp, #0]
 8000eb2:	4611      	mov	r1, r2
 8000eb4:	201c      	movs	r0, #28
 8000eb6:	9b00      	ldr	r3, [sp, #0]
 8000eb8:	f000 f8a4 	bl	8001004 <HAL_NVIC_SetPriority>
 8000ebc:	201c      	movs	r0, #28
 8000ebe:	b003      	add	sp, #12
 8000ec0:	f85d eb04 	ldr.w	lr, [sp], #4
 8000ec4:	f000 b8d8 	b.w	8001078 <HAL_NVIC_EnableIRQ>
 8000ec8:	f44f 5360 	mov.w	r3, #14336	; 0x3800
 8000ecc:	2200      	movs	r2, #0
 8000ece:	f2c4 0302 	movt	r3, #16386	; 0x4002
 8000ed2:	9201      	str	r2, [sp, #4]
 8000ed4:	6c19      	ldr	r1, [r3, #64]	; 0x40
 8000ed6:	f041 0102 	orr.w	r1, r1, #2
 8000eda:	6419      	str	r1, [r3, #64]	; 0x40
 8000edc:	6c1b      	ldr	r3, [r3, #64]	; 0x40
 8000ede:	f003 0302 	and.w	r3, r3, #2
 8000ee2:	9301      	str	r3, [sp, #4]
 8000ee4:	4611      	mov	r1, r2
 8000ee6:	201d      	movs	r0, #29
 8000ee8:	9b01      	ldr	r3, [sp, #4]
 8000eea:	f000 f88b 	bl	8001004 <HAL_NVIC_SetPriority>
 8000eee:	201d      	movs	r0, #29
 8000ef0:	b003      	add	sp, #12
 8000ef2:	f85d eb04 	ldr.w	lr, [sp], #4
 8000ef6:	f000 b8bf 	b.w	8001078 <HAL_NVIC_EnableIRQ>
 8000efa:	bf00      	nop

08000efc <Reset_Handler>:
 8000efc:	f8df d034 	ldr.w	sp, [pc, #52]	; 8000f34 <LoopFillZerobss+0x12>
 8000f00:	480d      	ldr	r0, [pc, #52]	; (8000f38 <LoopFillZerobss+0x16>)
 8000f02:	490e      	ldr	r1, [pc, #56]	; (8000f3c <LoopFillZerobss+0x1a>)
 8000f04:	4a0e      	ldr	r2, [pc, #56]	; (8000f40 <LoopFillZerobss+0x1e>)
 8000f06:	2300      	movs	r3, #0
 8000f08:	e002      	b.n	8000f10 <LoopCopyDataInit>

08000f0a <CopyDataInit>:
 8000f0a:	58d4      	ldr	r4, [r2, r3]
 8000f0c:	50c4      	str	r4, [r0, r3]
 8000f0e:	3304      	adds	r3, #4

08000f10 <LoopCopyDataInit>:
 8000f10:	18c4      	adds	r4, r0, r3
 8000f12:	428c      	cmp	r4, r1
 8000f14:	d3f9      	bcc.n	8000f0a <CopyDataInit>
 8000f16:	4a0b      	ldr	r2, [pc, #44]	; (8000f44 <LoopFillZerobss+0x22>)
 8000f18:	4c0b      	ldr	r4, [pc, #44]	; (8000f48 <LoopFillZerobss+0x26>)
 8000f1a:	2300      	movs	r3, #0
 8000f1c:	e001      	b.n	8000f22 <LoopFillZerobss>

08000f1e <FillZerobss>:
 8000f1e:	6013      	str	r3, [r2, #0]
 8000f20:	3204      	adds	r2, #4

08000f22 <LoopFillZerobss>:
 8000f22:	42a2      	cmp	r2, r4
 8000f24:	d3fb      	bcc.n	8000f1e <FillZerobss>
 8000f26:	f7ff ff15 	bl	8000d54 <SystemInit>
 8000f2a:	f004 ff47 	bl	8005dbc <__libc_init_array>
 8000f2e:	f7ff fbff 	bl	8000730 <main>
 8000f32:	4770      	bx	lr
 8000f34:	20010000 	.word	0x20010000
 8000f38:	20000000 	.word	0x20000000
 8000f3c:	2000009c 	.word	0x2000009c
 8000f40:	0800600c 	.word	0x0800600c
 8000f44:	2000009c 	.word	0x2000009c
 8000f48:	200008e8 	.word	0x200008e8

08000f4c <ADC_IRQHandler>:
 8000f4c:	e7fe      	b.n	8000f4c <ADC_IRQHandler>
	...

08000f50 <HAL_Init>:
 8000f50:	b508      	push	{r3, lr}
 8000f52:	f44f 5370 	mov.w	r3, #15360	; 0x3c00
 8000f56:	f2c4 0302 	movt	r3, #16386	; 0x4002
 8000f5a:	2003      	movs	r0, #3
 8000f5c:	681a      	ldr	r2, [r3, #0]
 8000f5e:	f442 7200 	orr.w	r2, r2, #512	; 0x200
 8000f62:	601a      	str	r2, [r3, #0]
 8000f64:	681a      	ldr	r2, [r3, #0]
 8000f66:	f442 6280 	orr.w	r2, r2, #1024	; 0x400
 8000f6a:	601a      	str	r2, [r3, #0]
 8000f6c:	681a      	ldr	r2, [r3, #0]
 8000f6e:	f442 7280 	orr.w	r2, r2, #256	; 0x100
 8000f72:	601a      	str	r2, [r3, #0]
 8000f74:	f000 f830 	bl	8000fd8 <HAL_NVIC_SetPriorityGrouping>
 8000f78:	200f      	movs	r0, #15
 8000f7a:	f7ff fe57 	bl	8000c2c <HAL_InitTick>
 8000f7e:	f7ff fe2f 	bl	8000be0 <HAL_MspInit>
 8000f82:	2000      	movs	r0, #0
 8000f84:	bd08      	pop	{r3, pc}
 8000f86:	bf00      	nop

08000f88 <HAL_IncTick>:
 8000f88:	f240 13b8 	movw	r3, #440	; 0x1b8
 8000f8c:	f240 0108 	movw	r1, #8
 8000f90:	f2c2 0300 	movt	r3, #8192	; 0x2000
 8000f94:	f2c2 0100 	movt	r1, #8192	; 0x2000
 8000f98:	6818      	ldr	r0, [r3, #0]
 8000f9a:	780a      	ldrb	r2, [r1, #0]
 8000f9c:	4402      	add	r2, r0
 8000f9e:	601a      	str	r2, [r3, #0]
 8000fa0:	4770      	bx	lr
 8000fa2:	bf00      	nop

08000fa4 <HAL_GetTick>:
 8000fa4:	f240 13b8 	movw	r3, #440	; 0x1b8
 8000fa8:	f2c2 0300 	movt	r3, #8192	; 0x2000
 8000fac:	6818      	ldr	r0, [r3, #0]
 8000fae:	4770      	bx	lr

08000fb0 <HAL_Delay>:
 8000fb0:	b538      	push	{r3, r4, r5, lr}
 8000fb2:	4604      	mov	r4, r0
 8000fb4:	f7ff fff6 	bl	8000fa4 <HAL_GetTick>
 8000fb8:	1c63      	adds	r3, r4, #1
 8000fba:	4605      	mov	r5, r0
 8000fbc:	d005      	beq.n	8000fca <HAL_Delay+0x1a>
 8000fbe:	f240 0308 	movw	r3, #8
 8000fc2:	f2c2 0300 	movt	r3, #8192	; 0x2000
 8000fc6:	781b      	ldrb	r3, [r3, #0]
 8000fc8:	441c      	add	r4, r3
 8000fca:	f7ff ffeb 	bl	8000fa4 <HAL_GetTick>
 8000fce:	1b43      	subs	r3, r0, r5
 8000fd0:	42a3      	cmp	r3, r4
 8000fd2:	d3fa      	bcc.n	8000fca <HAL_Delay+0x1a>
 8000fd4:	bd38      	pop	{r3, r4, r5, pc}
 8000fd6:	bf00      	nop

08000fd8 <HAL_NVIC_SetPriorityGrouping>:
 8000fd8:	f44f 426d 	mov.w	r2, #60672	; 0xed00
 8000fdc:	f2ce 0200 	movt	r2, #57344	; 0xe000
 8000fe0:	b410      	push	{r4}
 8000fe2:	68d1      	ldr	r1, [r2, #12]
 8000fe4:	f64f 04ff 	movw	r4, #63743	; 0xf8ff
 8000fe8:	0200      	lsls	r0, r0, #8
 8000fea:	4021      	ands	r1, r4
 8000fec:	f400 63e0 	and.w	r3, r0, #1792	; 0x700
 8000ff0:	430b      	orrs	r3, r1
 8000ff2:	f043 63bf 	orr.w	r3, r3, #100139008	; 0x5f80000
 8000ff6:	f443 3300 	orr.w	r3, r3, #131072	; 0x20000
 8000ffa:	f85d 4b04 	ldr.w	r4, [sp], #4
 8000ffe:	60d3      	str	r3, [r2, #12]
 8001000:	4770      	bx	lr
 8001002:	bf00      	nop

08001004 <HAL_NVIC_SetPriority>:
 8001004:	f44f 436d 	mov.w	r3, #60672	; 0xed00
 8001008:	f2ce 0300 	movt	r3, #57344	; 0xe000
 800100c:	b430      	push	{r4, r5}
 800100e:	68db      	ldr	r3, [r3, #12]
 8001010:	f3c3 2302 	ubfx	r3, r3, #8, #3
 8001014:	f1c3 0507 	rsb	r5, r3, #7
 8001018:	2d04      	cmp	r5, #4
 800101a:	f103 0404 	add.w	r4, r3, #4
 800101e:	bf28      	it	cs
 8001020:	2504      	movcs	r5, #4
 8001022:	2c06      	cmp	r4, #6
 8001024:	d919      	bls.n	800105a <HAL_NVIC_SetPriority+0x56>
 8001026:	3b03      	subs	r3, #3
 8001028:	f04f 34ff 	mov.w	r4, #4294967295
 800102c:	409c      	lsls	r4, r3
 800102e:	ea22 0204 	bic.w	r2, r2, r4
 8001032:	f04f 34ff 	mov.w	r4, #4294967295
 8001036:	40ac      	lsls	r4, r5
 8001038:	ea21 0104 	bic.w	r1, r1, r4
 800103c:	4099      	lsls	r1, r3
 800103e:	2800      	cmp	r0, #0
 8001040:	ea41 0102 	orr.w	r1, r1, r2
 8001044:	db0c      	blt.n	8001060 <HAL_NVIC_SetPriority+0x5c>
 8001046:	f100 4060 	add.w	r0, r0, #3758096384	; 0xe0000000
 800104a:	f500 4061 	add.w	r0, r0, #57600	; 0xe100
 800104e:	0109      	lsls	r1, r1, #4
 8001050:	b2c9      	uxtb	r1, r1
 8001052:	f880 1300 	strb.w	r1, [r0, #768]	; 0x300
 8001056:	bc30      	pop	{r4, r5}
 8001058:	4770      	bx	lr
 800105a:	2200      	movs	r2, #0
 800105c:	4613      	mov	r3, r2
 800105e:	e7e8      	b.n	8001032 <HAL_NVIC_SetPriority+0x2e>
 8001060:	f64e 43fc 	movw	r3, #60668	; 0xecfc
 8001064:	f000 000f 	and.w	r0, r0, #15
 8001068:	f2ce 0300 	movt	r3, #57344	; 0xe000
 800106c:	0109      	lsls	r1, r1, #4
 800106e:	4403      	add	r3, r0
 8001070:	b2c9      	uxtb	r1, r1
 8001072:	7619      	strb	r1, [r3, #24]
 8001074:	bc30      	pop	{r4, r5}
 8001076:	4770      	bx	lr

08001078 <HAL_NVIC_EnableIRQ>:
 8001078:	2800      	cmp	r0, #0
 800107a:	db0a      	blt.n	8001092 <HAL_NVIC_EnableIRQ+0x1a>
 800107c:	f44f 4261 	mov.w	r2, #57600	; 0xe100
 8001080:	f000 011f 	and.w	r1, r0, #31
 8001084:	f2ce 0200 	movt	r2, #57344	; 0xe000
 8001088:	0940      	lsrs	r0, r0, #5
 800108a:	2301      	movs	r3, #1
 800108c:	408b      	lsls	r3, r1
 800108e:	f842 3020 	str.w	r3, [r2, r0, lsl #2]
 8001092:	4770      	bx	lr

08001094 <HAL_GPIO_Init>:
 8001094:	e92d 4ff0 	stmdb	sp!, {r4, r5, r6, r7, r8, r9, sl, fp, lr}
 8001098:	2300      	movs	r3, #0
 800109a:	b08b      	sub	sp, #44	; 0x2c
 800109c:	461a      	mov	r2, r3
 800109e:	f44f 5c70 	mov.w	ip, #15360	; 0x3c00
 80010a2:	f44f 6480 	mov.w	r4, #1024	; 0x400
 80010a6:	f44f 6500 	mov.w	r5, #2048	; 0x800
 80010aa:	f44f 6640 	mov.w	r6, #3072	; 0xc00
 80010ae:	f44f 5780 	mov.w	r7, #4096	; 0x1000
 80010b2:	f44f 5b60 	mov.w	fp, #14336	; 0x3800
 80010b6:	f2c4 0202 	movt	r2, #16386	; 0x4002
 80010ba:	f2c4 0c01 	movt	ip, #16385	; 0x4001
 80010be:	f2c4 0402 	movt	r4, #16386	; 0x4002
 80010c2:	f2c4 0502 	movt	r5, #16386	; 0x4002
 80010c6:	f2c4 0602 	movt	r6, #16386	; 0x4002
 80010ca:	f2c4 0702 	movt	r7, #16386	; 0x4002
 80010ce:	4689      	mov	r9, r1
 80010d0:	f2c4 0b02 	movt	fp, #16386	; 0x4002
 80010d4:	6809      	ldr	r1, [r1, #0]
 80010d6:	9202      	str	r2, [sp, #8]
 80010d8:	9404      	str	r4, [sp, #16]
 80010da:	9505      	str	r5, [sp, #20]
 80010dc:	9606      	str	r6, [sp, #24]
 80010de:	9707      	str	r7, [sp, #28]
 80010e0:	f04f 0a01 	mov.w	sl, #1
 80010e4:	46e0      	mov	r8, ip
 80010e6:	e002      	b.n	80010ee <HAL_GPIO_Init+0x5a>
 80010e8:	3301      	adds	r3, #1
 80010ea:	2b10      	cmp	r3, #16
 80010ec:	d07b      	beq.n	80011e6 <HAL_GPIO_Init+0x152>
 80010ee:	fa0a f203 	lsl.w	r2, sl, r3
 80010f2:	ea02 0601 	and.w	r6, r2, r1
 80010f6:	438a      	bics	r2, r1
 80010f8:	d1f6      	bne.n	80010e8 <HAL_GPIO_Init+0x54>
 80010fa:	f8d9 5004 	ldr.w	r5, [r9, #4]
 80010fe:	f005 0203 	and.w	r2, r5, #3
 8001102:	1e54      	subs	r4, r2, #1
 8001104:	2c01      	cmp	r4, #1
 8001106:	ea4f 0c43 	mov.w	ip, r3, lsl #1
 800110a:	d96f      	bls.n	80011ec <HAL_GPIO_Init+0x158>
 800110c:	2a03      	cmp	r2, #3
 800110e:	f040 80ad 	bne.w	800126c <HAL_GPIO_Init+0x1d8>
 8001112:	fa02 f20c 	lsl.w	r2, r2, ip
 8001116:	43d4      	mvns	r4, r2
 8001118:	9401      	str	r4, [sp, #4]
 800111a:	6807      	ldr	r7, [r0, #0]
 800111c:	9c01      	ldr	r4, [sp, #4]
 800111e:	403c      	ands	r4, r7
 8001120:	4322      	orrs	r2, r4
 8001122:	f415 3f40 	tst.w	r5, #196608	; 0x30000
 8001126:	6002      	str	r2, [r0, #0]
 8001128:	d0de      	beq.n	80010e8 <HAL_GPIO_Init+0x54>
 800112a:	2200      	movs	r2, #0
 800112c:	9209      	str	r2, [sp, #36]	; 0x24
 800112e:	f8db 2044 	ldr.w	r2, [fp, #68]	; 0x44
 8001132:	f442 4280 	orr.w	r2, r2, #16384	; 0x4000
 8001136:	f8cb 2044 	str.w	r2, [fp, #68]	; 0x44
 800113a:	f8db 2044 	ldr.w	r2, [fp, #68]	; 0x44
 800113e:	f023 0703 	bic.w	r7, r3, #3
 8001142:	f107 4780 	add.w	r7, r7, #1073741824	; 0x40000000
 8001146:	f402 4280 	and.w	r2, r2, #16384	; 0x4000
 800114a:	f507 379c 	add.w	r7, r7, #79872	; 0x13800
 800114e:	9209      	str	r2, [sp, #36]	; 0x24
 8001150:	f003 0403 	and.w	r4, r3, #3
 8001154:	9a09      	ldr	r2, [sp, #36]	; 0x24
 8001156:	f8d7 c008 	ldr.w	ip, [r7, #8]
 800115a:	00a4      	lsls	r4, r4, #2
 800115c:	220f      	movs	r2, #15
 800115e:	40a2      	lsls	r2, r4
 8001160:	ea2c 0e02 	bic.w	lr, ip, r2
 8001164:	9a02      	ldr	r2, [sp, #8]
 8001166:	4290      	cmp	r0, r2
 8001168:	d016      	beq.n	8001198 <HAL_GPIO_Init+0x104>
 800116a:	9a04      	ldr	r2, [sp, #16]
 800116c:	4290      	cmp	r0, r2
 800116e:	f000 8083 	beq.w	8001278 <HAL_GPIO_Init+0x1e4>
 8001172:	9a05      	ldr	r2, [sp, #20]
 8001174:	4290      	cmp	r0, r2
 8001176:	f000 8084 	beq.w	8001282 <HAL_GPIO_Init+0x1ee>
 800117a:	9a06      	ldr	r2, [sp, #24]
 800117c:	4290      	cmp	r0, r2
 800117e:	f000 8087 	beq.w	8001290 <HAL_GPIO_Init+0x1fc>
 8001182:	9a07      	ldr	r2, [sp, #28]
 8001184:	4290      	cmp	r0, r2
 8001186:	bf0c      	ite	eq
 8001188:	f04f 0c04 	moveq.w	ip, #4
 800118c:	f04f 0c07 	movne.w	ip, #7
 8001190:	fa0c f404 	lsl.w	r4, ip, r4
 8001194:	ea4e 0e04 	orr.w	lr, lr, r4
 8001198:	f8c7 e008 	str.w	lr, [r7, #8]
 800119c:	f8d8 2000 	ldr.w	r2, [r8]
 80011a0:	43f4      	mvns	r4, r6
 80011a2:	03ef      	lsls	r7, r5, #15
 80011a4:	bf54      	ite	pl
 80011a6:	4022      	andpl	r2, r4
 80011a8:	4332      	orrmi	r2, r6
 80011aa:	f8c8 2000 	str.w	r2, [r8]
 80011ae:	f8d8 2004 	ldr.w	r2, [r8, #4]
 80011b2:	03af      	lsls	r7, r5, #14
 80011b4:	bf54      	ite	pl
 80011b6:	4022      	andpl	r2, r4
 80011b8:	4332      	orrmi	r2, r6
 80011ba:	f8c8 2004 	str.w	r2, [r8, #4]
 80011be:	f8d8 2008 	ldr.w	r2, [r8, #8]
 80011c2:	02ef      	lsls	r7, r5, #11
 80011c4:	bf54      	ite	pl
 80011c6:	4022      	andpl	r2, r4
 80011c8:	4332      	orrmi	r2, r6
 80011ca:	f8c8 2008 	str.w	r2, [r8, #8]
 80011ce:	f8d8 200c 	ldr.w	r2, [r8, #12]
 80011d2:	02ad      	lsls	r5, r5, #10
 80011d4:	f103 0301 	add.w	r3, r3, #1
 80011d8:	bf54      	ite	pl
 80011da:	4022      	andpl	r2, r4
 80011dc:	4332      	orrmi	r2, r6
 80011de:	2b10      	cmp	r3, #16
 80011e0:	f8c8 200c 	str.w	r2, [r8, #12]
 80011e4:	d183      	bne.n	80010ee <HAL_GPIO_Init+0x5a>
 80011e6:	b00b      	add	sp, #44	; 0x2c
 80011e8:	e8bd 8ff0 	ldmia.w	sp!, {r4, r5, r6, r7, r8, r9, sl, fp, pc}
 80011ec:	6887      	ldr	r7, [r0, #8]
 80011ee:	2403      	movs	r4, #3
 80011f0:	fa04 f40c 	lsl.w	r4, r4, ip
 80011f4:	ea27 0e04 	bic.w	lr, r7, r4
 80011f8:	f8d9 700c 	ldr.w	r7, [r9, #12]
 80011fc:	fa07 f70c 	lsl.w	r7, r7, ip
 8001200:	ea47 070e 	orr.w	r7, r7, lr
 8001204:	6087      	str	r7, [r0, #8]
 8001206:	f8d0 e004 	ldr.w	lr, [r0, #4]
 800120a:	f3c5 1700 	ubfx	r7, r5, #4, #1
 800120e:	ea2e 0e06 	bic.w	lr, lr, r6
 8001212:	409f      	lsls	r7, r3
 8001214:	ea47 070e 	orr.w	r7, r7, lr
 8001218:	43e4      	mvns	r4, r4
 800121a:	9401      	str	r4, [sp, #4]
 800121c:	6047      	str	r7, [r0, #4]
 800121e:	68c7      	ldr	r7, [r0, #12]
 8001220:	ea07 0e04 	and.w	lr, r7, r4
 8001224:	f8d9 7008 	ldr.w	r7, [r9, #8]
 8001228:	fa07 f70c 	lsl.w	r7, r7, ip
 800122c:	ea47 070e 	orr.w	r7, r7, lr
 8001230:	2a02      	cmp	r2, #2
 8001232:	60c7      	str	r7, [r0, #12]
 8001234:	d002      	beq.n	800123c <HAL_GPIO_Init+0x1a8>
 8001236:	fa02 f20c 	lsl.w	r2, r2, ip
 800123a:	e76e      	b.n	800111a <HAL_GPIO_Init+0x86>
 800123c:	08df      	lsrs	r7, r3, #3
 800123e:	eb00 0787 	add.w	r7, r0, r7, lsl #2
 8001242:	f003 0e07 	and.w	lr, r3, #7
 8001246:	9703      	str	r7, [sp, #12]
 8001248:	ea4f 0e8e 	mov.w	lr, lr, lsl #2
 800124c:	6a3f      	ldr	r7, [r7, #32]
 800124e:	240f      	movs	r4, #15
 8001250:	fa04 f40e 	lsl.w	r4, r4, lr
 8001254:	ea27 0404 	bic.w	r4, r7, r4
 8001258:	f8d9 7010 	ldr.w	r7, [r9, #16]
 800125c:	fa07 f70e 	lsl.w	r7, r7, lr
 8001260:	433c      	orrs	r4, r7
 8001262:	9f03      	ldr	r7, [sp, #12]
 8001264:	fa02 f20c 	lsl.w	r2, r2, ip
 8001268:	623c      	str	r4, [r7, #32]
 800126a:	e756      	b.n	800111a <HAL_GPIO_Init+0x86>
 800126c:	2403      	movs	r4, #3
 800126e:	fa04 f40c 	lsl.w	r4, r4, ip
 8001272:	43e4      	mvns	r4, r4
 8001274:	9401      	str	r4, [sp, #4]
 8001276:	e7d2      	b.n	800121e <HAL_GPIO_Init+0x18a>
 8001278:	fa0a f404 	lsl.w	r4, sl, r4
 800127c:	ea4e 0e04 	orr.w	lr, lr, r4
 8001280:	e78a      	b.n	8001198 <HAL_GPIO_Init+0x104>
 8001282:	f04f 0c02 	mov.w	ip, #2
 8001286:	fa0c f404 	lsl.w	r4, ip, r4
 800128a:	ea4e 0e04 	orr.w	lr, lr, r4
 800128e:	e783      	b.n	8001198 <HAL_GPIO_Init+0x104>
 8001290:	f04f 0c03 	mov.w	ip, #3
 8001294:	fa0c f404 	lsl.w	r4, ip, r4
 8001298:	ea4e 0e04 	orr.w	lr, lr, r4
 800129c:	e77c      	b.n	8001198 <HAL_GPIO_Init+0x104>
 800129e:	bf00      	nop

080012a0 <HAL_GPIO_WritePin>:
 80012a0:	b902      	cbnz	r2, 80012a4 <HAL_GPIO_WritePin+0x4>
 80012a2:	0409      	lsls	r1, r1, #16
 80012a4:	6181      	str	r1, [r0, #24]
 80012a6:	4770      	bx	lr

080012a8 <HAL_HCD_HC_Init>:
 80012a8:	e92d 47f0 	stmdb	sp!, {r4, r5, r6, r7, r8, r9, sl, lr}
 80012ac:	f890 42f8 	ldrb.w	r4, [r0, #760]	; 0x2f8
 80012b0:	b084      	sub	sp, #16
 80012b2:	2c01      	cmp	r4, #1
 80012b4:	f89d 7030 	ldrb.w	r7, [sp, #48]	; 0x30
 80012b8:	f89d c034 	ldrb.w	ip, [sp, #52]	; 0x34
 80012bc:	f8bd e038 	ldrh.w	lr, [sp, #56]	; 0x38
 80012c0:	d027      	beq.n	8001312 <HAL_HCD_HC_Init+0x6a>
 80012c2:	4605      	mov	r5, r0
 80012c4:	242c      	movs	r4, #44	; 0x2c
 80012c6:	fb04 0401 	mla	r4, r4, r1, r0
 80012ca:	f04f 0801 	mov.w	r8, #1
 80012ce:	f885 82f8 	strb.w	r8, [r5, #760]	; 0x2f8
 80012d2:	09d0      	lsrs	r0, r2, #7
 80012d4:	f002 0a7f 	and.w	sl, r2, #127	; 0x7f
 80012d8:	f04f 0800 	mov.w	r8, #0
 80012dc:	f884 3038 	strb.w	r3, [r4, #56]	; 0x38
 80012e0:	f884 1039 	strb.w	r1, [r4, #57]	; 0x39
 80012e4:	f884 c03f 	strb.w	ip, [r4, #63]	; 0x3f
 80012e8:	f884 703c 	strb.w	r7, [r4, #60]	; 0x3c
 80012ec:	f884 a03a 	strb.w	sl, [r4, #58]	; 0x3a
 80012f0:	f884 003b 	strb.w	r0, [r4, #59]	; 0x3b
 80012f4:	f884 803d 	strb.w	r8, [r4, #61]	; 0x3d
 80012f8:	6828      	ldr	r0, [r5, #0]
 80012fa:	f8a4 e040 	strh.w	lr, [r4, #64]	; 0x40
 80012fe:	e9cd ce01 	strd	ip, lr, [sp, #4]
 8001302:	9700      	str	r7, [sp, #0]
 8001304:	f001 fd08 	bl	8002d18 <USB_HC_Init>
 8001308:	f885 82f8 	strb.w	r8, [r5, #760]	; 0x2f8
 800130c:	b004      	add	sp, #16
 800130e:	e8bd 87f0 	ldmia.w	sp!, {r4, r5, r6, r7, r8, r9, sl, pc}
 8001312:	2002      	movs	r0, #2
 8001314:	b004      	add	sp, #16
 8001316:	e8bd 87f0 	ldmia.w	sp!, {r4, r5, r6, r7, r8, r9, sl, pc}
 800131a:	bf00      	nop

0800131c <HAL_HCD_HC_Halt>:
 800131c:	f890 32f8 	ldrb.w	r3, [r0, #760]	; 0x2f8
 8001320:	2b01      	cmp	r3, #1
 8001322:	d00b      	beq.n	800133c <HAL_HCD_HC_Halt+0x20>
 8001324:	b510      	push	{r4, lr}
 8001326:	2301      	movs	r3, #1
 8001328:	4604      	mov	r4, r0
 800132a:	f880 32f8 	strb.w	r3, [r0, #760]	; 0x2f8
 800132e:	6800      	ldr	r0, [r0, #0]
 8001330:	f001 fe60 	bl	8002ff4 <USB_HC_Halt>
 8001334:	2000      	movs	r0, #0
 8001336:	f884 02f8 	strb.w	r0, [r4, #760]	; 0x2f8
 800133a:	bd10      	pop	{r4, pc}
 800133c:	2002      	movs	r0, #2
 800133e:	4770      	bx	lr

08001340 <HAL_HCD_Init>:
 8001340:	2800      	cmp	r0, #0
 8001342:	d04a      	beq.n	80013da <HAL_HCD_Init+0x9a>
 8001344:	e92d 41f0 	stmdb	sp!, {r4, r5, r6, r7, r8, lr}
 8001348:	f890 32f9 	ldrb.w	r3, [r0, #761]	; 0x2f9
 800134c:	6804      	ldr	r4, [r0, #0]
 800134e:	b08a      	sub	sp, #40	; 0x28
 8001350:	4607      	mov	r7, r0
 8001352:	f003 02ff 	and.w	r2, r3, #255	; 0xff
 8001356:	2b00      	cmp	r3, #0
 8001358:	d039      	beq.n	80013ce <HAL_HCD_Init+0x8e>
 800135a:	4620      	mov	r0, r4
 800135c:	2303      	movs	r3, #3
 800135e:	f887 32f9 	strb.w	r3, [r7, #761]	; 0x2f9
 8001362:	6be3      	ldr	r3, [r4, #60]	; 0x3c
 8001364:	463c      	mov	r4, r7
 8001366:	f413 7380 	ands.w	r3, r3, #256	; 0x100
 800136a:	bf08      	it	eq
 800136c:	613b      	streq	r3, [r7, #16]
 800136e:	f001 fb2d 	bl	80029cc <USB_DisableGlobalInt>
 8001372:	f854 6b10 	ldr.w	r6, [r4], #16
 8001376:	cc0f      	ldmia	r4!, {r0, r1, r2, r3}
 8001378:	466d      	mov	r5, sp
 800137a:	c50f      	stmia	r5!, {r0, r1, r2, r3}
 800137c:	cc0f      	ldmia	r4!, {r0, r1, r2, r3}
 800137e:	c50f      	stmia	r5!, {r0, r1, r2, r3}
 8001380:	e894 0003 	ldmia.w	r4, {r0, r1}
 8001384:	e885 0003 	stmia.w	r5, {r0, r1}
 8001388:	f107 0804 	add.w	r8, r7, #4
 800138c:	e898 000e 	ldmia.w	r8, {r1, r2, r3}
 8001390:	4630      	mov	r0, r6
 8001392:	463e      	mov	r6, r7
 8001394:	f001 fa88 	bl	80028a8 <USB_CoreInit>
 8001398:	6838      	ldr	r0, [r7, #0]
 800139a:	2101      	movs	r1, #1
 800139c:	f001 fb1e 	bl	80029dc <USB_SetCurrentMode>
 80013a0:	f856 cb10 	ldr.w	ip, [r6], #16
 80013a4:	ce0f      	ldmia	r6!, {r0, r1, r2, r3}
 80013a6:	466d      	mov	r5, sp
 80013a8:	c50f      	stmia	r5!, {r0, r1, r2, r3}
 80013aa:	ce0f      	ldmia	r6!, {r0, r1, r2, r3}
 80013ac:	c50f      	stmia	r5!, {r0, r1, r2, r3}
 80013ae:	e894 0003 	ldmia.w	r4, {r0, r1}
 80013b2:	e885 0003 	stmia.w	r5, {r0, r1}
 80013b6:	4660      	mov	r0, ip
 80013b8:	e898 000e 	ldmia.w	r8, {r1, r2, r3}
 80013bc:	f001 fbaa 	bl	8002b14 <USB_HostInit>
 80013c0:	2301      	movs	r3, #1
 80013c2:	2000      	movs	r0, #0
 80013c4:	f887 32f9 	strb.w	r3, [r7, #761]	; 0x2f9
 80013c8:	b00a      	add	sp, #40	; 0x28
 80013ca:	e8bd 81f0 	ldmia.w	sp!, {r4, r5, r6, r7, r8, pc}
 80013ce:	f880 22f8 	strb.w	r2, [r0, #760]	; 0x2f8
 80013d2:	f004 fbcb 	bl	8005b6c <HAL_HCD_MspInit>
 80013d6:	6838      	ldr	r0, [r7, #0]
 80013d8:	e7c0      	b.n	800135c <HAL_HCD_Init+0x1c>
 80013da:	2001      	movs	r0, #1
 80013dc:	4770      	bx	lr
 80013de:	bf00      	nop

080013e0 <HAL_HCD_HC_SubmitRequest>:
 80013e0:	b4f0      	push	{r4, r5, r6, r7}
 80013e2:	242c      	movs	r4, #44	; 0x2c
 80013e4:	fb04 0401 	mla	r4, r4, r1, r0
 80013e8:	f89d 7010 	ldrb.w	r7, [sp, #16]
 80013ec:	9e05      	ldr	r6, [sp, #20]
 80013ee:	f8bd 5018 	ldrh.w	r5, [sp, #24]
 80013f2:	f89d c01c 	ldrb.w	ip, [sp, #28]
 80013f6:	f884 203b 	strb.w	r2, [r4, #59]	; 0x3b
 80013fa:	f884 303f 	strb.w	r3, [r4, #63]	; 0x3f
 80013fe:	bb8f      	cbnz	r7, 8001464 <HAL_HCD_HC_SubmitRequest+0x84>
 8001400:	f884 c03d 	strb.w	ip, [r4, #61]	; 0x3d
 8001404:	f04f 0c03 	mov.w	ip, #3
 8001408:	242c      	movs	r4, #44	; 0x2c
 800140a:	fb04 0401 	mla	r4, r4, r1, r0
 800140e:	f884 c042 	strb.w	ip, [r4, #66]	; 0x42
 8001412:	2b03      	cmp	r3, #3
 8001414:	d812      	bhi.n	800143c <HAL_HCD_HC_SubmitRequest+0x5c>
 8001416:	e8df f003 	tbb	[pc, r3]
 800141a:	3302      	.short	0x3302
 800141c:	2828      	.short	0x2828
 800141e:	2f01      	cmp	r7, #1
 8001420:	d10c      	bne.n	800143c <HAL_HCD_HC_SubmitRequest+0x5c>
 8001422:	b95a      	cbnz	r2, 800143c <HAL_HCD_HC_SubmitRequest+0x5c>
 8001424:	232c      	movs	r3, #44	; 0x2c
 8001426:	fb03 0301 	mla	r3, r3, r1, r0
 800142a:	bbc5      	cbnz	r5, 800149e <HAL_HCD_HC_SubmitRequest+0xbe>
 800142c:	f883 7055 	strb.w	r7, [r3, #85]	; 0x55
 8001430:	232c      	movs	r3, #44	; 0x2c
 8001432:	fb03 0301 	mla	r3, r3, r1, r0
 8001436:	2202      	movs	r2, #2
 8001438:	f883 2042 	strb.w	r2, [r3, #66]	; 0x42
 800143c:	242c      	movs	r4, #44	; 0x2c
 800143e:	fb04 0301 	mla	r3, r4, r1, r0
 8001442:	2200      	movs	r2, #0
 8001444:	f883 1039 	strb.w	r1, [r3, #57]	; 0x39
 8001448:	f883 2060 	strb.w	r2, [r3, #96]	; 0x60
 800144c:	f883 2061 	strb.w	r2, [r3, #97]	; 0x61
 8001450:	4619      	mov	r1, r3
 8001452:	645e      	str	r6, [r3, #68]	; 0x44
 8001454:	64dd      	str	r5, [r3, #76]	; 0x4c
 8001456:	651a      	str	r2, [r3, #80]	; 0x50
 8001458:	bcf0      	pop	{r4, r5, r6, r7}
 800145a:	7c02      	ldrb	r2, [r0, #16]
 800145c:	6800      	ldr	r0, [r0, #0]
 800145e:	3138      	adds	r1, #56	; 0x38
 8001460:	f001 bcf8 	b.w	8002e54 <USB_HC_StartXfer>
 8001464:	f04f 0c02 	mov.w	ip, #2
 8001468:	e7ce      	b.n	8001408 <HAL_HCD_HC_SubmitRequest+0x28>
 800146a:	232c      	movs	r3, #44	; 0x2c
 800146c:	fb03 0301 	mla	r3, r3, r1, r0
 8001470:	b96a      	cbnz	r2, 800148e <HAL_HCD_HC_SubmitRequest+0xae>
 8001472:	f893 4055 	ldrb.w	r4, [r3, #85]	; 0x55
 8001476:	b13c      	cbz	r4, 8001488 <HAL_HCD_HC_SubmitRequest+0xa8>
 8001478:	2202      	movs	r2, #2
 800147a:	f883 2042 	strb.w	r2, [r3, #66]	; 0x42
 800147e:	e7dd      	b.n	800143c <HAL_HCD_HC_SubmitRequest+0x5c>
 8001480:	232c      	movs	r3, #44	; 0x2c
 8001482:	fb03 0301 	mla	r3, r3, r1, r0
 8001486:	2200      	movs	r2, #0
 8001488:	f883 2042 	strb.w	r2, [r3, #66]	; 0x42
 800148c:	e7d6      	b.n	800143c <HAL_HCD_HC_SubmitRequest+0x5c>
 800148e:	f893 2054 	ldrb.w	r2, [r3, #84]	; 0x54
 8001492:	2a00      	cmp	r2, #0
 8001494:	d0f8      	beq.n	8001488 <HAL_HCD_HC_SubmitRequest+0xa8>
 8001496:	2202      	movs	r2, #2
 8001498:	f883 2042 	strb.w	r2, [r3, #66]	; 0x42
 800149c:	e7ce      	b.n	800143c <HAL_HCD_HC_SubmitRequest+0x5c>
 800149e:	f893 4055 	ldrb.w	r4, [r3, #85]	; 0x55
 80014a2:	2c00      	cmp	r4, #0
 80014a4:	d0f0      	beq.n	8001488 <HAL_HCD_HC_SubmitRequest+0xa8>
 80014a6:	e7c3      	b.n	8001430 <HAL_HCD_HC_SubmitRequest+0x50>

080014a8 <HAL_HCD_IRQHandler>:
 80014a8:	e92d 4ff0 	stmdb	sp!, {r4, r5, r6, r7, r8, r9, sl, fp, lr}
 80014ac:	6805      	ldr	r5, [r0, #0]
 80014ae:	b085      	sub	sp, #20
 80014b0:	4604      	mov	r4, r0
 80014b2:	4628      	mov	r0, r5
 80014b4:	f001 fb2a 	bl	8002b0c <USB_GetMode>
 80014b8:	2801      	cmp	r0, #1
 80014ba:	d002      	beq.n	80014c2 <HAL_HCD_IRQHandler+0x1a>
 80014bc:	b005      	add	sp, #20
 80014be:	e8bd 8ff0 	ldmia.w	sp!, {r4, r5, r6, r7, r8, r9, sl, fp, pc}
 80014c2:	6820      	ldr	r0, [r4, #0]
 80014c4:	f001 fb1e 	bl	8002b04 <USB_ReadInterrupts>
 80014c8:	2800      	cmp	r0, #0
 80014ca:	d0f7      	beq.n	80014bc <HAL_HCD_IRQHandler+0x14>
 80014cc:	6820      	ldr	r0, [r4, #0]
 80014ce:	f001 fb19 	bl	8002b04 <USB_ReadInterrupts>
 80014d2:	f410 1f00 	tst.w	r0, #2097152	; 0x200000
 80014d6:	6820      	ldr	r0, [r4, #0]
 80014d8:	bf1c      	itt	ne
 80014da:	f44f 1300 	movne.w	r3, #2097152	; 0x200000
 80014de:	6143      	strne	r3, [r0, #20]
 80014e0:	f001 fb10 	bl	8002b04 <USB_ReadInterrupts>
 80014e4:	f410 1f80 	tst.w	r0, #1048576	; 0x100000
 80014e8:	6820      	ldr	r0, [r4, #0]
 80014ea:	bf1c      	itt	ne
 80014ec:	f44f 1380 	movne.w	r3, #1048576	; 0x100000
 80014f0:	6143      	strne	r3, [r0, #20]
 80014f2:	f001 fb07 	bl	8002b04 <USB_ReadInterrupts>
 80014f6:	f010 6f80 	tst.w	r0, #67108864	; 0x4000000
 80014fa:	6820      	ldr	r0, [r4, #0]
 80014fc:	bf1c      	itt	ne
 80014fe:	f04f 6380 	movne.w	r3, #67108864	; 0x4000000
 8001502:	6143      	strne	r3, [r0, #20]
 8001504:	f001 fafe 	bl	8002b04 <USB_ReadInterrupts>
 8001508:	f010 0f02 	tst.w	r0, #2
 800150c:	6820      	ldr	r0, [r4, #0]
 800150e:	bf1c      	itt	ne
 8001510:	2302      	movne	r3, #2
 8001512:	6143      	strne	r3, [r0, #20]
 8001514:	f001 faf6 	bl	8002b04 <USB_ReadInterrupts>
 8001518:	f010 5f00 	tst.w	r0, #536870912	; 0x20000000
 800151c:	6820      	ldr	r0, [r4, #0]
 800151e:	f040 8090 	bne.w	8001642 <HAL_HCD_IRQHandler+0x19a>
 8001522:	f001 faef 	bl	8002b04 <USB_ReadInterrupts>
 8001526:	01c6      	lsls	r6, r0, #7
 8001528:	f100 80d9 	bmi.w	80016de <HAL_HCD_IRQHandler+0x236>
 800152c:	6820      	ldr	r0, [r4, #0]
 800152e:	f001 fae9 	bl	8002b04 <USB_ReadInterrupts>
 8001532:	0700      	lsls	r0, r0, #28
 8001534:	f100 80cc 	bmi.w	80016d0 <HAL_HCD_IRQHandler+0x228>
 8001538:	6820      	ldr	r0, [r4, #0]
 800153a:	f001 fae3 	bl	8002b04 <USB_ReadInterrupts>
 800153e:	06c1      	lsls	r1, r0, #27
 8001540:	6826      	ldr	r6, [r4, #0]
 8001542:	f100 8106 	bmi.w	8001752 <HAL_HCD_IRQHandler+0x2aa>
 8001546:	4630      	mov	r0, r6
 8001548:	f001 fadc 	bl	8002b04 <USB_ReadInterrupts>
 800154c:	0182      	lsls	r2, r0, #6
 800154e:	d5b5      	bpl.n	80014bc <HAL_HCD_IRQHandler+0x14>
 8001550:	6820      	ldr	r0, [r4, #0]
 8001552:	f001 fd49 	bl	8002fe8 <USB_HC_ReadInterrupt>
 8001556:	68a2      	ldr	r2, [r4, #8]
 8001558:	4680      	mov	r8, r0
 800155a:	6820      	ldr	r0, [r4, #0]
 800155c:	2a00      	cmp	r2, #0
 800155e:	f000 80b3 	beq.w	80016c8 <HAL_HCD_IRQHandler+0x220>
 8001562:	f505 65a0 	add.w	r5, r5, #1280	; 0x500
 8001566:	2600      	movs	r6, #0
 8001568:	f04f 0902 	mov.w	r9, #2
 800156c:	e04c      	b.n	8001608 <HAL_HCD_IRQHandler+0x160>
 800156e:	f500 6ba0 	add.w	fp, r0, #1280	; 0x500
 8001572:	eb0b 174a 	add.w	r7, fp, sl, lsl #5
 8001576:	ea4f 134a 	mov.w	r3, sl, lsl #5
 800157a:	68ba      	ldr	r2, [r7, #8]
 800157c:	0751      	lsls	r1, r2, #29
 800157e:	d578      	bpl.n	8001672 <HAL_HCD_IRQHandler+0x1ca>
 8001580:	2204      	movs	r2, #4
 8001582:	60ba      	str	r2, [r7, #8]
 8001584:	68fa      	ldr	r2, [r7, #12]
 8001586:	f042 0202 	orr.w	r2, r2, #2
 800158a:	60fa      	str	r2, [r7, #12]
 800158c:	68ba      	ldr	r2, [r7, #8]
 800158e:	0591      	lsls	r1, r2, #22
 8001590:	f100 8119 	bmi.w	80017c6 <HAL_HCD_IRQHandler+0x31e>
 8001594:	68ba      	ldr	r2, [r7, #8]
 8001596:	07d2      	lsls	r2, r2, #31
 8001598:	f140 80ea 	bpl.w	8001770 <HAL_HCD_IRQHandler+0x2c8>
 800159c:	6920      	ldr	r0, [r4, #16]
 800159e:	b148      	cbz	r0, 80015b4 <HAL_HCD_IRQHandler+0x10c>
 80015a0:	212c      	movs	r1, #44	; 0x2c
 80015a2:	693a      	ldr	r2, [r7, #16]
 80015a4:	fb01 410a 	mla	r1, r1, sl, r4
 80015a8:	f3c2 0c12 	ubfx	ip, r2, #0, #19
 80015ac:	6c8a      	ldr	r2, [r1, #72]	; 0x48
 80015ae:	eba2 020c 	sub.w	r2, r2, ip
 80015b2:	650a      	str	r2, [r1, #80]	; 0x50
 80015b4:	212c      	movs	r1, #44	; 0x2c
 80015b6:	fb01 410a 	mla	r1, r1, sl, r4
 80015ba:	f04f 0c00 	mov.w	ip, #0
 80015be:	2201      	movs	r2, #1
 80015c0:	f8c1 c05c 	str.w	ip, [r1, #92]	; 0x5c
 80015c4:	f881 2061 	strb.w	r2, [r1, #97]	; 0x61
 80015c8:	60ba      	str	r2, [r7, #8]
 80015ca:	f891 c03f 	ldrb.w	ip, [r1, #63]	; 0x3f
 80015ce:	f01c 0ffd 	tst.w	ip, #253	; 0xfd
 80015d2:	f000 812e 	beq.w	8001832 <HAL_HCD_IRQHandler+0x38a>
 80015d6:	f1bc 0f03 	cmp.w	ip, #3
 80015da:	f000 8231 	beq.w	8001a40 <HAL_HCD_IRQHandler+0x598>
 80015de:	f1bc 0f01 	cmp.w	ip, #1
 80015e2:	f000 8252 	beq.w	8001a8a <HAL_HCD_IRQHandler+0x5e2>
 80015e6:	232c      	movs	r3, #44	; 0x2c
 80015e8:	2801      	cmp	r0, #1
 80015ea:	fb03 4a0a 	mla	sl, r3, sl, r4
 80015ee:	f000 8192 	beq.w	8001916 <HAL_HCD_IRQHandler+0x46e>
 80015f2:	f89a 3054 	ldrb.w	r3, [sl, #84]	; 0x54
 80015f6:	f083 0301 	eor.w	r3, r3, #1
 80015fa:	f88a 3054 	strb.w	r3, [sl, #84]	; 0x54
 80015fe:	68a2      	ldr	r2, [r4, #8]
 8001600:	6820      	ldr	r0, [r4, #0]
 8001602:	3601      	adds	r6, #1
 8001604:	4296      	cmp	r6, r2
 8001606:	d25f      	bcs.n	80016c8 <HAL_HCD_IRQHandler+0x220>
 8001608:	f006 030f 	and.w	r3, r6, #15
 800160c:	fa28 f303 	lsr.w	r3, r8, r3
 8001610:	07db      	lsls	r3, r3, #31
 8001612:	d5f6      	bpl.n	8001602 <HAL_HCD_IRQHandler+0x15a>
 8001614:	0173      	lsls	r3, r6, #5
 8001616:	fa5f fa86 	uxtb.w	sl, r6
 800161a:	595b      	ldr	r3, [r3, r5]
 800161c:	041f      	lsls	r7, r3, #16
 800161e:	d4a6      	bmi.n	800156e <HAL_HCD_IRQHandler+0xc6>
 8001620:	f500 61a0 	add.w	r1, r0, #1280	; 0x500
 8001624:	eb01 174a 	add.w	r7, r1, sl, lsl #5
 8001628:	ea4f 1c4a 	mov.w	ip, sl, lsl #5
 800162c:	68bb      	ldr	r3, [r7, #8]
 800162e:	f013 0304 	ands.w	r3, r3, #4
 8001632:	d029      	beq.n	8001688 <HAL_HCD_IRQHandler+0x1e0>
 8001634:	2304      	movs	r3, #4
 8001636:	60bb      	str	r3, [r7, #8]
 8001638:	68fb      	ldr	r3, [r7, #12]
 800163a:	f043 0302 	orr.w	r3, r3, #2
 800163e:	60fb      	str	r3, [r7, #12]
 8001640:	e7df      	b.n	8001602 <HAL_HCD_IRQHandler+0x15a>
 8001642:	f04f 5300 	mov.w	r3, #536870912	; 0x20000000
 8001646:	6143      	str	r3, [r0, #20]
 8001648:	f8d5 3440 	ldr.w	r3, [r5, #1088]	; 0x440
 800164c:	07df      	lsls	r7, r3, #31
 800164e:	f53f af68 	bmi.w	8001522 <HAL_HCD_IRQHandler+0x7a>
 8001652:	2110      	movs	r1, #16
 8001654:	4628      	mov	r0, r5
 8001656:	f001 f9f9 	bl	8002a4c <USB_FlushTxFifo>
 800165a:	4628      	mov	r0, r5
 800165c:	f001 fa12 	bl	8002a84 <USB_FlushRxFifo>
 8001660:	2101      	movs	r1, #1
 8001662:	6820      	ldr	r0, [r4, #0]
 8001664:	f001 fae4 	bl	8002c30 <USB_InitFSLSPClkSel>
 8001668:	4620      	mov	r0, r4
 800166a:	f004 facd 	bl	8005c08 <HAL_HCD_Disconnect_Callback>
 800166e:	6820      	ldr	r0, [r4, #0]
 8001670:	e757      	b.n	8001522 <HAL_HCD_IRQHandler+0x7a>
 8001672:	68ba      	ldr	r2, [r7, #8]
 8001674:	05d2      	lsls	r2, r2, #23
 8001676:	f100 813a 	bmi.w	80018ee <HAL_HCD_IRQHandler+0x446>
 800167a:	68ba      	ldr	r2, [r7, #8]
 800167c:	0691      	lsls	r1, r2, #26
 800167e:	f140 80e4 	bpl.w	800184a <HAL_HCD_IRQHandler+0x3a2>
 8001682:	2220      	movs	r2, #32
 8001684:	60ba      	str	r2, [r7, #8]
 8001686:	e781      	b.n	800158c <HAL_HCD_IRQHandler+0xe4>
 8001688:	f8d7 e008 	ldr.w	lr, [r7, #8]
 800168c:	f01e 0f20 	tst.w	lr, #32
 8001690:	f000 80a7 	beq.w	80017e2 <HAL_HCD_IRQHandler+0x33a>
 8001694:	212c      	movs	r1, #44	; 0x2c
 8001696:	f04f 0c20 	mov.w	ip, #32
 800169a:	fb01 410a 	mla	r1, r1, sl, r4
 800169e:	f8c7 c008 	str.w	ip, [r7, #8]
 80016a2:	f891 c03d 	ldrb.w	ip, [r1, #61]	; 0x3d
 80016a6:	f1bc 0f01 	cmp.w	ip, #1
 80016aa:	d1aa      	bne.n	8001602 <HAL_HCD_IRQHandler+0x15a>
 80016ac:	f881 303d 	strb.w	r3, [r1, #61]	; 0x3d
 80016b0:	f881 9060 	strb.w	r9, [r1, #96]	; 0x60
 80016b4:	68fb      	ldr	r3, [r7, #12]
 80016b6:	f043 0302 	orr.w	r3, r3, #2
 80016ba:	4651      	mov	r1, sl
 80016bc:	60fb      	str	r3, [r7, #12]
 80016be:	f001 fc99 	bl	8002ff4 <USB_HC_Halt>
 80016c2:	68a2      	ldr	r2, [r4, #8]
 80016c4:	6820      	ldr	r0, [r4, #0]
 80016c6:	e79c      	b.n	8001602 <HAL_HCD_IRQHandler+0x15a>
 80016c8:	f04f 7300 	mov.w	r3, #33554432	; 0x2000000
 80016cc:	6143      	str	r3, [r0, #20]
 80016ce:	e6f5      	b.n	80014bc <HAL_HCD_IRQHandler+0x14>
 80016d0:	4620      	mov	r0, r4
 80016d2:	f004 fa91 	bl	8005bf8 <HAL_HCD_SOF_Callback>
 80016d6:	6820      	ldr	r0, [r4, #0]
 80016d8:	2308      	movs	r3, #8
 80016da:	6143      	str	r3, [r0, #20]
 80016dc:	e72d      	b.n	800153a <HAL_HCD_IRQHandler+0x92>
 80016de:	6826      	ldr	r6, [r4, #0]
 80016e0:	f8d6 3440 	ldr.w	r3, [r6, #1088]	; 0x440
 80016e4:	9302      	str	r3, [sp, #8]
 80016e6:	f8d6 3440 	ldr.w	r3, [r6, #1088]	; 0x440
 80016ea:	9303      	str	r3, [sp, #12]
 80016ec:	9b03      	ldr	r3, [sp, #12]
 80016ee:	f023 032e 	bic.w	r3, r3, #46	; 0x2e
 80016f2:	9303      	str	r3, [sp, #12]
 80016f4:	9b02      	ldr	r3, [sp, #8]
 80016f6:	0798      	lsls	r0, r3, #30
 80016f8:	d507      	bpl.n	800170a <HAL_HCD_IRQHandler+0x262>
 80016fa:	9b02      	ldr	r3, [sp, #8]
 80016fc:	07d9      	lsls	r1, r3, #31
 80016fe:	f100 8145 	bmi.w	800198c <HAL_HCD_IRQHandler+0x4e4>
 8001702:	9b03      	ldr	r3, [sp, #12]
 8001704:	f043 0302 	orr.w	r3, r3, #2
 8001708:	9303      	str	r3, [sp, #12]
 800170a:	9b02      	ldr	r3, [sp, #8]
 800170c:	071a      	lsls	r2, r3, #28
 800170e:	d515      	bpl.n	800173c <HAL_HCD_IRQHandler+0x294>
 8001710:	9b03      	ldr	r3, [sp, #12]
 8001712:	f043 0308 	orr.w	r3, r3, #8
 8001716:	9303      	str	r3, [sp, #12]
 8001718:	9b02      	ldr	r3, [sp, #8]
 800171a:	075b      	lsls	r3, r3, #29
 800171c:	f140 813a 	bpl.w	8001994 <HAL_HCD_IRQHandler+0x4ec>
 8001720:	69a1      	ldr	r1, [r4, #24]
 8001722:	2902      	cmp	r1, #2
 8001724:	f000 813a 	beq.w	800199c <HAL_HCD_IRQHandler+0x4f4>
 8001728:	68e3      	ldr	r3, [r4, #12]
 800172a:	2b01      	cmp	r3, #1
 800172c:	bf04      	itt	eq
 800172e:	f64e 2260 	movweq	r2, #60000	; 0xea60
 8001732:	f8c6 2404 	streq.w	r2, [r6, #1028]	; 0x404
 8001736:	4620      	mov	r0, r4
 8001738:	f004 fa6c 	bl	8005c14 <HAL_HCD_PortEnabled_Callback>
 800173c:	9b02      	ldr	r3, [sp, #8]
 800173e:	069f      	lsls	r7, r3, #26
 8001740:	d503      	bpl.n	800174a <HAL_HCD_IRQHandler+0x2a2>
 8001742:	9b03      	ldr	r3, [sp, #12]
 8001744:	f043 0320 	orr.w	r3, r3, #32
 8001748:	9303      	str	r3, [sp, #12]
 800174a:	9b03      	ldr	r3, [sp, #12]
 800174c:	f8c6 3440 	str.w	r3, [r6, #1088]	; 0x440
 8001750:	e6ec      	b.n	800152c <HAL_HCD_IRQHandler+0x84>
 8001752:	69b3      	ldr	r3, [r6, #24]
 8001754:	f023 0310 	bic.w	r3, r3, #16
 8001758:	61b3      	str	r3, [r6, #24]
 800175a:	6a37      	ldr	r7, [r6, #32]
 800175c:	f3c7 4243 	ubfx	r2, r7, #17, #4
 8001760:	2a02      	cmp	r2, #2
 8001762:	f000 8091 	beq.w	8001888 <HAL_HCD_IRQHandler+0x3e0>
 8001766:	69b3      	ldr	r3, [r6, #24]
 8001768:	f043 0310 	orr.w	r3, r3, #16
 800176c:	61b3      	str	r3, [r6, #24]
 800176e:	e6ea      	b.n	8001546 <HAL_HCD_IRQHandler+0x9e>
 8001770:	68ba      	ldr	r2, [r7, #8]
 8001772:	f012 0202 	ands.w	r2, r2, #2
 8001776:	f000 80a1 	beq.w	80018bc <HAL_HCD_IRQHandler+0x414>
 800177a:	68fa      	ldr	r2, [r7, #12]
 800177c:	212c      	movs	r1, #44	; 0x2c
 800177e:	f022 0202 	bic.w	r2, r2, #2
 8001782:	fb01 410a 	mla	r1, r1, sl, r4
 8001786:	60fa      	str	r2, [r7, #12]
 8001788:	f891 2061 	ldrb.w	r2, [r1, #97]	; 0x61
 800178c:	2a01      	cmp	r2, #1
 800178e:	f000 80d0 	beq.w	8001932 <HAL_HCD_IRQHandler+0x48a>
 8001792:	2a05      	cmp	r2, #5
 8001794:	f000 80cd 	beq.w	8001932 <HAL_HCD_IRQHandler+0x48a>
 8001798:	2a06      	cmp	r2, #6
 800179a:	f000 8121 	beq.w	80019e0 <HAL_HCD_IRQHandler+0x538>
 800179e:	2a08      	cmp	r2, #8
 80017a0:	f000 811e 	beq.w	80019e0 <HAL_HCD_IRQHandler+0x538>
 80017a4:	2a03      	cmp	r2, #3
 80017a6:	f000 813f 	beq.w	8001a28 <HAL_HCD_IRQHandler+0x580>
 80017aa:	2a07      	cmp	r2, #7
 80017ac:	f000 80bd 	beq.w	800192a <HAL_HCD_IRQHandler+0x482>
 80017b0:	f891 2060 	ldrb.w	r2, [r1, #96]	; 0x60
 80017b4:	f8c7 9008 	str.w	r9, [r7, #8]
 80017b8:	4651      	mov	r1, sl
 80017ba:	4620      	mov	r0, r4
 80017bc:	f004 fa28 	bl	8005c10 <HAL_HCD_HC_NotifyURBChange_Callback>
 80017c0:	68a2      	ldr	r2, [r4, #8]
 80017c2:	6820      	ldr	r0, [r4, #0]
 80017c4:	e71d      	b.n	8001602 <HAL_HCD_IRQHandler+0x15a>
 80017c6:	68fb      	ldr	r3, [r7, #12]
 80017c8:	6820      	ldr	r0, [r4, #0]
 80017ca:	f043 0302 	orr.w	r3, r3, #2
 80017ce:	60fb      	str	r3, [r7, #12]
 80017d0:	4651      	mov	r1, sl
 80017d2:	f001 fc0f 	bl	8002ff4 <USB_HC_Halt>
 80017d6:	f44f 7300 	mov.w	r3, #512	; 0x200
 80017da:	60bb      	str	r3, [r7, #8]
 80017dc:	68a2      	ldr	r2, [r4, #8]
 80017de:	6820      	ldr	r0, [r4, #0]
 80017e0:	e70f      	b.n	8001602 <HAL_HCD_IRQHandler+0x15a>
 80017e2:	68bb      	ldr	r3, [r7, #8]
 80017e4:	f413 7300 	ands.w	r3, r3, #512	; 0x200
 80017e8:	f040 80ce 	bne.w	8001988 <HAL_HCD_IRQHandler+0x4e0>
 80017ec:	f8d7 e008 	ldr.w	lr, [r7, #8]
 80017f0:	f01e 0e01 	ands.w	lr, lr, #1
 80017f4:	f000 80a0 	beq.w	8001938 <HAL_HCD_IRQHandler+0x490>
 80017f8:	68b9      	ldr	r1, [r7, #8]
 80017fa:	222c      	movs	r2, #44	; 0x2c
 80017fc:	fb02 420a 	mla	r2, r2, sl, r4
 8001800:	0649      	lsls	r1, r1, #25
 8001802:	65d3      	str	r3, [r2, #92]	; 0x5c
 8001804:	d504      	bpl.n	8001810 <HAL_HCD_IRQHandler+0x368>
 8001806:	2101      	movs	r1, #1
 8001808:	2340      	movs	r3, #64	; 0x40
 800180a:	f882 103d 	strb.w	r1, [r2, #61]	; 0x3d
 800180e:	60bb      	str	r3, [r7, #8]
 8001810:	68fb      	ldr	r3, [r7, #12]
 8001812:	f043 0302 	orr.w	r3, r3, #2
 8001816:	60fb      	str	r3, [r7, #12]
 8001818:	4651      	mov	r1, sl
 800181a:	f001 fbeb 	bl	8002ff4 <USB_HC_Halt>
 800181e:	232c      	movs	r3, #44	; 0x2c
 8001820:	fb03 430a 	mla	r3, r3, sl, r4
 8001824:	2201      	movs	r2, #1
 8001826:	60ba      	str	r2, [r7, #8]
 8001828:	f883 2061 	strb.w	r2, [r3, #97]	; 0x61
 800182c:	68a2      	ldr	r2, [r4, #8]
 800182e:	6820      	ldr	r0, [r4, #0]
 8001830:	e6e7      	b.n	8001602 <HAL_HCD_IRQHandler+0x15a>
 8001832:	68fb      	ldr	r3, [r7, #12]
 8001834:	6820      	ldr	r0, [r4, #0]
 8001836:	f043 0302 	orr.w	r3, r3, #2
 800183a:	60fb      	str	r3, [r7, #12]
 800183c:	4651      	mov	r1, sl
 800183e:	f001 fbd9 	bl	8002ff4 <USB_HC_Halt>
 8001842:	2310      	movs	r3, #16
 8001844:	6920      	ldr	r0, [r4, #16]
 8001846:	60bb      	str	r3, [r7, #8]
 8001848:	e6cd      	b.n	80015e6 <HAL_HCD_IRQHandler+0x13e>
 800184a:	68ba      	ldr	r2, [r7, #8]
 800184c:	0712      	lsls	r2, r2, #28
 800184e:	f100 80b0 	bmi.w	80019b2 <HAL_HCD_IRQHandler+0x50a>
 8001852:	68ba      	ldr	r2, [r7, #8]
 8001854:	0551      	lsls	r1, r2, #21
 8001856:	f100 80d1 	bmi.w	80019fc <HAL_HCD_IRQHandler+0x554>
 800185a:	68ba      	ldr	r2, [r7, #8]
 800185c:	0612      	lsls	r2, r2, #24
 800185e:	f57f ae95 	bpl.w	800158c <HAL_HCD_IRQHandler+0xe4>
 8001862:	68f9      	ldr	r1, [r7, #12]
 8001864:	9301      	str	r3, [sp, #4]
 8001866:	222c      	movs	r2, #44	; 0x2c
 8001868:	fb02 420a 	mla	r2, r2, sl, r4
 800186c:	f041 0102 	orr.w	r1, r1, #2
 8001870:	f04f 0c06 	mov.w	ip, #6
 8001874:	60f9      	str	r1, [r7, #12]
 8001876:	f882 c061 	strb.w	ip, [r2, #97]	; 0x61
 800187a:	4651      	mov	r1, sl
 800187c:	f001 fbba 	bl	8002ff4 <USB_HC_Halt>
 8001880:	2280      	movs	r2, #128	; 0x80
 8001882:	9b01      	ldr	r3, [sp, #4]
 8001884:	60ba      	str	r2, [r7, #8]
 8001886:	e681      	b.n	800158c <HAL_HCD_IRQHandler+0xe4>
 8001888:	f3c7 120a 	ubfx	r2, r7, #4, #11
 800188c:	2a00      	cmp	r2, #0
 800188e:	f43f af6a 	beq.w	8001766 <HAL_HCD_IRQHandler+0x2be>
 8001892:	f007 070f 	and.w	r7, r7, #15
 8001896:	f04f 082c 	mov.w	r8, #44	; 0x2c
 800189a:	fb08 4807 	mla	r8, r8, r7, r4
 800189e:	f8d8 1044 	ldr.w	r1, [r8, #68]	; 0x44
 80018a2:	2900      	cmp	r1, #0
 80018a4:	f43f af5f 	beq.w	8001766 <HAL_HCD_IRQHandler+0x2be>
 80018a8:	e9d8 0313 	ldrd	r0, r3, [r8, #76]	; 0x4c
 80018ac:	4413      	add	r3, r2
 80018ae:	4283      	cmp	r3, r0
 80018b0:	f240 80fa 	bls.w	8001aa8 <HAL_HCD_IRQHandler+0x600>
 80018b4:	2304      	movs	r3, #4
 80018b6:	f888 3060 	strb.w	r3, [r8, #96]	; 0x60
 80018ba:	e754      	b.n	8001766 <HAL_HCD_IRQHandler+0x2be>
 80018bc:	68bb      	ldr	r3, [r7, #8]
 80018be:	06d8      	lsls	r0, r3, #27
 80018c0:	f57f af7e 	bpl.w	80017c0 <HAL_HCD_IRQHandler+0x318>
 80018c4:	232c      	movs	r3, #44	; 0x2c
 80018c6:	fb03 430a 	mla	r3, r3, sl, r4
 80018ca:	f893 103f 	ldrb.w	r1, [r3, #63]	; 0x3f
 80018ce:	2903      	cmp	r1, #3
 80018d0:	f000 812f 	beq.w	8001b32 <HAL_HCD_IRQHandler+0x68a>
 80018d4:	f011 01fd 	ands.w	r1, r1, #253	; 0xfd
 80018d8:	d104      	bne.n	80018e4 <HAL_HCD_IRQHandler+0x43c>
 80018da:	6922      	ldr	r2, [r4, #16]
 80018dc:	65d9      	str	r1, [r3, #92]	; 0x5c
 80018de:	2a00      	cmp	r2, #0
 80018e0:	f000 8131 	beq.w	8001b46 <HAL_HCD_IRQHandler+0x69e>
 80018e4:	2310      	movs	r3, #16
 80018e6:	60bb      	str	r3, [r7, #8]
 80018e8:	68a2      	ldr	r2, [r4, #8]
 80018ea:	6820      	ldr	r0, [r4, #0]
 80018ec:	e689      	b.n	8001602 <HAL_HCD_IRQHandler+0x15a>
 80018ee:	222c      	movs	r2, #44	; 0x2c
 80018f0:	fb02 420a 	mla	r2, r2, sl, r4
 80018f4:	f44f 7c80 	mov.w	ip, #256	; 0x100
 80018f8:	2107      	movs	r1, #7
 80018fa:	f8c7 c008 	str.w	ip, [r7, #8]
 80018fe:	f882 1061 	strb.w	r1, [r2, #97]	; 0x61
 8001902:	68fa      	ldr	r2, [r7, #12]
 8001904:	9301      	str	r3, [sp, #4]
 8001906:	f042 0202 	orr.w	r2, r2, #2
 800190a:	60fa      	str	r2, [r7, #12]
 800190c:	4651      	mov	r1, sl
 800190e:	f001 fb71 	bl	8002ff4 <USB_HC_Halt>
 8001912:	9b01      	ldr	r3, [sp, #4]
 8001914:	e63a      	b.n	800158c <HAL_HCD_IRQHandler+0xe4>
 8001916:	f8ba 2040 	ldrh.w	r2, [sl, #64]	; 0x40
 800191a:	f8da 3048 	ldr.w	r3, [sl, #72]	; 0x48
 800191e:	fbb3 f3f2 	udiv	r3, r3, r2
 8001922:	07df      	lsls	r7, r3, #31
 8001924:	f53f ae65 	bmi.w	80015f2 <HAL_HCD_IRQHandler+0x14a>
 8001928:	e74a      	b.n	80017c0 <HAL_HCD_IRQHandler+0x318>
 800192a:	6dcb      	ldr	r3, [r1, #92]	; 0x5c
 800192c:	3301      	adds	r3, #1
 800192e:	2204      	movs	r2, #4
 8001930:	65cb      	str	r3, [r1, #92]	; 0x5c
 8001932:	f881 2060 	strb.w	r2, [r1, #96]	; 0x60
 8001936:	e73d      	b.n	80017b4 <HAL_HCD_IRQHandler+0x30c>
 8001938:	68bb      	ldr	r3, [r7, #8]
 800193a:	065b      	lsls	r3, r3, #25
 800193c:	f100 808e 	bmi.w	8001a5c <HAL_HCD_IRQHandler+0x5b4>
 8001940:	68bb      	ldr	r3, [r7, #8]
 8001942:	f013 0308 	ands.w	r3, r3, #8
 8001946:	f040 80e2 	bne.w	8001b0e <HAL_HCD_IRQHandler+0x666>
 800194a:	f8d7 e008 	ldr.w	lr, [r7, #8]
 800194e:	f01e 0f10 	tst.w	lr, #16
 8001952:	f000 80c6 	beq.w	8001ae2 <HAL_HCD_IRQHandler+0x63a>
 8001956:	222c      	movs	r2, #44	; 0x2c
 8001958:	fb02 420a 	mla	r2, r2, sl, r4
 800195c:	2103      	movs	r1, #3
 800195e:	65d3      	str	r3, [r2, #92]	; 0x5c
 8001960:	f892 303d 	ldrb.w	r3, [r2, #61]	; 0x3d
 8001964:	f882 1061 	strb.w	r1, [r2, #97]	; 0x61
 8001968:	b933      	cbnz	r3, 8001978 <HAL_HCD_IRQHandler+0x4d0>
 800196a:	4613      	mov	r3, r2
 800196c:	f892 203c 	ldrb.w	r2, [r2, #60]	; 0x3c
 8001970:	b912      	cbnz	r2, 8001978 <HAL_HCD_IRQHandler+0x4d0>
 8001972:	2201      	movs	r2, #1
 8001974:	f883 203d 	strb.w	r2, [r3, #61]	; 0x3d
 8001978:	68fb      	ldr	r3, [r7, #12]
 800197a:	f043 0302 	orr.w	r3, r3, #2
 800197e:	4651      	mov	r1, sl
 8001980:	60fb      	str	r3, [r7, #12]
 8001982:	f001 fb37 	bl	8002ff4 <USB_HC_Halt>
 8001986:	e7ad      	b.n	80018e4 <HAL_HCD_IRQHandler+0x43c>
 8001988:	68fb      	ldr	r3, [r7, #12]
 800198a:	e71e      	b.n	80017ca <HAL_HCD_IRQHandler+0x322>
 800198c:	4620      	mov	r0, r4
 800198e:	f004 f937 	bl	8005c00 <HAL_HCD_Connect_Callback>
 8001992:	e6b6      	b.n	8001702 <HAL_HCD_IRQHandler+0x25a>
 8001994:	4620      	mov	r0, r4
 8001996:	f004 f941 	bl	8005c1c <HAL_HCD_PortDisabled_Callback>
 800199a:	e6cf      	b.n	800173c <HAL_HCD_IRQHandler+0x294>
 800199c:	9b02      	ldr	r3, [sp, #8]
 800199e:	6820      	ldr	r0, [r4, #0]
 80019a0:	f403 23c0 	and.w	r3, r3, #393216	; 0x60000
 80019a4:	f5b3 2f80 	cmp.w	r3, #262144	; 0x40000
 80019a8:	bf18      	it	ne
 80019aa:	2101      	movne	r1, #1
 80019ac:	f001 f940 	bl	8002c30 <USB_InitFSLSPClkSel>
 80019b0:	e6c1      	b.n	8001736 <HAL_HCD_IRQHandler+0x28e>
 80019b2:	68fa      	ldr	r2, [r7, #12]
 80019b4:	9301      	str	r3, [sp, #4]
 80019b6:	212c      	movs	r1, #44	; 0x2c
 80019b8:	fb01 410a 	mla	r1, r1, sl, r4
 80019bc:	f042 0202 	orr.w	r2, r2, #2
 80019c0:	60fa      	str	r2, [r7, #12]
 80019c2:	f04f 0c05 	mov.w	ip, #5
 80019c6:	f04f 0e10 	mov.w	lr, #16
 80019ca:	2208      	movs	r2, #8
 80019cc:	f881 c061 	strb.w	ip, [r1, #97]	; 0x61
 80019d0:	f8c7 e008 	str.w	lr, [r7, #8]
 80019d4:	4651      	mov	r1, sl
 80019d6:	60ba      	str	r2, [r7, #8]
 80019d8:	f001 fb0c 	bl	8002ff4 <USB_HC_Halt>
 80019dc:	9b01      	ldr	r3, [sp, #4]
 80019de:	e5d5      	b.n	800158c <HAL_HCD_IRQHandler+0xe4>
 80019e0:	212c      	movs	r1, #44	; 0x2c
 80019e2:	fb01 410a 	mla	r1, r1, sl, r4
 80019e6:	6dca      	ldr	r2, [r1, #92]	; 0x5c
 80019e8:	3201      	adds	r2, #1
 80019ea:	2a02      	cmp	r2, #2
 80019ec:	65ca      	str	r2, [r1, #92]	; 0x5c
 80019ee:	d91b      	bls.n	8001a28 <HAL_HCD_IRQHandler+0x580>
 80019f0:	2300      	movs	r3, #0
 80019f2:	2204      	movs	r2, #4
 80019f4:	65cb      	str	r3, [r1, #92]	; 0x5c
 80019f6:	f881 2060 	strb.w	r2, [r1, #96]	; 0x60
 80019fa:	e6db      	b.n	80017b4 <HAL_HCD_IRQHandler+0x30c>
 80019fc:	68f9      	ldr	r1, [r7, #12]
 80019fe:	9301      	str	r3, [sp, #4]
 8001a00:	222c      	movs	r2, #44	; 0x2c
 8001a02:	fb02 420a 	mla	r2, r2, sl, r4
 8001a06:	f041 0102 	orr.w	r1, r1, #2
 8001a0a:	f04f 0c08 	mov.w	ip, #8
 8001a0e:	60f9      	str	r1, [r7, #12]
 8001a10:	f882 c061 	strb.w	ip, [r2, #97]	; 0x61
 8001a14:	2110      	movs	r1, #16
 8001a16:	f44f 6280 	mov.w	r2, #1024	; 0x400
 8001a1a:	60b9      	str	r1, [r7, #8]
 8001a1c:	4651      	mov	r1, sl
 8001a1e:	60ba      	str	r2, [r7, #8]
 8001a20:	f001 fae8 	bl	8002ff4 <USB_HC_Halt>
 8001a24:	9b01      	ldr	r3, [sp, #4]
 8001a26:	e5b1      	b.n	800158c <HAL_HCD_IRQHandler+0xe4>
 8001a28:	f881 9060 	strb.w	r9, [r1, #96]	; 0x60
 8001a2c:	f853 200b 	ldr.w	r2, [r3, fp]
 8001a30:	f022 4280 	bic.w	r2, r2, #1073741824	; 0x40000000
 8001a34:	f042 4200 	orr.w	r2, r2, #2147483648	; 0x80000000
 8001a38:	f843 200b 	str.w	r2, [r3, fp]
 8001a3c:	2202      	movs	r2, #2
 8001a3e:	e6b9      	b.n	80017b4 <HAL_HCD_IRQHandler+0x30c>
 8001a40:	f853 000b 	ldr.w	r0, [r3, fp]
 8001a44:	f040 5000 	orr.w	r0, r0, #536870912	; 0x20000000
 8001a48:	f843 000b 	str.w	r0, [r3, fp]
 8001a4c:	f881 2060 	strb.w	r2, [r1, #96]	; 0x60
 8001a50:	4620      	mov	r0, r4
 8001a52:	4651      	mov	r1, sl
 8001a54:	f004 f8dc 	bl	8005c10 <HAL_HCD_HC_NotifyURBChange_Callback>
 8001a58:	6920      	ldr	r0, [r4, #16]
 8001a5a:	e5c4      	b.n	80015e6 <HAL_HCD_IRQHandler+0x13e>
 8001a5c:	232c      	movs	r3, #44	; 0x2c
 8001a5e:	fb03 430a 	mla	r3, r3, sl, r4
 8001a62:	2204      	movs	r2, #4
 8001a64:	f883 2061 	strb.w	r2, [r3, #97]	; 0x61
 8001a68:	2201      	movs	r2, #1
 8001a6a:	f883 203d 	strb.w	r2, [r3, #61]	; 0x3d
 8001a6e:	68fa      	ldr	r2, [r7, #12]
 8001a70:	f8c3 e05c 	str.w	lr, [r3, #92]	; 0x5c
 8001a74:	f042 0202 	orr.w	r2, r2, #2
 8001a78:	60fa      	str	r2, [r7, #12]
 8001a7a:	4651      	mov	r1, sl
 8001a7c:	f001 faba 	bl	8002ff4 <USB_HC_Halt>
 8001a80:	2340      	movs	r3, #64	; 0x40
 8001a82:	60bb      	str	r3, [r7, #8]
 8001a84:	68a2      	ldr	r2, [r4, #8]
 8001a86:	6820      	ldr	r0, [r4, #0]
 8001a88:	e5bb      	b.n	8001602 <HAL_HCD_IRQHandler+0x15a>
 8001a8a:	f891 3054 	ldrb.w	r3, [r1, #84]	; 0x54
 8001a8e:	f881 c060 	strb.w	ip, [r1, #96]	; 0x60
 8001a92:	f083 0301 	eor.w	r3, r3, #1
 8001a96:	f881 3054 	strb.w	r3, [r1, #84]	; 0x54
 8001a9a:	4620      	mov	r0, r4
 8001a9c:	4662      	mov	r2, ip
 8001a9e:	4651      	mov	r1, sl
 8001aa0:	f004 f8b6 	bl	8005c10 <HAL_HCD_HC_NotifyURBChange_Callback>
 8001aa4:	6920      	ldr	r0, [r4, #16]
 8001aa6:	e59e      	b.n	80015e6 <HAL_HCD_IRQHandler+0x13e>
 8001aa8:	4630      	mov	r0, r6
 8001aaa:	9201      	str	r2, [sp, #4]
 8001aac:	f506 66a0 	add.w	r6, r6, #1280	; 0x500
 8001ab0:	f001 f802 	bl	8002ab8 <USB_ReadPacket>
 8001ab4:	f8d8 1044 	ldr.w	r1, [r8, #68]	; 0x44
 8001ab8:	9a01      	ldr	r2, [sp, #4]
 8001aba:	f8d8 0050 	ldr.w	r0, [r8, #80]	; 0x50
 8001abe:	f8b8 e040 	ldrh.w	lr, [r8, #64]	; 0x40
 8001ac2:	eb06 1947 	add.w	r9, r6, r7, lsl #5
 8001ac6:	188b      	adds	r3, r1, r2
 8001ac8:	4410      	add	r0, r2
 8001aca:	4572      	cmp	r2, lr
 8001acc:	f8d9 1010 	ldr.w	r1, [r9, #16]
 8001ad0:	f8c8 3044 	str.w	r3, [r8, #68]	; 0x44
 8001ad4:	f8c8 0050 	str.w	r0, [r8, #80]	; 0x50
 8001ad8:	ea4f 1347 	mov.w	r3, r7, lsl #5
 8001adc:	d05d      	beq.n	8001b9a <HAL_HCD_IRQHandler+0x6f2>
 8001ade:	6826      	ldr	r6, [r4, #0]
 8001ae0:	e641      	b.n	8001766 <HAL_HCD_IRQHandler+0x2be>
 8001ae2:	68bb      	ldr	r3, [r7, #8]
 8001ae4:	061b      	lsls	r3, r3, #24
 8001ae6:	d534      	bpl.n	8001b52 <HAL_HCD_IRQHandler+0x6aa>
 8001ae8:	6923      	ldr	r3, [r4, #16]
 8001aea:	2b00      	cmp	r3, #0
 8001aec:	d066      	beq.n	8001bbc <HAL_HCD_IRQHandler+0x714>
 8001aee:	232c      	movs	r3, #44	; 0x2c
 8001af0:	fb03 430a 	mla	r3, r3, sl, r4
 8001af4:	6dda      	ldr	r2, [r3, #92]	; 0x5c
 8001af6:	3201      	adds	r2, #1
 8001af8:	2a02      	cmp	r2, #2
 8001afa:	65da      	str	r2, [r3, #92]	; 0x5c
 8001afc:	f200 809e 	bhi.w	8001c3c <HAL_HCD_IRQHandler+0x794>
 8001b00:	f883 9060 	strb.w	r9, [r3, #96]	; 0x60
 8001b04:	2380      	movs	r3, #128	; 0x80
 8001b06:	60bb      	str	r3, [r7, #8]
 8001b08:	68a2      	ldr	r2, [r4, #8]
 8001b0a:	6820      	ldr	r0, [r4, #0]
 8001b0c:	e579      	b.n	8001602 <HAL_HCD_IRQHandler+0x15a>
 8001b0e:	2308      	movs	r3, #8
 8001b10:	60bb      	str	r3, [r7, #8]
 8001b12:	68fb      	ldr	r3, [r7, #12]
 8001b14:	f043 0302 	orr.w	r3, r3, #2
 8001b18:	60fb      	str	r3, [r7, #12]
 8001b1a:	4651      	mov	r1, sl
 8001b1c:	f001 fa6a 	bl	8002ff4 <USB_HC_Halt>
 8001b20:	232c      	movs	r3, #44	; 0x2c
 8001b22:	fb03 430a 	mla	r3, r3, sl, r4
 8001b26:	2205      	movs	r2, #5
 8001b28:	f883 2061 	strb.w	r2, [r3, #97]	; 0x61
 8001b2c:	68a2      	ldr	r2, [r4, #8]
 8001b2e:	6820      	ldr	r0, [r4, #0]
 8001b30:	e567      	b.n	8001602 <HAL_HCD_IRQHandler+0x15a>
 8001b32:	68f9      	ldr	r1, [r7, #12]
 8001b34:	65da      	str	r2, [r3, #92]	; 0x5c
 8001b36:	f041 0302 	orr.w	r3, r1, #2
 8001b3a:	6820      	ldr	r0, [r4, #0]
 8001b3c:	60fb      	str	r3, [r7, #12]
 8001b3e:	4651      	mov	r1, sl
 8001b40:	f001 fa58 	bl	8002ff4 <USB_HC_Halt>
 8001b44:	e6ce      	b.n	80018e4 <HAL_HCD_IRQHandler+0x43c>
 8001b46:	2203      	movs	r2, #3
 8001b48:	f883 2061 	strb.w	r2, [r3, #97]	; 0x61
 8001b4c:	68fb      	ldr	r3, [r7, #12]
 8001b4e:	6820      	ldr	r0, [r4, #0]
 8001b50:	e713      	b.n	800197a <HAL_HCD_IRQHandler+0x4d2>
 8001b52:	68bb      	ldr	r3, [r7, #8]
 8001b54:	055b      	lsls	r3, r3, #21
 8001b56:	d43f      	bmi.n	8001bd8 <HAL_HCD_IRQHandler+0x730>
 8001b58:	68bb      	ldr	r3, [r7, #8]
 8001b5a:	079b      	lsls	r3, r3, #30
 8001b5c:	f57f ad51 	bpl.w	8001602 <HAL_HCD_IRQHandler+0x15a>
 8001b60:	68fa      	ldr	r2, [r7, #12]
 8001b62:	232c      	movs	r3, #44	; 0x2c
 8001b64:	f022 0202 	bic.w	r2, r2, #2
 8001b68:	fb03 430a 	mla	r3, r3, sl, r4
 8001b6c:	60fa      	str	r2, [r7, #12]
 8001b6e:	f893 2061 	ldrb.w	r2, [r3, #97]	; 0x61
 8001b72:	2a01      	cmp	r2, #1
 8001b74:	d045      	beq.n	8001c02 <HAL_HCD_IRQHandler+0x75a>
 8001b76:	2a03      	cmp	r2, #3
 8001b78:	d06a      	beq.n	8001c50 <HAL_HCD_IRQHandler+0x7a8>
 8001b7a:	2a04      	cmp	r2, #4
 8001b7c:	d068      	beq.n	8001c50 <HAL_HCD_IRQHandler+0x7a8>
 8001b7e:	2a05      	cmp	r2, #5
 8001b80:	d077      	beq.n	8001c72 <HAL_HCD_IRQHandler+0x7ca>
 8001b82:	2a06      	cmp	r2, #6
 8001b84:	d067      	beq.n	8001c56 <HAL_HCD_IRQHandler+0x7ae>
 8001b86:	2a08      	cmp	r2, #8
 8001b88:	d065      	beq.n	8001c56 <HAL_HCD_IRQHandler+0x7ae>
 8001b8a:	232c      	movs	r3, #44	; 0x2c
 8001b8c:	fb03 430a 	mla	r3, r3, sl, r4
 8001b90:	f8c7 9008 	str.w	r9, [r7, #8]
 8001b94:	f893 2060 	ldrb.w	r2, [r3, #96]	; 0x60
 8001b98:	e60e      	b.n	80017b8 <HAL_HCD_IRQHandler+0x310>
 8001b9a:	f3c1 41c9 	ubfx	r1, r1, #19, #10
 8001b9e:	2900      	cmp	r1, #0
 8001ba0:	d09d      	beq.n	8001ade <HAL_HCD_IRQHandler+0x636>
 8001ba2:	599a      	ldr	r2, [r3, r6]
 8001ba4:	f022 4280 	bic.w	r2, r2, #1073741824	; 0x40000000
 8001ba8:	f042 4200 	orr.w	r2, r2, #2147483648	; 0x80000000
 8001bac:	519a      	str	r2, [r3, r6]
 8001bae:	f898 3054 	ldrb.w	r3, [r8, #84]	; 0x54
 8001bb2:	f083 0301 	eor.w	r3, r3, #1
 8001bb6:	f888 3054 	strb.w	r3, [r8, #84]	; 0x54
 8001bba:	e790      	b.n	8001ade <HAL_HCD_IRQHandler+0x636>
 8001bbc:	232c      	movs	r3, #44	; 0x2c
 8001bbe:	fb03 430a 	mla	r3, r3, sl, r4
 8001bc2:	2206      	movs	r2, #6
 8001bc4:	f883 2061 	strb.w	r2, [r3, #97]	; 0x61
 8001bc8:	68fb      	ldr	r3, [r7, #12]
 8001bca:	f043 0302 	orr.w	r3, r3, #2
 8001bce:	4651      	mov	r1, sl
 8001bd0:	60fb      	str	r3, [r7, #12]
 8001bd2:	f001 fa0f 	bl	8002ff4 <USB_HC_Halt>
 8001bd6:	e795      	b.n	8001b04 <HAL_HCD_IRQHandler+0x65c>
 8001bd8:	68fb      	ldr	r3, [r7, #12]
 8001bda:	f043 0302 	orr.w	r3, r3, #2
 8001bde:	60fb      	str	r3, [r7, #12]
 8001be0:	4651      	mov	r1, sl
 8001be2:	f001 fa07 	bl	8002ff4 <USB_HC_Halt>
 8001be6:	232c      	movs	r3, #44	; 0x2c
 8001be8:	fb03 430a 	mla	r3, r3, sl, r4
 8001bec:	2010      	movs	r0, #16
 8001bee:	2208      	movs	r2, #8
 8001bf0:	f44f 6180 	mov.w	r1, #1024	; 0x400
 8001bf4:	60b8      	str	r0, [r7, #8]
 8001bf6:	60b9      	str	r1, [r7, #8]
 8001bf8:	f883 2061 	strb.w	r2, [r3, #97]	; 0x61
 8001bfc:	68a2      	ldr	r2, [r4, #8]
 8001bfe:	6820      	ldr	r0, [r4, #0]
 8001c00:	e4ff      	b.n	8001602 <HAL_HCD_IRQHandler+0x15a>
 8001c02:	f893 103f 	ldrb.w	r1, [r3, #63]	; 0x3f
 8001c06:	f883 2060 	strb.w	r2, [r3, #96]	; 0x60
 8001c0a:	1e8a      	subs	r2, r1, #2
 8001c0c:	2a01      	cmp	r2, #1
 8001c0e:	d8bc      	bhi.n	8001b8a <HAL_HCD_IRQHandler+0x6e2>
 8001c10:	6922      	ldr	r2, [r4, #16]
 8001c12:	b162      	cbz	r2, 8001c2e <HAL_HCD_IRQHandler+0x786>
 8001c14:	2a01      	cmp	r2, #1
 8001c16:	d1b8      	bne.n	8001b8a <HAL_HCD_IRQHandler+0x6e2>
 8001c18:	6cda      	ldr	r2, [r3, #76]	; 0x4c
 8001c1a:	2a00      	cmp	r2, #0
 8001c1c:	d0b5      	beq.n	8001b8a <HAL_HCD_IRQHandler+0x6e2>
 8001c1e:	f8b3 1040 	ldrh.w	r1, [r3, #64]	; 0x40
 8001c22:	3a01      	subs	r2, #1
 8001c24:	440a      	add	r2, r1
 8001c26:	fbb2 f2f1 	udiv	r2, r2, r1
 8001c2a:	07d2      	lsls	r2, r2, #31
 8001c2c:	d5ad      	bpl.n	8001b8a <HAL_HCD_IRQHandler+0x6e2>
 8001c2e:	f893 2055 	ldrb.w	r2, [r3, #85]	; 0x55
 8001c32:	f082 0201 	eor.w	r2, r2, #1
 8001c36:	f883 2055 	strb.w	r2, [r3, #85]	; 0x55
 8001c3a:	e7a6      	b.n	8001b8a <HAL_HCD_IRQHandler+0x6e2>
 8001c3c:	2000      	movs	r0, #0
 8001c3e:	2204      	movs	r2, #4
 8001c40:	65d8      	str	r0, [r3, #92]	; 0x5c
 8001c42:	4651      	mov	r1, sl
 8001c44:	f883 2060 	strb.w	r2, [r3, #96]	; 0x60
 8001c48:	4620      	mov	r0, r4
 8001c4a:	f003 ffe1 	bl	8005c10 <HAL_HCD_HC_NotifyURBChange_Callback>
 8001c4e:	e759      	b.n	8001b04 <HAL_HCD_IRQHandler+0x65c>
 8001c50:	f883 9060 	strb.w	r9, [r3, #96]	; 0x60
 8001c54:	e799      	b.n	8001b8a <HAL_HCD_IRQHandler+0x6e2>
 8001c56:	222c      	movs	r2, #44	; 0x2c
 8001c58:	fb02 420a 	mla	r2, r2, sl, r4
 8001c5c:	6dd3      	ldr	r3, [r2, #92]	; 0x5c
 8001c5e:	3301      	adds	r3, #1
 8001c60:	2b02      	cmp	r3, #2
 8001c62:	65d3      	str	r3, [r2, #92]	; 0x5c
 8001c64:	d908      	bls.n	8001c78 <HAL_HCD_IRQHandler+0x7d0>
 8001c66:	2100      	movs	r1, #0
 8001c68:	2304      	movs	r3, #4
 8001c6a:	65d1      	str	r1, [r2, #92]	; 0x5c
 8001c6c:	f882 3060 	strb.w	r3, [r2, #96]	; 0x60
 8001c70:	e78b      	b.n	8001b8a <HAL_HCD_IRQHandler+0x6e2>
 8001c72:	f883 2060 	strb.w	r2, [r3, #96]	; 0x60
 8001c76:	e788      	b.n	8001b8a <HAL_HCD_IRQHandler+0x6e2>
 8001c78:	f882 9060 	strb.w	r9, [r2, #96]	; 0x60
 8001c7c:	f851 300c 	ldr.w	r3, [r1, ip]
 8001c80:	f023 4380 	bic.w	r3, r3, #1073741824	; 0x40000000
 8001c84:	f043 4300 	orr.w	r3, r3, #2147483648	; 0x80000000
 8001c88:	f841 300c 	str.w	r3, [r1, ip]
 8001c8c:	e77d      	b.n	8001b8a <HAL_HCD_IRQHandler+0x6e2>
 8001c8e:	bf00      	nop

08001c90 <HAL_HCD_Start>:
 8001c90:	f890 32f8 	ldrb.w	r3, [r0, #760]	; 0x2f8
 8001c94:	2b01      	cmp	r3, #1
 8001c96:	d00e      	beq.n	8001cb6 <HAL_HCD_Start+0x26>
 8001c98:	b510      	push	{r4, lr}
 8001c9a:	2101      	movs	r1, #1
 8001c9c:	4604      	mov	r4, r0
 8001c9e:	f880 12f8 	strb.w	r1, [r0, #760]	; 0x2f8
 8001ca2:	6800      	ldr	r0, [r0, #0]
 8001ca4:	f001 f802 	bl	8002cac <USB_DriveVbus>
 8001ca8:	6820      	ldr	r0, [r4, #0]
 8001caa:	f000 fe87 	bl	80029bc <USB_EnableGlobalInt>
 8001cae:	2000      	movs	r0, #0
 8001cb0:	f884 02f8 	strb.w	r0, [r4, #760]	; 0x2f8
 8001cb4:	bd10      	pop	{r4, pc}
 8001cb6:	2002      	movs	r0, #2
 8001cb8:	4770      	bx	lr
 8001cba:	bf00      	nop

08001cbc <HAL_HCD_Stop>:
 8001cbc:	f890 32f8 	ldrb.w	r3, [r0, #760]	; 0x2f8
 8001cc0:	2b01      	cmp	r3, #1
 8001cc2:	d00b      	beq.n	8001cdc <HAL_HCD_Stop+0x20>
 8001cc4:	b510      	push	{r4, lr}
 8001cc6:	2301      	movs	r3, #1
 8001cc8:	4604      	mov	r4, r0
 8001cca:	f880 32f8 	strb.w	r3, [r0, #760]	; 0x2f8
 8001cce:	6800      	ldr	r0, [r0, #0]
 8001cd0:	f001 f9f6 	bl	80030c0 <USB_StopHost>
 8001cd4:	2000      	movs	r0, #0
 8001cd6:	f884 02f8 	strb.w	r0, [r4, #760]	; 0x2f8
 8001cda:	bd10      	pop	{r4, pc}
 8001cdc:	2002      	movs	r0, #2
 8001cde:	4770      	bx	lr

08001ce0 <HAL_HCD_ResetPort>:
 8001ce0:	6800      	ldr	r0, [r0, #0]
 8001ce2:	f000 bfc3 	b.w	8002c6c <USB_ResetPort>
 8001ce6:	bf00      	nop

08001ce8 <HAL_HCD_HC_GetURBState>:
 8001ce8:	232c      	movs	r3, #44	; 0x2c
 8001cea:	fb03 0001 	mla	r0, r3, r1, r0
 8001cee:	f890 0060 	ldrb.w	r0, [r0, #96]	; 0x60
 8001cf2:	4770      	bx	lr

08001cf4 <HAL_HCD_HC_GetXferCount>:
 8001cf4:	232c      	movs	r3, #44	; 0x2c
 8001cf6:	fb03 0001 	mla	r0, r3, r1, r0
 8001cfa:	6d00      	ldr	r0, [r0, #80]	; 0x50
 8001cfc:	4770      	bx	lr
 8001cfe:	bf00      	nop

08001d00 <HAL_HCD_GetCurrentFrame>:
 8001d00:	6800      	ldr	r0, [r0, #0]
 8001d02:	f001 b803 	b.w	8002d0c <USB_GetCurrentFrame>
 8001d06:	bf00      	nop

08001d08 <HAL_HCD_GetCurrentSpeed>:
 8001d08:	6800      	ldr	r0, [r0, #0]
 8001d0a:	f000 bff3 	b.w	8002cf4 <USB_GetHostSpeed>
 8001d0e:	bf00      	nop

08001d10 <HAL_RCC_OscConfig>:
 8001d10:	2800      	cmp	r0, #0
 8001d12:	f000 81e6 	beq.w	80020e2 <HAL_RCC_OscConfig+0x3d2>
 8001d16:	e92d 41f0 	stmdb	sp!, {r4, r5, r6, r7, r8, lr}
 8001d1a:	6803      	ldr	r3, [r0, #0]
 8001d1c:	07dd      	lsls	r5, r3, #31
 8001d1e:	b082      	sub	sp, #8
 8001d20:	4604      	mov	r4, r0
 8001d22:	d536      	bpl.n	8001d92 <HAL_RCC_OscConfig+0x82>
 8001d24:	f44f 5160 	mov.w	r1, #14336	; 0x3800
 8001d28:	f2c4 0102 	movt	r1, #16386	; 0x4002
 8001d2c:	688a      	ldr	r2, [r1, #8]
 8001d2e:	f002 020c 	and.w	r2, r2, #12
 8001d32:	2a04      	cmp	r2, #4
 8001d34:	f000 8117 	beq.w	8001f66 <HAL_RCC_OscConfig+0x256>
 8001d38:	688a      	ldr	r2, [r1, #8]
 8001d3a:	f002 020c 	and.w	r2, r2, #12
 8001d3e:	2a08      	cmp	r2, #8
 8001d40:	f000 810d 	beq.w	8001f5e <HAL_RCC_OscConfig+0x24e>
 8001d44:	6863      	ldr	r3, [r4, #4]
 8001d46:	f5b3 3f80 	cmp.w	r3, #65536	; 0x10000
 8001d4a:	f000 8119 	beq.w	8001f80 <HAL_RCC_OscConfig+0x270>
 8001d4e:	f5b3 2fa0 	cmp.w	r3, #327680	; 0x50000
 8001d52:	f000 81b0 	beq.w	80020b6 <HAL_RCC_OscConfig+0x3a6>
 8001d56:	f44f 5560 	mov.w	r5, #14336	; 0x3800
 8001d5a:	f2c4 0502 	movt	r5, #16386	; 0x4002
 8001d5e:	682a      	ldr	r2, [r5, #0]
 8001d60:	f422 3280 	bic.w	r2, r2, #65536	; 0x10000
 8001d64:	602a      	str	r2, [r5, #0]
 8001d66:	682a      	ldr	r2, [r5, #0]
 8001d68:	f422 2280 	bic.w	r2, r2, #262144	; 0x40000
 8001d6c:	602a      	str	r2, [r5, #0]
 8001d6e:	2b00      	cmp	r3, #0
 8001d70:	f040 810e 	bne.w	8001f90 <HAL_RCC_OscConfig+0x280>
 8001d74:	f7ff f916 	bl	8000fa4 <HAL_GetTick>
 8001d78:	4606      	mov	r6, r0
 8001d7a:	e006      	b.n	8001d8a <HAL_RCC_OscConfig+0x7a>
 8001d7c:	f7ff f912 	bl	8000fa4 <HAL_GetTick>
 8001d80:	1b80      	subs	r0, r0, r6
 8001d82:	f5b0 7f7a 	cmp.w	r0, #1000	; 0x3e8
 8001d86:	f200 8134 	bhi.w	8001ff2 <HAL_RCC_OscConfig+0x2e2>
 8001d8a:	682b      	ldr	r3, [r5, #0]
 8001d8c:	039b      	lsls	r3, r3, #14
 8001d8e:	d4f5      	bmi.n	8001d7c <HAL_RCC_OscConfig+0x6c>
 8001d90:	6823      	ldr	r3, [r4, #0]
 8001d92:	079f      	lsls	r7, r3, #30
 8001d94:	d530      	bpl.n	8001df8 <HAL_RCC_OscConfig+0xe8>
 8001d96:	f44f 5260 	mov.w	r2, #14336	; 0x3800
 8001d9a:	f2c4 0202 	movt	r2, #16386	; 0x4002
 8001d9e:	6891      	ldr	r1, [r2, #8]
 8001da0:	f011 0f0c 	tst.w	r1, #12
 8001da4:	f000 80ab 	beq.w	8001efe <HAL_RCC_OscConfig+0x1ee>
 8001da8:	6891      	ldr	r1, [r2, #8]
 8001daa:	f001 010c 	and.w	r1, r1, #12
 8001dae:	2908      	cmp	r1, #8
 8001db0:	f000 80a1 	beq.w	8001ef6 <HAL_RCC_OscConfig+0x1e6>
 8001db4:	68e3      	ldr	r3, [r4, #12]
 8001db6:	2b00      	cmp	r3, #0
 8001db8:	f000 813d 	beq.w	8002036 <HAL_RCC_OscConfig+0x326>
 8001dbc:	2300      	movs	r3, #0
 8001dbe:	f2c4 2347 	movt	r3, #16967	; 0x4247
 8001dc2:	2201      	movs	r2, #1
 8001dc4:	601a      	str	r2, [r3, #0]
 8001dc6:	f7ff f8ed 	bl	8000fa4 <HAL_GetTick>
 8001dca:	f44f 5560 	mov.w	r5, #14336	; 0x3800
 8001dce:	4606      	mov	r6, r0
 8001dd0:	f2c4 0502 	movt	r5, #16386	; 0x4002
 8001dd4:	e005      	b.n	8001de2 <HAL_RCC_OscConfig+0xd2>
 8001dd6:	f7ff f8e5 	bl	8000fa4 <HAL_GetTick>
 8001dda:	1b80      	subs	r0, r0, r6
 8001ddc:	2802      	cmp	r0, #2
 8001dde:	f200 8108 	bhi.w	8001ff2 <HAL_RCC_OscConfig+0x2e2>
 8001de2:	682b      	ldr	r3, [r5, #0]
 8001de4:	0798      	lsls	r0, r3, #30
 8001de6:	d5f6      	bpl.n	8001dd6 <HAL_RCC_OscConfig+0xc6>
 8001de8:	682b      	ldr	r3, [r5, #0]
 8001dea:	6922      	ldr	r2, [r4, #16]
 8001dec:	f023 03f8 	bic.w	r3, r3, #248	; 0xf8
 8001df0:	ea43 03c2 	orr.w	r3, r3, r2, lsl #3
 8001df4:	602b      	str	r3, [r5, #0]
 8001df6:	6823      	ldr	r3, [r4, #0]
 8001df8:	071a      	lsls	r2, r3, #28
 8001dfa:	d461      	bmi.n	8001ec0 <HAL_RCC_OscConfig+0x1b0>
 8001dfc:	0758      	lsls	r0, r3, #29
 8001dfe:	d539      	bpl.n	8001e74 <HAL_RCC_OscConfig+0x164>
 8001e00:	f44f 5360 	mov.w	r3, #14336	; 0x3800
 8001e04:	f2c4 0302 	movt	r3, #16386	; 0x4002
 8001e08:	6c1a      	ldr	r2, [r3, #64]	; 0x40
 8001e0a:	f012 5280 	ands.w	r2, r2, #268435456	; 0x10000000
 8001e0e:	f000 809a 	beq.w	8001f46 <HAL_RCC_OscConfig+0x236>
 8001e12:	2500      	movs	r5, #0
 8001e14:	f44f 46e0 	mov.w	r6, #28672	; 0x7000
 8001e18:	f2c4 0600 	movt	r6, #16384	; 0x4000
 8001e1c:	6833      	ldr	r3, [r6, #0]
 8001e1e:	05d9      	lsls	r1, r3, #23
 8001e20:	f140 80d7 	bpl.w	8001fd2 <HAL_RCC_OscConfig+0x2c2>
 8001e24:	68a3      	ldr	r3, [r4, #8]
 8001e26:	2b01      	cmp	r3, #1
 8001e28:	f000 80e7 	beq.w	8001ffa <HAL_RCC_OscConfig+0x2ea>
 8001e2c:	2b05      	cmp	r3, #5
 8001e2e:	f000 815a 	beq.w	80020e6 <HAL_RCC_OscConfig+0x3d6>
 8001e32:	f44f 5660 	mov.w	r6, #14336	; 0x3800
 8001e36:	f2c4 0602 	movt	r6, #16386	; 0x4002
 8001e3a:	6f32      	ldr	r2, [r6, #112]	; 0x70
 8001e3c:	f022 0201 	bic.w	r2, r2, #1
 8001e40:	6732      	str	r2, [r6, #112]	; 0x70
 8001e42:	6f32      	ldr	r2, [r6, #112]	; 0x70
 8001e44:	f022 0204 	bic.w	r2, r2, #4
 8001e48:	6732      	str	r2, [r6, #112]	; 0x70
 8001e4a:	2b00      	cmp	r3, #0
 8001e4c:	f040 80dd 	bne.w	800200a <HAL_RCC_OscConfig+0x2fa>
 8001e50:	f7ff f8a8 	bl	8000fa4 <HAL_GetTick>
 8001e54:	f241 3888 	movw	r8, #5000	; 0x1388
 8001e58:	4607      	mov	r7, r0
 8001e5a:	e005      	b.n	8001e68 <HAL_RCC_OscConfig+0x158>
 8001e5c:	f7ff f8a2 	bl	8000fa4 <HAL_GetTick>
 8001e60:	1bc0      	subs	r0, r0, r7
 8001e62:	4540      	cmp	r0, r8
 8001e64:	f200 80c5 	bhi.w	8001ff2 <HAL_RCC_OscConfig+0x2e2>
 8001e68:	6f33      	ldr	r3, [r6, #112]	; 0x70
 8001e6a:	0798      	lsls	r0, r3, #30
 8001e6c:	d4f6      	bmi.n	8001e5c <HAL_RCC_OscConfig+0x14c>
 8001e6e:	2d00      	cmp	r5, #0
 8001e70:	f040 812e 	bne.w	80020d0 <HAL_RCC_OscConfig+0x3c0>
 8001e74:	69a0      	ldr	r0, [r4, #24]
 8001e76:	b1f8      	cbz	r0, 8001eb8 <HAL_RCC_OscConfig+0x1a8>
 8001e78:	f44f 5560 	mov.w	r5, #14336	; 0x3800
 8001e7c:	f2c4 0502 	movt	r5, #16386	; 0x4002
 8001e80:	68ab      	ldr	r3, [r5, #8]
 8001e82:	f003 030c 	and.w	r3, r3, #12
 8001e86:	2b08      	cmp	r3, #8
 8001e88:	f000 80eb 	beq.w	8002062 <HAL_RCC_OscConfig+0x352>
 8001e8c:	2360      	movs	r3, #96	; 0x60
 8001e8e:	f2c4 2347 	movt	r3, #16967	; 0x4247
 8001e92:	2200      	movs	r2, #0
 8001e94:	2802      	cmp	r0, #2
 8001e96:	601a      	str	r2, [r3, #0]
 8001e98:	f000 8132 	beq.w	8002100 <HAL_RCC_OscConfig+0x3f0>
 8001e9c:	f7ff f882 	bl	8000fa4 <HAL_GetTick>
 8001ea0:	462c      	mov	r4, r5
 8001ea2:	4605      	mov	r5, r0
 8001ea4:	e005      	b.n	8001eb2 <HAL_RCC_OscConfig+0x1a2>
 8001ea6:	f7ff f87d 	bl	8000fa4 <HAL_GetTick>
 8001eaa:	1b40      	subs	r0, r0, r5
 8001eac:	2802      	cmp	r0, #2
 8001eae:	f200 80a0 	bhi.w	8001ff2 <HAL_RCC_OscConfig+0x2e2>
 8001eb2:	6823      	ldr	r3, [r4, #0]
 8001eb4:	019b      	lsls	r3, r3, #6
 8001eb6:	d4f6      	bmi.n	8001ea6 <HAL_RCC_OscConfig+0x196>
 8001eb8:	2000      	movs	r0, #0
 8001eba:	b002      	add	sp, #8
 8001ebc:	e8bd 81f0 	ldmia.w	sp!, {r4, r5, r6, r7, r8, pc}
 8001ec0:	6963      	ldr	r3, [r4, #20]
 8001ec2:	b353      	cbz	r3, 8001f1a <HAL_RCC_OscConfig+0x20a>
 8001ec4:	f44f 6368 	mov.w	r3, #3712	; 0xe80
 8001ec8:	f2c4 2347 	movt	r3, #16967	; 0x4247
 8001ecc:	2201      	movs	r2, #1
 8001ece:	601a      	str	r2, [r3, #0]
 8001ed0:	f7ff f868 	bl	8000fa4 <HAL_GetTick>
 8001ed4:	f44f 5660 	mov.w	r6, #14336	; 0x3800
 8001ed8:	4605      	mov	r5, r0
 8001eda:	f2c4 0602 	movt	r6, #16386	; 0x4002
 8001ede:	e005      	b.n	8001eec <HAL_RCC_OscConfig+0x1dc>
 8001ee0:	f7ff f860 	bl	8000fa4 <HAL_GetTick>
 8001ee4:	1b40      	subs	r0, r0, r5
 8001ee6:	2802      	cmp	r0, #2
 8001ee8:	f200 8083 	bhi.w	8001ff2 <HAL_RCC_OscConfig+0x2e2>
 8001eec:	6f73      	ldr	r3, [r6, #116]	; 0x74
 8001eee:	079b      	lsls	r3, r3, #30
 8001ef0:	d5f6      	bpl.n	8001ee0 <HAL_RCC_OscConfig+0x1d0>
 8001ef2:	6823      	ldr	r3, [r4, #0]
 8001ef4:	e782      	b.n	8001dfc <HAL_RCC_OscConfig+0xec>
 8001ef6:	6852      	ldr	r2, [r2, #4]
 8001ef8:	0256      	lsls	r6, r2, #9
 8001efa:	f53f af5b 	bmi.w	8001db4 <HAL_RCC_OscConfig+0xa4>
 8001efe:	f44f 5260 	mov.w	r2, #14336	; 0x3800
 8001f02:	f2c4 0202 	movt	r2, #16386	; 0x4002
 8001f06:	6812      	ldr	r2, [r2, #0]
 8001f08:	0795      	lsls	r5, r2, #30
 8001f0a:	d553      	bpl.n	8001fb4 <HAL_RCC_OscConfig+0x2a4>
 8001f0c:	68e2      	ldr	r2, [r4, #12]
 8001f0e:	2a01      	cmp	r2, #1
 8001f10:	d050      	beq.n	8001fb4 <HAL_RCC_OscConfig+0x2a4>
 8001f12:	2001      	movs	r0, #1
 8001f14:	b002      	add	sp, #8
 8001f16:	e8bd 81f0 	ldmia.w	sp!, {r4, r5, r6, r7, r8, pc}
 8001f1a:	f44f 6268 	mov.w	r2, #3712	; 0xe80
 8001f1e:	f2c4 2247 	movt	r2, #16967	; 0x4247
 8001f22:	f44f 5660 	mov.w	r6, #14336	; 0x3800
 8001f26:	6013      	str	r3, [r2, #0]
 8001f28:	f7ff f83c 	bl	8000fa4 <HAL_GetTick>
 8001f2c:	f2c4 0602 	movt	r6, #16386	; 0x4002
 8001f30:	4605      	mov	r5, r0
 8001f32:	e004      	b.n	8001f3e <HAL_RCC_OscConfig+0x22e>
 8001f34:	f7ff f836 	bl	8000fa4 <HAL_GetTick>
 8001f38:	1b40      	subs	r0, r0, r5
 8001f3a:	2802      	cmp	r0, #2
 8001f3c:	d859      	bhi.n	8001ff2 <HAL_RCC_OscConfig+0x2e2>
 8001f3e:	6f73      	ldr	r3, [r6, #116]	; 0x74
 8001f40:	079f      	lsls	r7, r3, #30
 8001f42:	d4f7      	bmi.n	8001f34 <HAL_RCC_OscConfig+0x224>
 8001f44:	e7d5      	b.n	8001ef2 <HAL_RCC_OscConfig+0x1e2>
 8001f46:	9201      	str	r2, [sp, #4]
 8001f48:	6c1a      	ldr	r2, [r3, #64]	; 0x40
 8001f4a:	f042 5280 	orr.w	r2, r2, #268435456	; 0x10000000
 8001f4e:	641a      	str	r2, [r3, #64]	; 0x40
 8001f50:	6c1b      	ldr	r3, [r3, #64]	; 0x40
 8001f52:	f003 5380 	and.w	r3, r3, #268435456	; 0x10000000
 8001f56:	9301      	str	r3, [sp, #4]
 8001f58:	9b01      	ldr	r3, [sp, #4]
 8001f5a:	2501      	movs	r5, #1
 8001f5c:	e75a      	b.n	8001e14 <HAL_RCC_OscConfig+0x104>
 8001f5e:	684a      	ldr	r2, [r1, #4]
 8001f60:	0250      	lsls	r0, r2, #9
 8001f62:	f57f aeef 	bpl.w	8001d44 <HAL_RCC_OscConfig+0x34>
 8001f66:	f44f 5260 	mov.w	r2, #14336	; 0x3800
 8001f6a:	f2c4 0202 	movt	r2, #16386	; 0x4002
 8001f6e:	6812      	ldr	r2, [r2, #0]
 8001f70:	0391      	lsls	r1, r2, #14
 8001f72:	f57f af0e 	bpl.w	8001d92 <HAL_RCC_OscConfig+0x82>
 8001f76:	6862      	ldr	r2, [r4, #4]
 8001f78:	2a00      	cmp	r2, #0
 8001f7a:	f47f af0a 	bne.w	8001d92 <HAL_RCC_OscConfig+0x82>
 8001f7e:	e7c8      	b.n	8001f12 <HAL_RCC_OscConfig+0x202>
 8001f80:	f44f 5360 	mov.w	r3, #14336	; 0x3800
 8001f84:	f2c4 0302 	movt	r3, #16386	; 0x4002
 8001f88:	681a      	ldr	r2, [r3, #0]
 8001f8a:	f442 3280 	orr.w	r2, r2, #65536	; 0x10000
 8001f8e:	601a      	str	r2, [r3, #0]
 8001f90:	f7ff f808 	bl	8000fa4 <HAL_GetTick>
 8001f94:	f44f 5660 	mov.w	r6, #14336	; 0x3800
 8001f98:	4605      	mov	r5, r0
 8001f9a:	f2c4 0602 	movt	r6, #16386	; 0x4002
 8001f9e:	e005      	b.n	8001fac <HAL_RCC_OscConfig+0x29c>
 8001fa0:	f7ff f800 	bl	8000fa4 <HAL_GetTick>
 8001fa4:	1b40      	subs	r0, r0, r5
 8001fa6:	f5b0 7f7a 	cmp.w	r0, #1000	; 0x3e8
 8001faa:	d822      	bhi.n	8001ff2 <HAL_RCC_OscConfig+0x2e2>
 8001fac:	6833      	ldr	r3, [r6, #0]
 8001fae:	039a      	lsls	r2, r3, #14
 8001fb0:	d5f6      	bpl.n	8001fa0 <HAL_RCC_OscConfig+0x290>
 8001fb2:	e6ed      	b.n	8001d90 <HAL_RCC_OscConfig+0x80>
 8001fb4:	f44f 5160 	mov.w	r1, #14336	; 0x3800
 8001fb8:	f2c4 0102 	movt	r1, #16386	; 0x4002
 8001fbc:	6920      	ldr	r0, [r4, #16]
 8001fbe:	680a      	ldr	r2, [r1, #0]
 8001fc0:	f022 02f8 	bic.w	r2, r2, #248	; 0xf8
 8001fc4:	ea42 02c0 	orr.w	r2, r2, r0, lsl #3
 8001fc8:	600a      	str	r2, [r1, #0]
 8001fca:	071a      	lsls	r2, r3, #28
 8001fcc:	f57f af16 	bpl.w	8001dfc <HAL_RCC_OscConfig+0xec>
 8001fd0:	e776      	b.n	8001ec0 <HAL_RCC_OscConfig+0x1b0>
 8001fd2:	6833      	ldr	r3, [r6, #0]
 8001fd4:	f443 7380 	orr.w	r3, r3, #256	; 0x100
 8001fd8:	6033      	str	r3, [r6, #0]
 8001fda:	f7fe ffe3 	bl	8000fa4 <HAL_GetTick>
 8001fde:	4607      	mov	r7, r0
 8001fe0:	6833      	ldr	r3, [r6, #0]
 8001fe2:	05da      	lsls	r2, r3, #23
 8001fe4:	f53f af1e 	bmi.w	8001e24 <HAL_RCC_OscConfig+0x114>
 8001fe8:	f7fe ffdc 	bl	8000fa4 <HAL_GetTick>
 8001fec:	1bc0      	subs	r0, r0, r7
 8001fee:	2802      	cmp	r0, #2
 8001ff0:	d9f6      	bls.n	8001fe0 <HAL_RCC_OscConfig+0x2d0>
 8001ff2:	2003      	movs	r0, #3
 8001ff4:	b002      	add	sp, #8
 8001ff6:	e8bd 81f0 	ldmia.w	sp!, {r4, r5, r6, r7, r8, pc}
 8001ffa:	f44f 5360 	mov.w	r3, #14336	; 0x3800
 8001ffe:	f2c4 0302 	movt	r3, #16386	; 0x4002
 8002002:	6f1a      	ldr	r2, [r3, #112]	; 0x70
 8002004:	f042 0201 	orr.w	r2, r2, #1
 8002008:	671a      	str	r2, [r3, #112]	; 0x70
 800200a:	f7fe ffcb 	bl	8000fa4 <HAL_GetTick>
 800200e:	f44f 5760 	mov.w	r7, #14336	; 0x3800
 8002012:	4606      	mov	r6, r0
 8002014:	f2c4 0702 	movt	r7, #16386	; 0x4002
 8002018:	f241 3888 	movw	r8, #5000	; 0x1388
 800201c:	e004      	b.n	8002028 <HAL_RCC_OscConfig+0x318>
 800201e:	f7fe ffc1 	bl	8000fa4 <HAL_GetTick>
 8002022:	1b80      	subs	r0, r0, r6
 8002024:	4540      	cmp	r0, r8
 8002026:	d8e4      	bhi.n	8001ff2 <HAL_RCC_OscConfig+0x2e2>
 8002028:	6f3b      	ldr	r3, [r7, #112]	; 0x70
 800202a:	079b      	lsls	r3, r3, #30
 800202c:	d5f7      	bpl.n	800201e <HAL_RCC_OscConfig+0x30e>
 800202e:	2d00      	cmp	r5, #0
 8002030:	f43f af20 	beq.w	8001e74 <HAL_RCC_OscConfig+0x164>
 8002034:	e04c      	b.n	80020d0 <HAL_RCC_OscConfig+0x3c0>
 8002036:	2200      	movs	r2, #0
 8002038:	f2c4 2247 	movt	r2, #16967	; 0x4247
 800203c:	f44f 5660 	mov.w	r6, #14336	; 0x3800
 8002040:	6013      	str	r3, [r2, #0]
 8002042:	f7fe ffaf 	bl	8000fa4 <HAL_GetTick>
 8002046:	f2c4 0602 	movt	r6, #16386	; 0x4002
 800204a:	4605      	mov	r5, r0
 800204c:	e004      	b.n	8002058 <HAL_RCC_OscConfig+0x348>
 800204e:	f7fe ffa9 	bl	8000fa4 <HAL_GetTick>
 8002052:	1b40      	subs	r0, r0, r5
 8002054:	2802      	cmp	r0, #2
 8002056:	d8cc      	bhi.n	8001ff2 <HAL_RCC_OscConfig+0x2e2>
 8002058:	6833      	ldr	r3, [r6, #0]
 800205a:	0799      	lsls	r1, r3, #30
 800205c:	d4f7      	bmi.n	800204e <HAL_RCC_OscConfig+0x33e>
 800205e:	6823      	ldr	r3, [r4, #0]
 8002060:	e6ca      	b.n	8001df8 <HAL_RCC_OscConfig+0xe8>
 8002062:	2801      	cmp	r0, #1
 8002064:	f43f af29 	beq.w	8001eba <HAL_RCC_OscConfig+0x1aa>
 8002068:	686b      	ldr	r3, [r5, #4]
 800206a:	69e2      	ldr	r2, [r4, #28]
 800206c:	f403 0180 	and.w	r1, r3, #4194304	; 0x400000
 8002070:	4291      	cmp	r1, r2
 8002072:	f47f af4e 	bne.w	8001f12 <HAL_RCC_OscConfig+0x202>
 8002076:	6a22      	ldr	r2, [r4, #32]
 8002078:	f003 013f 	and.w	r1, r3, #63	; 0x3f
 800207c:	4291      	cmp	r1, r2
 800207e:	f47f af48 	bne.w	8001f12 <HAL_RCC_OscConfig+0x202>
 8002082:	6a61      	ldr	r1, [r4, #36]	; 0x24
 8002084:	f647 72c0 	movw	r2, #32704	; 0x7fc0
 8002088:	401a      	ands	r2, r3
 800208a:	ebb2 1f81 	cmp.w	r2, r1, lsl #6
 800208e:	f47f af40 	bne.w	8001f12 <HAL_RCC_OscConfig+0x202>
 8002092:	6aa2      	ldr	r2, [r4, #40]	; 0x28
 8002094:	0852      	lsrs	r2, r2, #1
 8002096:	3a01      	subs	r2, #1
 8002098:	f403 3140 	and.w	r1, r3, #196608	; 0x30000
 800209c:	ebb1 4f02 	cmp.w	r1, r2, lsl #16
 80020a0:	f47f af37 	bne.w	8001f12 <HAL_RCC_OscConfig+0x202>
 80020a4:	6ae2      	ldr	r2, [r4, #44]	; 0x2c
 80020a6:	f003 6370 	and.w	r3, r3, #251658240	; 0xf000000
 80020aa:	ebb3 6f02 	cmp.w	r3, r2, lsl #24
 80020ae:	bf14      	ite	ne
 80020b0:	2001      	movne	r0, #1
 80020b2:	2000      	moveq	r0, #0
 80020b4:	e701      	b.n	8001eba <HAL_RCC_OscConfig+0x1aa>
 80020b6:	f44f 5360 	mov.w	r3, #14336	; 0x3800
 80020ba:	f2c4 0302 	movt	r3, #16386	; 0x4002
 80020be:	681a      	ldr	r2, [r3, #0]
 80020c0:	f442 2280 	orr.w	r2, r2, #262144	; 0x40000
 80020c4:	601a      	str	r2, [r3, #0]
 80020c6:	681a      	ldr	r2, [r3, #0]
 80020c8:	f442 3280 	orr.w	r2, r2, #65536	; 0x10000
 80020cc:	601a      	str	r2, [r3, #0]
 80020ce:	e75f      	b.n	8001f90 <HAL_RCC_OscConfig+0x280>
 80020d0:	f44f 5360 	mov.w	r3, #14336	; 0x3800
 80020d4:	f2c4 0302 	movt	r3, #16386	; 0x4002
 80020d8:	6c1a      	ldr	r2, [r3, #64]	; 0x40
 80020da:	f022 5280 	bic.w	r2, r2, #268435456	; 0x10000000
 80020de:	641a      	str	r2, [r3, #64]	; 0x40
 80020e0:	e6c8      	b.n	8001e74 <HAL_RCC_OscConfig+0x164>
 80020e2:	2001      	movs	r0, #1
 80020e4:	4770      	bx	lr
 80020e6:	f44f 5360 	mov.w	r3, #14336	; 0x3800
 80020ea:	f2c4 0302 	movt	r3, #16386	; 0x4002
 80020ee:	6f1a      	ldr	r2, [r3, #112]	; 0x70
 80020f0:	f042 0204 	orr.w	r2, r2, #4
 80020f4:	671a      	str	r2, [r3, #112]	; 0x70
 80020f6:	6f1a      	ldr	r2, [r3, #112]	; 0x70
 80020f8:	f042 0201 	orr.w	r2, r2, #1
 80020fc:	671a      	str	r2, [r3, #112]	; 0x70
 80020fe:	e784      	b.n	800200a <HAL_RCC_OscConfig+0x2fa>
 8002100:	f7fe ff50 	bl	8000fa4 <HAL_GetTick>
 8002104:	4606      	mov	r6, r0
 8002106:	e005      	b.n	8002114 <HAL_RCC_OscConfig+0x404>
 8002108:	f7fe ff4c 	bl	8000fa4 <HAL_GetTick>
 800210c:	1b80      	subs	r0, r0, r6
 800210e:	2802      	cmp	r0, #2
 8002110:	f63f af6f 	bhi.w	8001ff2 <HAL_RCC_OscConfig+0x2e2>
 8002114:	682b      	ldr	r3, [r5, #0]
 8002116:	0199      	lsls	r1, r3, #6
 8002118:	d4f6      	bmi.n	8002108 <HAL_RCC_OscConfig+0x3f8>
 800211a:	e9d4 3607 	ldrd	r3, r6, [r4, #28]
 800211e:	e9d4 1209 	ldrd	r1, r2, [r4, #36]	; 0x24
 8002122:	6ae0      	ldr	r0, [r4, #44]	; 0x2c
 8002124:	4333      	orrs	r3, r6
 8002126:	ea43 1381 	orr.w	r3, r3, r1, lsl #6
 800212a:	0852      	lsrs	r2, r2, #1
 800212c:	2160      	movs	r1, #96	; 0x60
 800212e:	ea43 6300 	orr.w	r3, r3, r0, lsl #24
 8002132:	3a01      	subs	r2, #1
 8002134:	f2c4 2147 	movt	r1, #16967	; 0x4247
 8002138:	ea43 4302 	orr.w	r3, r3, r2, lsl #16
 800213c:	2201      	movs	r2, #1
 800213e:	606b      	str	r3, [r5, #4]
 8002140:	600a      	str	r2, [r1, #0]
 8002142:	f7fe ff2f 	bl	8000fa4 <HAL_GetTick>
 8002146:	f44f 5560 	mov.w	r5, #14336	; 0x3800
 800214a:	4604      	mov	r4, r0
 800214c:	f2c4 0502 	movt	r5, #16386	; 0x4002
 8002150:	e005      	b.n	800215e <HAL_RCC_OscConfig+0x44e>
 8002152:	f7fe ff27 	bl	8000fa4 <HAL_GetTick>
 8002156:	1b00      	subs	r0, r0, r4
 8002158:	2802      	cmp	r0, #2
 800215a:	f63f af4a 	bhi.w	8001ff2 <HAL_RCC_OscConfig+0x2e2>
 800215e:	682b      	ldr	r3, [r5, #0]
 8002160:	019a      	lsls	r2, r3, #6
 8002162:	d5f6      	bpl.n	8002152 <HAL_RCC_OscConfig+0x442>
 8002164:	e6a8      	b.n	8001eb8 <HAL_RCC_OscConfig+0x1a8>
 8002166:	bf00      	nop

08002168 <HAL_RCC_GetSysClockFreq>:
 8002168:	f44f 5160 	mov.w	r1, #14336	; 0x3800
 800216c:	f2c4 0102 	movt	r1, #16386	; 0x4002
 8002170:	b508      	push	{r3, lr}
 8002172:	688b      	ldr	r3, [r1, #8]
 8002174:	f003 030c 	and.w	r3, r3, #12
 8002178:	2b04      	cmp	r3, #4
 800217a:	d024      	beq.n	80021c6 <HAL_RCC_GetSysClockFreq+0x5e>
 800217c:	2b08      	cmp	r3, #8
 800217e:	d11d      	bne.n	80021bc <HAL_RCC_GetSysClockFreq+0x54>
 8002180:	684a      	ldr	r2, [r1, #4]
 8002182:	684b      	ldr	r3, [r1, #4]
 8002184:	f413 0380 	ands.w	r3, r3, #4194304	; 0x400000
 8002188:	f002 023f 	and.w	r2, r2, #63	; 0x3f
 800218c:	d120      	bne.n	80021d0 <HAL_RCC_GetSysClockFreq+0x68>
 800218e:	6849      	ldr	r1, [r1, #4]
 8002190:	f44f 5010 	mov.w	r0, #9216	; 0x2400
 8002194:	f3c1 1188 	ubfx	r1, r1, #6, #9
 8002198:	f2c0 00f4 	movt	r0, #244	; 0xf4
 800219c:	fba1 0100 	umull	r0, r1, r1, r0
 80021a0:	f7fe f818 	bl	80001d4 <__aeabi_uldivmod>
 80021a4:	f44f 5360 	mov.w	r3, #14336	; 0x3800
 80021a8:	f2c4 0302 	movt	r3, #16386	; 0x4002
 80021ac:	685b      	ldr	r3, [r3, #4]
 80021ae:	f3c3 4301 	ubfx	r3, r3, #16, #2
 80021b2:	3301      	adds	r3, #1
 80021b4:	005b      	lsls	r3, r3, #1
 80021b6:	fbb0 f0f3 	udiv	r0, r0, r3
 80021ba:	bd08      	pop	{r3, pc}
 80021bc:	f44f 5010 	mov.w	r0, #9216	; 0x2400
 80021c0:	f2c0 00f4 	movt	r0, #244	; 0xf4
 80021c4:	bd08      	pop	{r3, pc}
 80021c6:	f44f 5090 	mov.w	r0, #4608	; 0x1200
 80021ca:	f2c0 007a 	movt	r0, #122	; 0x7a
 80021ce:	bd08      	pop	{r3, pc}
 80021d0:	684b      	ldr	r3, [r1, #4]
 80021d2:	f44f 5090 	mov.w	r0, #4608	; 0x1200
 80021d6:	f3c3 1388 	ubfx	r3, r3, #6, #9
 80021da:	f2c0 007a 	movt	r0, #122	; 0x7a
 80021de:	fba3 0100 	umull	r0, r1, r3, r0
 80021e2:	2300      	movs	r3, #0
 80021e4:	f7fd fff6 	bl	80001d4 <__aeabi_uldivmod>
 80021e8:	e7dc      	b.n	80021a4 <HAL_RCC_GetSysClockFreq+0x3c>
 80021ea:	bf00      	nop

080021ec <HAL_RCC_ClockConfig>:
 80021ec:	2800      	cmp	r0, #0
 80021ee:	f000 80af 	beq.w	8002350 <HAL_RCC_ClockConfig+0x164>
 80021f2:	f44f 5370 	mov.w	r3, #15360	; 0x3c00
 80021f6:	f2c4 0302 	movt	r3, #16386	; 0x4002
 80021fa:	e92d 41f0 	stmdb	sp!, {r4, r5, r6, r7, r8, lr}
 80021fe:	681a      	ldr	r2, [r3, #0]
 8002200:	f002 0207 	and.w	r2, r2, #7
 8002204:	428a      	cmp	r2, r1
 8002206:	460d      	mov	r5, r1
 8002208:	4604      	mov	r4, r0
 800220a:	d209      	bcs.n	8002220 <HAL_RCC_ClockConfig+0x34>
 800220c:	b2ca      	uxtb	r2, r1
 800220e:	701a      	strb	r2, [r3, #0]
 8002210:	681b      	ldr	r3, [r3, #0]
 8002212:	f003 0307 	and.w	r3, r3, #7
 8002216:	428b      	cmp	r3, r1
 8002218:	d002      	beq.n	8002220 <HAL_RCC_ClockConfig+0x34>
 800221a:	2001      	movs	r0, #1
 800221c:	e8bd 81f0 	ldmia.w	sp!, {r4, r5, r6, r7, r8, pc}
 8002220:	6823      	ldr	r3, [r4, #0]
 8002222:	0798      	lsls	r0, r3, #30
 8002224:	d51d      	bpl.n	8002262 <HAL_RCC_ClockConfig+0x76>
 8002226:	0759      	lsls	r1, r3, #29
 8002228:	d507      	bpl.n	800223a <HAL_RCC_ClockConfig+0x4e>
 800222a:	f44f 5260 	mov.w	r2, #14336	; 0x3800
 800222e:	f2c4 0202 	movt	r2, #16386	; 0x4002
 8002232:	6891      	ldr	r1, [r2, #8]
 8002234:	f441 51e0 	orr.w	r1, r1, #7168	; 0x1c00
 8002238:	6091      	str	r1, [r2, #8]
 800223a:	071a      	lsls	r2, r3, #28
 800223c:	d507      	bpl.n	800224e <HAL_RCC_ClockConfig+0x62>
 800223e:	f44f 5260 	mov.w	r2, #14336	; 0x3800
 8002242:	f2c4 0202 	movt	r2, #16386	; 0x4002
 8002246:	6891      	ldr	r1, [r2, #8]
 8002248:	f441 4160 	orr.w	r1, r1, #57344	; 0xe000
 800224c:	6091      	str	r1, [r2, #8]
 800224e:	f44f 5160 	mov.w	r1, #14336	; 0x3800
 8002252:	f2c4 0102 	movt	r1, #16386	; 0x4002
 8002256:	68a0      	ldr	r0, [r4, #8]
 8002258:	688a      	ldr	r2, [r1, #8]
 800225a:	f022 02f0 	bic.w	r2, r2, #240	; 0xf0
 800225e:	4302      	orrs	r2, r0
 8002260:	608a      	str	r2, [r1, #8]
 8002262:	07df      	lsls	r7, r3, #31
 8002264:	d528      	bpl.n	80022b8 <HAL_RCC_ClockConfig+0xcc>
 8002266:	6862      	ldr	r2, [r4, #4]
 8002268:	2a01      	cmp	r2, #1
 800226a:	d073      	beq.n	8002354 <HAL_RCC_ClockConfig+0x168>
 800226c:	1e93      	subs	r3, r2, #2
 800226e:	2b01      	cmp	r3, #1
 8002270:	f44f 5360 	mov.w	r3, #14336	; 0x3800
 8002274:	f2c4 0302 	movt	r3, #16386	; 0x4002
 8002278:	681b      	ldr	r3, [r3, #0]
 800227a:	d966      	bls.n	800234a <HAL_RCC_ClockConfig+0x15e>
 800227c:	0799      	lsls	r1, r3, #30
 800227e:	d5cc      	bpl.n	800221a <HAL_RCC_ClockConfig+0x2e>
 8002280:	f44f 5160 	mov.w	r1, #14336	; 0x3800
 8002284:	f2c4 0102 	movt	r1, #16386	; 0x4002
 8002288:	460f      	mov	r7, r1
 800228a:	688b      	ldr	r3, [r1, #8]
 800228c:	f023 0303 	bic.w	r3, r3, #3
 8002290:	4313      	orrs	r3, r2
 8002292:	608b      	str	r3, [r1, #8]
 8002294:	f7fe fe86 	bl	8000fa4 <HAL_GetTick>
 8002298:	f241 3888 	movw	r8, #5000	; 0x1388
 800229c:	4606      	mov	r6, r0
 800229e:	e004      	b.n	80022aa <HAL_RCC_ClockConfig+0xbe>
 80022a0:	f7fe fe80 	bl	8000fa4 <HAL_GetTick>
 80022a4:	1b80      	subs	r0, r0, r6
 80022a6:	4540      	cmp	r0, r8
 80022a8:	d85c      	bhi.n	8002364 <HAL_RCC_ClockConfig+0x178>
 80022aa:	68bb      	ldr	r3, [r7, #8]
 80022ac:	6862      	ldr	r2, [r4, #4]
 80022ae:	f003 030c 	and.w	r3, r3, #12
 80022b2:	ebb3 0f82 	cmp.w	r3, r2, lsl #2
 80022b6:	d1f3      	bne.n	80022a0 <HAL_RCC_ClockConfig+0xb4>
 80022b8:	f44f 5270 	mov.w	r2, #15360	; 0x3c00
 80022bc:	f2c4 0202 	movt	r2, #16386	; 0x4002
 80022c0:	6813      	ldr	r3, [r2, #0]
 80022c2:	f003 0307 	and.w	r3, r3, #7
 80022c6:	42ab      	cmp	r3, r5
 80022c8:	d906      	bls.n	80022d8 <HAL_RCC_ClockConfig+0xec>
 80022ca:	b2eb      	uxtb	r3, r5
 80022cc:	7013      	strb	r3, [r2, #0]
 80022ce:	6813      	ldr	r3, [r2, #0]
 80022d0:	f003 0307 	and.w	r3, r3, #7
 80022d4:	42ab      	cmp	r3, r5
 80022d6:	d1a0      	bne.n	800221a <HAL_RCC_ClockConfig+0x2e>
 80022d8:	6823      	ldr	r3, [r4, #0]
 80022da:	075a      	lsls	r2, r3, #29
 80022dc:	d509      	bpl.n	80022f2 <HAL_RCC_ClockConfig+0x106>
 80022de:	f44f 5160 	mov.w	r1, #14336	; 0x3800
 80022e2:	f2c4 0102 	movt	r1, #16386	; 0x4002
 80022e6:	68e0      	ldr	r0, [r4, #12]
 80022e8:	688a      	ldr	r2, [r1, #8]
 80022ea:	f422 52e0 	bic.w	r2, r2, #7168	; 0x1c00
 80022ee:	4302      	orrs	r2, r0
 80022f0:	608a      	str	r2, [r1, #8]
 80022f2:	071b      	lsls	r3, r3, #28
 80022f4:	d50a      	bpl.n	800230c <HAL_RCC_ClockConfig+0x120>
 80022f6:	f44f 5260 	mov.w	r2, #14336	; 0x3800
 80022fa:	f2c4 0202 	movt	r2, #16386	; 0x4002
 80022fe:	6921      	ldr	r1, [r4, #16]
 8002300:	6893      	ldr	r3, [r2, #8]
 8002302:	f423 4360 	bic.w	r3, r3, #57344	; 0xe000
 8002306:	ea43 03c1 	orr.w	r3, r3, r1, lsl #3
 800230a:	6093      	str	r3, [r2, #8]
 800230c:	f7ff ff2c 	bl	8002168 <HAL_RCC_GetSysClockFreq>
 8002310:	f44f 5360 	mov.w	r3, #14336	; 0x3800
 8002314:	f2c4 0302 	movt	r3, #16386	; 0x4002
 8002318:	f645 72dc 	movw	r2, #24540	; 0x5fdc
 800231c:	689b      	ldr	r3, [r3, #8]
 800231e:	f6c0 0200 	movt	r2, #2048	; 0x800
 8002322:	f3c3 1303 	ubfx	r3, r3, #4, #4
 8002326:	f240 010c 	movw	r1, #12
 800232a:	5cd2      	ldrb	r2, [r2, r3]
 800232c:	f2c2 0100 	movt	r1, #8192	; 0x2000
 8002330:	f240 0304 	movw	r3, #4
 8002334:	f2c2 0300 	movt	r3, #8192	; 0x2000
 8002338:	fa20 f202 	lsr.w	r2, r0, r2
 800233c:	6808      	ldr	r0, [r1, #0]
 800233e:	601a      	str	r2, [r3, #0]
 8002340:	f7fe fc74 	bl	8000c2c <HAL_InitTick>
 8002344:	2000      	movs	r0, #0
 8002346:	e8bd 81f0 	ldmia.w	sp!, {r4, r5, r6, r7, r8, pc}
 800234a:	0198      	lsls	r0, r3, #6
 800234c:	d498      	bmi.n	8002280 <HAL_RCC_ClockConfig+0x94>
 800234e:	e764      	b.n	800221a <HAL_RCC_ClockConfig+0x2e>
 8002350:	2001      	movs	r0, #1
 8002352:	4770      	bx	lr
 8002354:	f44f 5360 	mov.w	r3, #14336	; 0x3800
 8002358:	f2c4 0302 	movt	r3, #16386	; 0x4002
 800235c:	681b      	ldr	r3, [r3, #0]
 800235e:	039e      	lsls	r6, r3, #14
 8002360:	d48e      	bmi.n	8002280 <HAL_RCC_ClockConfig+0x94>
 8002362:	e75a      	b.n	800221a <HAL_RCC_ClockConfig+0x2e>
 8002364:	2003      	movs	r0, #3
 8002366:	e759      	b.n	800221c <HAL_RCC_ClockConfig+0x30>

08002368 <HAL_RCC_GetPCLK2Freq>:
 8002368:	f44f 5360 	mov.w	r3, #14336	; 0x3800
 800236c:	f2c4 0302 	movt	r3, #16386	; 0x4002
 8002370:	f645 71ec 	movw	r1, #24556	; 0x5fec
 8002374:	689a      	ldr	r2, [r3, #8]
 8002376:	f240 0304 	movw	r3, #4
 800237a:	f6c0 0100 	movt	r1, #2048	; 0x800
 800237e:	f2c2 0300 	movt	r3, #8192	; 0x2000
 8002382:	f3c2 3242 	ubfx	r2, r2, #13, #3
 8002386:	6818      	ldr	r0, [r3, #0]
 8002388:	5c8a      	ldrb	r2, [r1, r2]
 800238a:	40d0      	lsrs	r0, r2
 800238c:	4770      	bx	lr
 800238e:	bf00      	nop

08002390 <HAL_RCC_GetClockConfig>:
 8002390:	f44f 5360 	mov.w	r3, #14336	; 0x3800
 8002394:	f2c4 0302 	movt	r3, #16386	; 0x4002
 8002398:	220f      	movs	r2, #15
 800239a:	6002      	str	r2, [r0, #0]
 800239c:	689a      	ldr	r2, [r3, #8]
 800239e:	f002 0203 	and.w	r2, r2, #3
 80023a2:	6042      	str	r2, [r0, #4]
 80023a4:	689a      	ldr	r2, [r3, #8]
 80023a6:	f002 02f0 	and.w	r2, r2, #240	; 0xf0
 80023aa:	6082      	str	r2, [r0, #8]
 80023ac:	689a      	ldr	r2, [r3, #8]
 80023ae:	f402 52e0 	and.w	r2, r2, #7168	; 0x1c00
 80023b2:	60c2      	str	r2, [r0, #12]
 80023b4:	689b      	ldr	r3, [r3, #8]
 80023b6:	f44f 5270 	mov.w	r2, #15360	; 0x3c00
 80023ba:	08db      	lsrs	r3, r3, #3
 80023bc:	f403 53e0 	and.w	r3, r3, #7168	; 0x1c00
 80023c0:	f2c4 0202 	movt	r2, #16386	; 0x4002
 80023c4:	6103      	str	r3, [r0, #16]
 80023c6:	6813      	ldr	r3, [r2, #0]
 80023c8:	f003 0307 	and.w	r3, r3, #7
 80023cc:	600b      	str	r3, [r1, #0]
 80023ce:	4770      	bx	lr

080023d0 <HAL_TIM_Base_Init>:
 80023d0:	2800      	cmp	r0, #0
 80023d2:	f000 8085 	beq.w	80024e0 <HAL_TIM_Base_Init+0x110>
 80023d6:	b538      	push	{r3, r4, r5, lr}
 80023d8:	f890 303d 	ldrb.w	r3, [r0, #61]	; 0x3d
 80023dc:	4604      	mov	r4, r0
 80023de:	f003 02ff 	and.w	r2, r3, #255	; 0xff
 80023e2:	2b00      	cmp	r3, #0
 80023e4:	d063      	beq.n	80024ae <HAL_TIM_Base_Init+0xde>
 80023e6:	6822      	ldr	r2, [r4, #0]
 80023e8:	2100      	movs	r1, #0
 80023ea:	2302      	movs	r3, #2
 80023ec:	f2c4 0101 	movt	r1, #16385	; 0x4001
 80023f0:	f884 303d 	strb.w	r3, [r4, #61]	; 0x3d
 80023f4:	428a      	cmp	r2, r1
 80023f6:	6813      	ldr	r3, [r2, #0]
 80023f8:	d05e      	beq.n	80024b8 <HAL_TIM_Base_Init+0xe8>
 80023fa:	f1b2 4f80 	cmp.w	r2, #1073741824	; 0x40000000
 80023fe:	d02d      	beq.n	800245c <HAL_TIM_Base_Init+0x8c>
 8002400:	f44f 6180 	mov.w	r1, #1024	; 0x400
 8002404:	f2c4 0100 	movt	r1, #16384	; 0x4000
 8002408:	428a      	cmp	r2, r1
 800240a:	d027      	beq.n	800245c <HAL_TIM_Base_Init+0x8c>
 800240c:	f44f 6100 	mov.w	r1, #2048	; 0x800
 8002410:	f2c4 0100 	movt	r1, #16384	; 0x4000
 8002414:	428a      	cmp	r2, r1
 8002416:	d021      	beq.n	800245c <HAL_TIM_Base_Init+0x8c>
 8002418:	f44f 6140 	mov.w	r1, #3072	; 0xc00
 800241c:	f2c4 0100 	movt	r1, #16384	; 0x4000
 8002420:	428a      	cmp	r2, r1
 8002422:	d01b      	beq.n	800245c <HAL_TIM_Base_Init+0x8c>
 8002424:	f44f 4180 	mov.w	r1, #16384	; 0x4000
 8002428:	f2c4 0101 	movt	r1, #16385	; 0x4001
 800242c:	428a      	cmp	r2, r1
 800242e:	d019      	beq.n	8002464 <HAL_TIM_Base_Init+0x94>
 8002430:	f44f 4188 	mov.w	r1, #17408	; 0x4400
 8002434:	f2c4 0101 	movt	r1, #16385	; 0x4001
 8002438:	428a      	cmp	r2, r1
 800243a:	d013      	beq.n	8002464 <HAL_TIM_Base_Init+0x94>
 800243c:	f44f 4190 	mov.w	r1, #18432	; 0x4800
 8002440:	f2c4 0101 	movt	r1, #16385	; 0x4001
 8002444:	428a      	cmp	r2, r1
 8002446:	d00d      	beq.n	8002464 <HAL_TIM_Base_Init+0x94>
 8002448:	69a5      	ldr	r5, [r4, #24]
 800244a:	68e0      	ldr	r0, [r4, #12]
 800244c:	6861      	ldr	r1, [r4, #4]
 800244e:	f023 0380 	bic.w	r3, r3, #128	; 0x80
 8002452:	432b      	orrs	r3, r5
 8002454:	6013      	str	r3, [r2, #0]
 8002456:	62d0      	str	r0, [r2, #44]	; 0x2c
 8002458:	6291      	str	r1, [r2, #40]	; 0x28
 800245a:	e010      	b.n	800247e <HAL_TIM_Base_Init+0xae>
 800245c:	68a1      	ldr	r1, [r4, #8]
 800245e:	f023 0370 	bic.w	r3, r3, #112	; 0x70
 8002462:	430b      	orrs	r3, r1
 8002464:	6925      	ldr	r5, [r4, #16]
 8002466:	69a1      	ldr	r1, [r4, #24]
 8002468:	68e0      	ldr	r0, [r4, #12]
 800246a:	f423 7340 	bic.w	r3, r3, #768	; 0x300
 800246e:	432b      	orrs	r3, r5
 8002470:	f023 0380 	bic.w	r3, r3, #128	; 0x80
 8002474:	430b      	orrs	r3, r1
 8002476:	6861      	ldr	r1, [r4, #4]
 8002478:	6013      	str	r3, [r2, #0]
 800247a:	62d0      	str	r0, [r2, #44]	; 0x2c
 800247c:	6291      	str	r1, [r2, #40]	; 0x28
 800247e:	2301      	movs	r3, #1
 8002480:	6153      	str	r3, [r2, #20]
 8002482:	f884 3046 	strb.w	r3, [r4, #70]	; 0x46
 8002486:	f884 303e 	strb.w	r3, [r4, #62]	; 0x3e
 800248a:	f884 303f 	strb.w	r3, [r4, #63]	; 0x3f
 800248e:	f884 3040 	strb.w	r3, [r4, #64]	; 0x40
 8002492:	f884 3041 	strb.w	r3, [r4, #65]	; 0x41
 8002496:	f884 3042 	strb.w	r3, [r4, #66]	; 0x42
 800249a:	f884 3043 	strb.w	r3, [r4, #67]	; 0x43
 800249e:	f884 3044 	strb.w	r3, [r4, #68]	; 0x44
 80024a2:	f884 3045 	strb.w	r3, [r4, #69]	; 0x45
 80024a6:	f884 303d 	strb.w	r3, [r4, #61]	; 0x3d
 80024aa:	2000      	movs	r0, #0
 80024ac:	bd38      	pop	{r3, r4, r5, pc}
 80024ae:	f880 203c 	strb.w	r2, [r0, #60]	; 0x3c
 80024b2:	f7fe fce1 	bl	8000e78 <HAL_TIM_Base_MspInit>
 80024b6:	e796      	b.n	80023e6 <HAL_TIM_Base_Init+0x16>
 80024b8:	68a5      	ldr	r5, [r4, #8]
 80024ba:	6920      	ldr	r0, [r4, #16]
 80024bc:	69a1      	ldr	r1, [r4, #24]
 80024be:	f023 0370 	bic.w	r3, r3, #112	; 0x70
 80024c2:	432b      	orrs	r3, r5
 80024c4:	f423 7340 	bic.w	r3, r3, #768	; 0x300
 80024c8:	4303      	orrs	r3, r0
 80024ca:	f023 0380 	bic.w	r3, r3, #128	; 0x80
 80024ce:	430b      	orrs	r3, r1
 80024d0:	6013      	str	r3, [r2, #0]
 80024d2:	68e3      	ldr	r3, [r4, #12]
 80024d4:	62d3      	str	r3, [r2, #44]	; 0x2c
 80024d6:	6863      	ldr	r3, [r4, #4]
 80024d8:	6293      	str	r3, [r2, #40]	; 0x28
 80024da:	6963      	ldr	r3, [r4, #20]
 80024dc:	6313      	str	r3, [r2, #48]	; 0x30
 80024de:	e7ce      	b.n	800247e <HAL_TIM_Base_Init+0xae>
 80024e0:	2001      	movs	r0, #1
 80024e2:	4770      	bx	lr

080024e4 <HAL_TIM_Base_Start_IT>:
 80024e4:	f890 303d 	ldrb.w	r3, [r0, #61]	; 0x3d
 80024e8:	2b01      	cmp	r3, #1
 80024ea:	d132      	bne.n	8002552 <HAL_TIM_Base_Start_IT+0x6e>
 80024ec:	6803      	ldr	r3, [r0, #0]
 80024ee:	2202      	movs	r2, #2
 80024f0:	f880 203d 	strb.w	r2, [r0, #61]	; 0x3d
 80024f4:	68da      	ldr	r2, [r3, #12]
 80024f6:	2100      	movs	r1, #0
 80024f8:	f2c4 0101 	movt	r1, #16385	; 0x4001
 80024fc:	f042 0201 	orr.w	r2, r2, #1
 8002500:	428b      	cmp	r3, r1
 8002502:	60da      	str	r2, [r3, #12]
 8002504:	d01a      	beq.n	800253c <HAL_TIM_Base_Start_IT+0x58>
 8002506:	f1b3 4f80 	cmp.w	r3, #1073741824	; 0x40000000
 800250a:	d017      	beq.n	800253c <HAL_TIM_Base_Start_IT+0x58>
 800250c:	f44f 6280 	mov.w	r2, #1024	; 0x400
 8002510:	f2c4 0200 	movt	r2, #16384	; 0x4000
 8002514:	4293      	cmp	r3, r2
 8002516:	d011      	beq.n	800253c <HAL_TIM_Base_Start_IT+0x58>
 8002518:	f44f 6200 	mov.w	r2, #2048	; 0x800
 800251c:	f2c4 0200 	movt	r2, #16384	; 0x4000
 8002520:	4293      	cmp	r3, r2
 8002522:	d00b      	beq.n	800253c <HAL_TIM_Base_Start_IT+0x58>
 8002524:	f44f 6240 	mov.w	r2, #3072	; 0xc00
 8002528:	f2c4 0200 	movt	r2, #16384	; 0x4000
 800252c:	4293      	cmp	r3, r2
 800252e:	d005      	beq.n	800253c <HAL_TIM_Base_Start_IT+0x58>
 8002530:	f44f 4280 	mov.w	r2, #16384	; 0x4000
 8002534:	f2c4 0201 	movt	r2, #16385	; 0x4001
 8002538:	4293      	cmp	r3, r2
 800253a:	d104      	bne.n	8002546 <HAL_TIM_Base_Start_IT+0x62>
 800253c:	689a      	ldr	r2, [r3, #8]
 800253e:	f002 0207 	and.w	r2, r2, #7
 8002542:	2a06      	cmp	r2, #6
 8002544:	d007      	beq.n	8002556 <HAL_TIM_Base_Start_IT+0x72>
 8002546:	681a      	ldr	r2, [r3, #0]
 8002548:	f042 0201 	orr.w	r2, r2, #1
 800254c:	601a      	str	r2, [r3, #0]
 800254e:	2000      	movs	r0, #0
 8002550:	4770      	bx	lr
 8002552:	2001      	movs	r0, #1
 8002554:	4770      	bx	lr
 8002556:	2000      	movs	r0, #0
 8002558:	4770      	bx	lr
 800255a:	bf00      	nop

0800255c <HAL_TIM_ConfigClockSource>:
 800255c:	f890 303c 	ldrb.w	r3, [r0, #60]	; 0x3c
 8002560:	2b01      	cmp	r3, #1
 8002562:	d075      	beq.n	8002650 <HAL_TIM_ConfigClockSource+0xf4>
 8002564:	4602      	mov	r2, r0
 8002566:	b4f0      	push	{r4, r5, r6, r7}
 8002568:	2302      	movs	r3, #2
 800256a:	6814      	ldr	r4, [r2, #0]
 800256c:	f882 303d 	strb.w	r3, [r2, #61]	; 0x3d
 8002570:	2001      	movs	r0, #1
 8002572:	f882 003c 	strb.w	r0, [r2, #60]	; 0x3c
 8002576:	68a5      	ldr	r5, [r4, #8]
 8002578:	680b      	ldr	r3, [r1, #0]
 800257a:	f425 457f 	bic.w	r5, r5, #65280	; 0xff00
 800257e:	f025 0577 	bic.w	r5, r5, #119	; 0x77
 8002582:	2b60      	cmp	r3, #96	; 0x60
 8002584:	60a5      	str	r5, [r4, #8]
 8002586:	d065      	beq.n	8002654 <HAL_TIM_ConfigClockSource+0xf8>
 8002588:	d824      	bhi.n	80025d4 <HAL_TIM_ConfigClockSource+0x78>
 800258a:	2b40      	cmp	r3, #64	; 0x40
 800258c:	d07c      	beq.n	8002688 <HAL_TIM_ConfigClockSource+0x12c>
 800258e:	d94b      	bls.n	8002628 <HAL_TIM_ConfigClockSource+0xcc>
 8002590:	2b50      	cmp	r3, #80	; 0x50
 8002592:	d117      	bne.n	80025c4 <HAL_TIM_ConfigClockSource+0x68>
 8002594:	6a25      	ldr	r5, [r4, #32]
 8002596:	6a26      	ldr	r6, [r4, #32]
 8002598:	6848      	ldr	r0, [r1, #4]
 800259a:	68cf      	ldr	r7, [r1, #12]
 800259c:	f026 0601 	bic.w	r6, r6, #1
 80025a0:	6226      	str	r6, [r4, #32]
 80025a2:	69a3      	ldr	r3, [r4, #24]
 80025a4:	f025 010a 	bic.w	r1, r5, #10
 80025a8:	f023 03f0 	bic.w	r3, r3, #240	; 0xf0
 80025ac:	4301      	orrs	r1, r0
 80025ae:	ea43 1307 	orr.w	r3, r3, r7, lsl #4
 80025b2:	61a3      	str	r3, [r4, #24]
 80025b4:	6221      	str	r1, [r4, #32]
 80025b6:	68a3      	ldr	r3, [r4, #8]
 80025b8:	f023 0370 	bic.w	r3, r3, #112	; 0x70
 80025bc:	f043 0357 	orr.w	r3, r3, #87	; 0x57
 80025c0:	60a3      	str	r3, [r4, #8]
 80025c2:	2000      	movs	r0, #0
 80025c4:	2101      	movs	r1, #1
 80025c6:	2300      	movs	r3, #0
 80025c8:	f882 103d 	strb.w	r1, [r2, #61]	; 0x3d
 80025cc:	f882 303c 	strb.w	r3, [r2, #60]	; 0x3c
 80025d0:	bcf0      	pop	{r4, r5, r6, r7}
 80025d2:	4770      	bx	lr
 80025d4:	f5b3 5f80 	cmp.w	r3, #4096	; 0x1000
 80025d8:	d038      	beq.n	800264c <HAL_TIM_ConfigClockSource+0xf0>
 80025da:	f5b3 5f00 	cmp.w	r3, #8192	; 0x2000
 80025de:	d110      	bne.n	8002602 <HAL_TIM_ConfigClockSource+0xa6>
 80025e0:	e9d1 5301 	ldrd	r5, r3, [r1, #4]
 80025e4:	68c8      	ldr	r0, [r1, #12]
 80025e6:	68a1      	ldr	r1, [r4, #8]
 80025e8:	432b      	orrs	r3, r5
 80025ea:	ea43 2300 	orr.w	r3, r3, r0, lsl #8
 80025ee:	f421 417f 	bic.w	r1, r1, #65280	; 0xff00
 80025f2:	430b      	orrs	r3, r1
 80025f4:	60a3      	str	r3, [r4, #8]
 80025f6:	68a3      	ldr	r3, [r4, #8]
 80025f8:	f443 4380 	orr.w	r3, r3, #16384	; 0x4000
 80025fc:	60a3      	str	r3, [r4, #8]
 80025fe:	2000      	movs	r0, #0
 8002600:	e7e0      	b.n	80025c4 <HAL_TIM_ConfigClockSource+0x68>
 8002602:	2b70      	cmp	r3, #112	; 0x70
 8002604:	d1de      	bne.n	80025c4 <HAL_TIM_ConfigClockSource+0x68>
 8002606:	e9d1 5301 	ldrd	r5, r3, [r1, #4]
 800260a:	68c8      	ldr	r0, [r1, #12]
 800260c:	68a1      	ldr	r1, [r4, #8]
 800260e:	432b      	orrs	r3, r5
 8002610:	ea43 2300 	orr.w	r3, r3, r0, lsl #8
 8002614:	f421 417f 	bic.w	r1, r1, #65280	; 0xff00
 8002618:	430b      	orrs	r3, r1
 800261a:	60a3      	str	r3, [r4, #8]
 800261c:	68a3      	ldr	r3, [r4, #8]
 800261e:	f043 0377 	orr.w	r3, r3, #119	; 0x77
 8002622:	60a3      	str	r3, [r4, #8]
 8002624:	2000      	movs	r0, #0
 8002626:	e7cd      	b.n	80025c4 <HAL_TIM_ConfigClockSource+0x68>
 8002628:	2b20      	cmp	r3, #32
 800262a:	d002      	beq.n	8002632 <HAL_TIM_ConfigClockSource+0xd6>
 800262c:	d90a      	bls.n	8002644 <HAL_TIM_ConfigClockSource+0xe8>
 800262e:	2b30      	cmp	r3, #48	; 0x30
 8002630:	d1c8      	bne.n	80025c4 <HAL_TIM_ConfigClockSource+0x68>
 8002632:	68a1      	ldr	r1, [r4, #8]
 8002634:	f021 0170 	bic.w	r1, r1, #112	; 0x70
 8002638:	430b      	orrs	r3, r1
 800263a:	f043 0307 	orr.w	r3, r3, #7
 800263e:	60a3      	str	r3, [r4, #8]
 8002640:	2000      	movs	r0, #0
 8002642:	e7bf      	b.n	80025c4 <HAL_TIM_ConfigClockSource+0x68>
 8002644:	f033 0110 	bics.w	r1, r3, #16
 8002648:	d1bc      	bne.n	80025c4 <HAL_TIM_ConfigClockSource+0x68>
 800264a:	e7f2      	b.n	8002632 <HAL_TIM_ConfigClockSource+0xd6>
 800264c:	2000      	movs	r0, #0
 800264e:	e7b9      	b.n	80025c4 <HAL_TIM_ConfigClockSource+0x68>
 8002650:	2002      	movs	r0, #2
 8002652:	4770      	bx	lr
 8002654:	6a20      	ldr	r0, [r4, #32]
 8002656:	684d      	ldr	r5, [r1, #4]
 8002658:	68ce      	ldr	r6, [r1, #12]
 800265a:	f020 0010 	bic.w	r0, r0, #16
 800265e:	6220      	str	r0, [r4, #32]
 8002660:	69a1      	ldr	r1, [r4, #24]
 8002662:	6a23      	ldr	r3, [r4, #32]
 8002664:	f421 4170 	bic.w	r1, r1, #61440	; 0xf000
 8002668:	f023 03a0 	bic.w	r3, r3, #160	; 0xa0
 800266c:	ea43 1305 	orr.w	r3, r3, r5, lsl #4
 8002670:	ea41 3106 	orr.w	r1, r1, r6, lsl #12
 8002674:	61a1      	str	r1, [r4, #24]
 8002676:	6223      	str	r3, [r4, #32]
 8002678:	68a3      	ldr	r3, [r4, #8]
 800267a:	f023 0370 	bic.w	r3, r3, #112	; 0x70
 800267e:	f043 0367 	orr.w	r3, r3, #103	; 0x67
 8002682:	60a3      	str	r3, [r4, #8]
 8002684:	2000      	movs	r0, #0
 8002686:	e79d      	b.n	80025c4 <HAL_TIM_ConfigClockSource+0x68>
 8002688:	6a25      	ldr	r5, [r4, #32]
 800268a:	6a26      	ldr	r6, [r4, #32]
 800268c:	6848      	ldr	r0, [r1, #4]
 800268e:	68cf      	ldr	r7, [r1, #12]
 8002690:	f026 0601 	bic.w	r6, r6, #1
 8002694:	6226      	str	r6, [r4, #32]
 8002696:	69a3      	ldr	r3, [r4, #24]
 8002698:	f025 010a 	bic.w	r1, r5, #10
 800269c:	f023 03f0 	bic.w	r3, r3, #240	; 0xf0
 80026a0:	4301      	orrs	r1, r0
 80026a2:	ea43 1307 	orr.w	r3, r3, r7, lsl #4
 80026a6:	61a3      	str	r3, [r4, #24]
 80026a8:	6221      	str	r1, [r4, #32]
 80026aa:	68a3      	ldr	r3, [r4, #8]
 80026ac:	f023 0370 	bic.w	r3, r3, #112	; 0x70
 80026b0:	f043 0347 	orr.w	r3, r3, #71	; 0x47
 80026b4:	60a3      	str	r3, [r4, #8]
 80026b6:	2000      	movs	r0, #0
 80026b8:	e784      	b.n	80025c4 <HAL_TIM_ConfigClockSource+0x68>
 80026ba:	bf00      	nop

080026bc <HAL_TIM_OC_DelayElapsedCallback>:
 80026bc:	4770      	bx	lr
 80026be:	bf00      	nop

080026c0 <HAL_TIM_IC_CaptureCallback>:
 80026c0:	4770      	bx	lr
 80026c2:	bf00      	nop

080026c4 <HAL_TIM_PWM_PulseFinishedCallback>:
 80026c4:	4770      	bx	lr
 80026c6:	bf00      	nop

080026c8 <HAL_TIM_TriggerCallback>:
 80026c8:	4770      	bx	lr
 80026ca:	bf00      	nop

080026cc <HAL_TIM_IRQHandler>:
 80026cc:	6803      	ldr	r3, [r0, #0]
 80026ce:	691a      	ldr	r2, [r3, #16]
 80026d0:	0791      	lsls	r1, r2, #30
 80026d2:	b510      	push	{r4, lr}
 80026d4:	4604      	mov	r4, r0
 80026d6:	d502      	bpl.n	80026de <HAL_TIM_IRQHandler+0x12>
 80026d8:	68da      	ldr	r2, [r3, #12]
 80026da:	0792      	lsls	r2, r2, #30
 80026dc:	d45f      	bmi.n	800279e <HAL_TIM_IRQHandler+0xd2>
 80026de:	691a      	ldr	r2, [r3, #16]
 80026e0:	0750      	lsls	r0, r2, #29
 80026e2:	d502      	bpl.n	80026ea <HAL_TIM_IRQHandler+0x1e>
 80026e4:	68da      	ldr	r2, [r3, #12]
 80026e6:	0751      	lsls	r1, r2, #29
 80026e8:	d446      	bmi.n	8002778 <HAL_TIM_IRQHandler+0xac>
 80026ea:	691a      	ldr	r2, [r3, #16]
 80026ec:	0712      	lsls	r2, r2, #28
 80026ee:	d502      	bpl.n	80026f6 <HAL_TIM_IRQHandler+0x2a>
 80026f0:	68da      	ldr	r2, [r3, #12]
 80026f2:	0710      	lsls	r0, r2, #28
 80026f4:	d42e      	bmi.n	8002754 <HAL_TIM_IRQHandler+0x88>
 80026f6:	691a      	ldr	r2, [r3, #16]
 80026f8:	06d2      	lsls	r2, r2, #27
 80026fa:	d502      	bpl.n	8002702 <HAL_TIM_IRQHandler+0x36>
 80026fc:	68da      	ldr	r2, [r3, #12]
 80026fe:	06d0      	lsls	r0, r2, #27
 8002700:	d418      	bmi.n	8002734 <HAL_TIM_IRQHandler+0x68>
 8002702:	691a      	ldr	r2, [r3, #16]
 8002704:	07d1      	lsls	r1, r2, #31
 8002706:	d502      	bpl.n	800270e <HAL_TIM_IRQHandler+0x42>
 8002708:	68da      	ldr	r2, [r3, #12]
 800270a:	07d2      	lsls	r2, r2, #31
 800270c:	d45d      	bmi.n	80027ca <HAL_TIM_IRQHandler+0xfe>
 800270e:	691a      	ldr	r2, [r3, #16]
 8002710:	0610      	lsls	r0, r2, #24
 8002712:	d502      	bpl.n	800271a <HAL_TIM_IRQHandler+0x4e>
 8002714:	68da      	ldr	r2, [r3, #12]
 8002716:	0611      	lsls	r1, r2, #24
 8002718:	d45f      	bmi.n	80027da <HAL_TIM_IRQHandler+0x10e>
 800271a:	691a      	ldr	r2, [r3, #16]
 800271c:	0652      	lsls	r2, r2, #25
 800271e:	d502      	bpl.n	8002726 <HAL_TIM_IRQHandler+0x5a>
 8002720:	68da      	ldr	r2, [r3, #12]
 8002722:	0650      	lsls	r0, r2, #25
 8002724:	d461      	bmi.n	80027ea <HAL_TIM_IRQHandler+0x11e>
 8002726:	691a      	ldr	r2, [r3, #16]
 8002728:	0691      	lsls	r1, r2, #26
 800272a:	d502      	bpl.n	8002732 <HAL_TIM_IRQHandler+0x66>
 800272c:	68da      	ldr	r2, [r3, #12]
 800272e:	0692      	lsls	r2, r2, #26
 8002730:	d443      	bmi.n	80027ba <HAL_TIM_IRQHandler+0xee>
 8002732:	bd10      	pop	{r4, pc}
 8002734:	f06f 0110 	mvn.w	r1, #16
 8002738:	2208      	movs	r2, #8
 800273a:	6119      	str	r1, [r3, #16]
 800273c:	7722      	strb	r2, [r4, #28]
 800273e:	69db      	ldr	r3, [r3, #28]
 8002740:	f413 7f40 	tst.w	r3, #768	; 0x300
 8002744:	4620      	mov	r0, r4
 8002746:	d064      	beq.n	8002812 <HAL_TIM_IRQHandler+0x146>
 8002748:	f7ff ffba 	bl	80026c0 <HAL_TIM_IC_CaptureCallback>
 800274c:	2200      	movs	r2, #0
 800274e:	6823      	ldr	r3, [r4, #0]
 8002750:	7722      	strb	r2, [r4, #28]
 8002752:	e7d6      	b.n	8002702 <HAL_TIM_IRQHandler+0x36>
 8002754:	f06f 0108 	mvn.w	r1, #8
 8002758:	2204      	movs	r2, #4
 800275a:	6119      	str	r1, [r3, #16]
 800275c:	7722      	strb	r2, [r4, #28]
 800275e:	69db      	ldr	r3, [r3, #28]
 8002760:	0799      	lsls	r1, r3, #30
 8002762:	4620      	mov	r0, r4
 8002764:	d152      	bne.n	800280c <HAL_TIM_IRQHandler+0x140>
 8002766:	f7ff ffa9 	bl	80026bc <HAL_TIM_OC_DelayElapsedCallback>
 800276a:	4620      	mov	r0, r4
 800276c:	f7ff ffaa 	bl	80026c4 <HAL_TIM_PWM_PulseFinishedCallback>
 8002770:	2200      	movs	r2, #0
 8002772:	6823      	ldr	r3, [r4, #0]
 8002774:	7722      	strb	r2, [r4, #28]
 8002776:	e7be      	b.n	80026f6 <HAL_TIM_IRQHandler+0x2a>
 8002778:	f06f 0104 	mvn.w	r1, #4
 800277c:	2202      	movs	r2, #2
 800277e:	6119      	str	r1, [r3, #16]
 8002780:	7722      	strb	r2, [r4, #28]
 8002782:	699b      	ldr	r3, [r3, #24]
 8002784:	f413 7f40 	tst.w	r3, #768	; 0x300
 8002788:	4620      	mov	r0, r4
 800278a:	d13c      	bne.n	8002806 <HAL_TIM_IRQHandler+0x13a>
 800278c:	f7ff ff96 	bl	80026bc <HAL_TIM_OC_DelayElapsedCallback>
 8002790:	4620      	mov	r0, r4
 8002792:	f7ff ff97 	bl	80026c4 <HAL_TIM_PWM_PulseFinishedCallback>
 8002796:	2200      	movs	r2, #0
 8002798:	6823      	ldr	r3, [r4, #0]
 800279a:	7722      	strb	r2, [r4, #28]
 800279c:	e7a5      	b.n	80026ea <HAL_TIM_IRQHandler+0x1e>
 800279e:	f06f 0102 	mvn.w	r1, #2
 80027a2:	2201      	movs	r2, #1
 80027a4:	6119      	str	r1, [r3, #16]
 80027a6:	7702      	strb	r2, [r0, #28]
 80027a8:	699b      	ldr	r3, [r3, #24]
 80027aa:	079b      	lsls	r3, r3, #30
 80027ac:	d025      	beq.n	80027fa <HAL_TIM_IRQHandler+0x12e>
 80027ae:	f7ff ff87 	bl	80026c0 <HAL_TIM_IC_CaptureCallback>
 80027b2:	2200      	movs	r2, #0
 80027b4:	6823      	ldr	r3, [r4, #0]
 80027b6:	7722      	strb	r2, [r4, #28]
 80027b8:	e791      	b.n	80026de <HAL_TIM_IRQHandler+0x12>
 80027ba:	f06f 0220 	mvn.w	r2, #32
 80027be:	4620      	mov	r0, r4
 80027c0:	611a      	str	r2, [r3, #16]
 80027c2:	e8bd 4010 	ldmia.w	sp!, {r4, lr}
 80027c6:	f000 b86b 	b.w	80028a0 <HAL_TIMEx_CommutCallback>
 80027ca:	f06f 0201 	mvn.w	r2, #1
 80027ce:	611a      	str	r2, [r3, #16]
 80027d0:	4620      	mov	r0, r4
 80027d2:	f7fd ffcd 	bl	8000770 <HAL_TIM_PeriodElapsedCallback>
 80027d6:	6823      	ldr	r3, [r4, #0]
 80027d8:	e799      	b.n	800270e <HAL_TIM_IRQHandler+0x42>
 80027da:	f06f 0280 	mvn.w	r2, #128	; 0x80
 80027de:	611a      	str	r2, [r3, #16]
 80027e0:	4620      	mov	r0, r4
 80027e2:	f000 f85f 	bl	80028a4 <HAL_TIMEx_BreakCallback>
 80027e6:	6823      	ldr	r3, [r4, #0]
 80027e8:	e797      	b.n	800271a <HAL_TIM_IRQHandler+0x4e>
 80027ea:	f06f 0240 	mvn.w	r2, #64	; 0x40
 80027ee:	611a      	str	r2, [r3, #16]
 80027f0:	4620      	mov	r0, r4
 80027f2:	f7ff ff69 	bl	80026c8 <HAL_TIM_TriggerCallback>
 80027f6:	6823      	ldr	r3, [r4, #0]
 80027f8:	e795      	b.n	8002726 <HAL_TIM_IRQHandler+0x5a>
 80027fa:	f7ff ff5f 	bl	80026bc <HAL_TIM_OC_DelayElapsedCallback>
 80027fe:	4620      	mov	r0, r4
 8002800:	f7ff ff60 	bl	80026c4 <HAL_TIM_PWM_PulseFinishedCallback>
 8002804:	e7d5      	b.n	80027b2 <HAL_TIM_IRQHandler+0xe6>
 8002806:	f7ff ff5b 	bl	80026c0 <HAL_TIM_IC_CaptureCallback>
 800280a:	e7c4      	b.n	8002796 <HAL_TIM_IRQHandler+0xca>
 800280c:	f7ff ff58 	bl	80026c0 <HAL_TIM_IC_CaptureCallback>
 8002810:	e7ae      	b.n	8002770 <HAL_TIM_IRQHandler+0xa4>
 8002812:	f7ff ff53 	bl	80026bc <HAL_TIM_OC_DelayElapsedCallback>
 8002816:	4620      	mov	r0, r4
 8002818:	f7ff ff54 	bl	80026c4 <HAL_TIM_PWM_PulseFinishedCallback>
 800281c:	e796      	b.n	800274c <HAL_TIM_IRQHandler+0x80>
 800281e:	bf00      	nop

08002820 <HAL_TIMEx_MasterConfigSynchronization>:
 8002820:	f890 303c 	ldrb.w	r3, [r0, #60]	; 0x3c
 8002824:	2b01      	cmp	r3, #1
 8002826:	d039      	beq.n	800289c <HAL_TIMEx_MasterConfigSynchronization+0x7c>
 8002828:	6803      	ldr	r3, [r0, #0]
 800282a:	2202      	movs	r2, #2
 800282c:	b430      	push	{r4, r5}
 800282e:	f880 203d 	strb.w	r2, [r0, #61]	; 0x3d
 8002832:	685a      	ldr	r2, [r3, #4]
 8002834:	680d      	ldr	r5, [r1, #0]
 8002836:	689c      	ldr	r4, [r3, #8]
 8002838:	f022 0270 	bic.w	r2, r2, #112	; 0x70
 800283c:	432a      	orrs	r2, r5
 800283e:	2500      	movs	r5, #0
 8002840:	f2c4 0501 	movt	r5, #16385	; 0x4001
 8002844:	42ab      	cmp	r3, r5
 8002846:	605a      	str	r2, [r3, #4]
 8002848:	d01a      	beq.n	8002880 <HAL_TIMEx_MasterConfigSynchronization+0x60>
 800284a:	f1b3 4f80 	cmp.w	r3, #1073741824	; 0x40000000
 800284e:	d017      	beq.n	8002880 <HAL_TIMEx_MasterConfigSynchronization+0x60>
 8002850:	f44f 6280 	mov.w	r2, #1024	; 0x400
 8002854:	f2c4 0200 	movt	r2, #16384	; 0x4000
 8002858:	4293      	cmp	r3, r2
 800285a:	d011      	beq.n	8002880 <HAL_TIMEx_MasterConfigSynchronization+0x60>
 800285c:	f44f 6200 	mov.w	r2, #2048	; 0x800
 8002860:	f2c4 0200 	movt	r2, #16384	; 0x4000
 8002864:	4293      	cmp	r3, r2
 8002866:	d00b      	beq.n	8002880 <HAL_TIMEx_MasterConfigSynchronization+0x60>
 8002868:	f44f 6240 	mov.w	r2, #3072	; 0xc00
 800286c:	f2c4 0200 	movt	r2, #16384	; 0x4000
 8002870:	4293      	cmp	r3, r2
 8002872:	d005      	beq.n	8002880 <HAL_TIMEx_MasterConfigSynchronization+0x60>
 8002874:	f44f 4280 	mov.w	r2, #16384	; 0x4000
 8002878:	f2c4 0201 	movt	r2, #16385	; 0x4001
 800287c:	4293      	cmp	r3, r2
 800287e:	d104      	bne.n	800288a <HAL_TIMEx_MasterConfigSynchronization+0x6a>
 8002880:	684a      	ldr	r2, [r1, #4]
 8002882:	f024 0480 	bic.w	r4, r4, #128	; 0x80
 8002886:	4314      	orrs	r4, r2
 8002888:	609c      	str	r4, [r3, #8]
 800288a:	2300      	movs	r3, #0
 800288c:	2201      	movs	r2, #1
 800288e:	f880 203d 	strb.w	r2, [r0, #61]	; 0x3d
 8002892:	f880 303c 	strb.w	r3, [r0, #60]	; 0x3c
 8002896:	bc30      	pop	{r4, r5}
 8002898:	4618      	mov	r0, r3
 800289a:	4770      	bx	lr
 800289c:	2002      	movs	r0, #2
 800289e:	4770      	bx	lr

080028a0 <HAL_TIMEx_CommutCallback>:
 80028a0:	4770      	bx	lr
 80028a2:	bf00      	nop

080028a4 <HAL_TIMEx_BreakCallback>:
 80028a4:	4770      	bx	lr
 80028a6:	bf00      	nop

080028a8 <USB_CoreInit>:
 80028a8:	b084      	sub	sp, #16
 80028aa:	b470      	push	{r4, r5, r6}
 80028ac:	b083      	sub	sp, #12
 80028ae:	ad07      	add	r5, sp, #28
 80028b0:	9e0c      	ldr	r6, [sp, #48]	; 0x30
 80028b2:	2e01      	cmp	r6, #1
 80028b4:	e885 000e 	stmia.w	r5, {r1, r2, r3}
 80028b8:	4604      	mov	r4, r0
 80028ba:	d12f      	bne.n	800291c <USB_CoreInit+0x74>
 80028bc:	6b83      	ldr	r3, [r0, #56]	; 0x38
 80028be:	9a13      	ldr	r2, [sp, #76]	; 0x4c
 80028c0:	f423 3380 	bic.w	r3, r3, #65536	; 0x10000
 80028c4:	6383      	str	r3, [r0, #56]	; 0x38
 80028c6:	68c3      	ldr	r3, [r0, #12]
 80028c8:	f423 0384 	bic.w	r3, r3, #4325376	; 0x420000
 80028cc:	f023 0340 	bic.w	r3, r3, #64	; 0x40
 80028d0:	60c3      	str	r3, [r0, #12]
 80028d2:	68c3      	ldr	r3, [r0, #12]
 80028d4:	2a01      	cmp	r2, #1
 80028d6:	f423 1340 	bic.w	r3, r3, #3145728	; 0x300000
 80028da:	60c3      	str	r3, [r0, #12]
 80028dc:	d068      	beq.n	80029b0 <USB_CoreInit+0x108>
 80028de:	2300      	movs	r3, #0
 80028e0:	f44f 6254 	mov.w	r2, #3392	; 0xd40
 80028e4:	9300      	str	r3, [sp, #0]
 80028e6:	f2c0 0203 	movt	r2, #3
 80028ea:	e002      	b.n	80028f2 <USB_CoreInit+0x4a>
 80028ec:	6923      	ldr	r3, [r4, #16]
 80028ee:	2b00      	cmp	r3, #0
 80028f0:	db2f      	blt.n	8002952 <USB_CoreInit+0xaa>
 80028f2:	9b00      	ldr	r3, [sp, #0]
 80028f4:	3301      	adds	r3, #1
 80028f6:	4293      	cmp	r3, r2
 80028f8:	9300      	str	r3, [sp, #0]
 80028fa:	d9f7      	bls.n	80028ec <USB_CoreInit+0x44>
 80028fc:	2003      	movs	r0, #3
 80028fe:	9b0a      	ldr	r3, [sp, #40]	; 0x28
 8002900:	2b01      	cmp	r3, #1
 8002902:	d107      	bne.n	8002914 <USB_CoreInit+0x6c>
 8002904:	68a3      	ldr	r3, [r4, #8]
 8002906:	f043 0306 	orr.w	r3, r3, #6
 800290a:	60a3      	str	r3, [r4, #8]
 800290c:	68a3      	ldr	r3, [r4, #8]
 800290e:	f043 0320 	orr.w	r3, r3, #32
 8002912:	60a3      	str	r3, [r4, #8]
 8002914:	b003      	add	sp, #12
 8002916:	bc70      	pop	{r4, r5, r6}
 8002918:	b004      	add	sp, #16
 800291a:	4770      	bx	lr
 800291c:	68c3      	ldr	r3, [r0, #12]
 800291e:	2100      	movs	r1, #0
 8002920:	f043 0340 	orr.w	r3, r3, #64	; 0x40
 8002924:	f44f 6254 	mov.w	r2, #3392	; 0xd40
 8002928:	60c3      	str	r3, [r0, #12]
 800292a:	f2c0 0203 	movt	r2, #3
 800292e:	9101      	str	r1, [sp, #4]
 8002930:	e002      	b.n	8002938 <USB_CoreInit+0x90>
 8002932:	6923      	ldr	r3, [r4, #16]
 8002934:	2b00      	cmp	r3, #0
 8002936:	db26      	blt.n	8002986 <USB_CoreInit+0xde>
 8002938:	9b01      	ldr	r3, [sp, #4]
 800293a:	3301      	adds	r3, #1
 800293c:	4293      	cmp	r3, r2
 800293e:	9301      	str	r3, [sp, #4]
 8002940:	d9f7      	bls.n	8002932 <USB_CoreInit+0x8a>
 8002942:	2003      	movs	r0, #3
 8002944:	9b10      	ldr	r3, [sp, #64]	; 0x40
 8002946:	b9cb      	cbnz	r3, 800297c <USB_CoreInit+0xd4>
 8002948:	6ba3      	ldr	r3, [r4, #56]	; 0x38
 800294a:	f443 3380 	orr.w	r3, r3, #65536	; 0x10000
 800294e:	63a3      	str	r3, [r4, #56]	; 0x38
 8002950:	e7d5      	b.n	80028fe <USB_CoreInit+0x56>
 8002952:	2300      	movs	r3, #0
 8002954:	9300      	str	r3, [sp, #0]
 8002956:	6923      	ldr	r3, [r4, #16]
 8002958:	f44f 6254 	mov.w	r2, #3392	; 0xd40
 800295c:	f043 0301 	orr.w	r3, r3, #1
 8002960:	6123      	str	r3, [r4, #16]
 8002962:	f2c0 0203 	movt	r2, #3
 8002966:	e003      	b.n	8002970 <USB_CoreInit+0xc8>
 8002968:	6920      	ldr	r0, [r4, #16]
 800296a:	f010 0001 	ands.w	r0, r0, #1
 800296e:	d0c6      	beq.n	80028fe <USB_CoreInit+0x56>
 8002970:	9b00      	ldr	r3, [sp, #0]
 8002972:	3301      	adds	r3, #1
 8002974:	4293      	cmp	r3, r2
 8002976:	9300      	str	r3, [sp, #0]
 8002978:	d9f6      	bls.n	8002968 <USB_CoreInit+0xc0>
 800297a:	e7bf      	b.n	80028fc <USB_CoreInit+0x54>
 800297c:	6ba3      	ldr	r3, [r4, #56]	; 0x38
 800297e:	f423 3380 	bic.w	r3, r3, #65536	; 0x10000
 8002982:	63a3      	str	r3, [r4, #56]	; 0x38
 8002984:	e7bb      	b.n	80028fe <USB_CoreInit+0x56>
 8002986:	2300      	movs	r3, #0
 8002988:	9301      	str	r3, [sp, #4]
 800298a:	6923      	ldr	r3, [r4, #16]
 800298c:	f44f 6254 	mov.w	r2, #3392	; 0xd40
 8002990:	f043 0301 	orr.w	r3, r3, #1
 8002994:	6123      	str	r3, [r4, #16]
 8002996:	f2c0 0203 	movt	r2, #3
 800299a:	e003      	b.n	80029a4 <USB_CoreInit+0xfc>
 800299c:	6920      	ldr	r0, [r4, #16]
 800299e:	f010 0001 	ands.w	r0, r0, #1
 80029a2:	d0cf      	beq.n	8002944 <USB_CoreInit+0x9c>
 80029a4:	9b01      	ldr	r3, [sp, #4]
 80029a6:	3301      	adds	r3, #1
 80029a8:	4293      	cmp	r3, r2
 80029aa:	9301      	str	r3, [sp, #4]
 80029ac:	d9f6      	bls.n	800299c <USB_CoreInit+0xf4>
 80029ae:	e7c8      	b.n	8002942 <USB_CoreInit+0x9a>
 80029b0:	68c3      	ldr	r3, [r0, #12]
 80029b2:	f443 1380 	orr.w	r3, r3, #1048576	; 0x100000
 80029b6:	60c3      	str	r3, [r0, #12]
 80029b8:	e791      	b.n	80028de <USB_CoreInit+0x36>
 80029ba:	bf00      	nop

080029bc <USB_EnableGlobalInt>:
 80029bc:	4603      	mov	r3, r0
 80029be:	2000      	movs	r0, #0
 80029c0:	689a      	ldr	r2, [r3, #8]
 80029c2:	f042 0201 	orr.w	r2, r2, #1
 80029c6:	609a      	str	r2, [r3, #8]
 80029c8:	4770      	bx	lr
 80029ca:	bf00      	nop

080029cc <USB_DisableGlobalInt>:
 80029cc:	4603      	mov	r3, r0
 80029ce:	2000      	movs	r0, #0
 80029d0:	689a      	ldr	r2, [r3, #8]
 80029d2:	f022 0201 	bic.w	r2, r2, #1
 80029d6:	609a      	str	r2, [r3, #8]
 80029d8:	4770      	bx	lr
 80029da:	bf00      	nop

080029dc <USB_SetCurrentMode>:
 80029dc:	b538      	push	{r3, r4, r5, lr}
 80029de:	68c3      	ldr	r3, [r0, #12]
 80029e0:	2901      	cmp	r1, #1
 80029e2:	f023 43c0 	bic.w	r3, r3, #1610612736	; 0x60000000
 80029e6:	4605      	mov	r5, r0
 80029e8:	60c3      	str	r3, [r0, #12]
 80029ea:	d018      	beq.n	8002a1e <USB_SetCurrentMode+0x42>
 80029ec:	b9a9      	cbnz	r1, 8002a1a <USB_SetCurrentMode+0x3e>
 80029ee:	68c3      	ldr	r3, [r0, #12]
 80029f0:	f043 4380 	orr.w	r3, r3, #1073741824	; 0x40000000
 80029f4:	460c      	mov	r4, r1
 80029f6:	60c3      	str	r3, [r0, #12]
 80029f8:	e001      	b.n	80029fe <USB_SetCurrentMode+0x22>
 80029fa:	2c32      	cmp	r4, #50	; 0x32
 80029fc:	d00d      	beq.n	8002a1a <USB_SetCurrentMode+0x3e>
 80029fe:	2001      	movs	r0, #1
 8002a00:	f7fe fad6 	bl	8000fb0 <HAL_Delay>
 8002a04:	696b      	ldr	r3, [r5, #20]
 8002a06:	07db      	lsls	r3, r3, #31
 8002a08:	f104 0401 	add.w	r4, r4, #1
 8002a0c:	d4f5      	bmi.n	80029fa <USB_SetCurrentMode+0x1e>
 8002a0e:	f1a4 0032 	sub.w	r0, r4, #50	; 0x32
 8002a12:	fab0 f080 	clz	r0, r0
 8002a16:	0940      	lsrs	r0, r0, #5
 8002a18:	bd38      	pop	{r3, r4, r5, pc}
 8002a1a:	2001      	movs	r0, #1
 8002a1c:	bd38      	pop	{r3, r4, r5, pc}
 8002a1e:	68c3      	ldr	r3, [r0, #12]
 8002a20:	f043 5300 	orr.w	r3, r3, #536870912	; 0x20000000
 8002a24:	60c3      	str	r3, [r0, #12]
 8002a26:	2400      	movs	r4, #0
 8002a28:	e001      	b.n	8002a2e <USB_SetCurrentMode+0x52>
 8002a2a:	2c32      	cmp	r4, #50	; 0x32
 8002a2c:	d0f5      	beq.n	8002a1a <USB_SetCurrentMode+0x3e>
 8002a2e:	2001      	movs	r0, #1
 8002a30:	f7fe fabe 	bl	8000fb0 <HAL_Delay>
 8002a34:	696b      	ldr	r3, [r5, #20]
 8002a36:	07da      	lsls	r2, r3, #31
 8002a38:	f104 0401 	add.w	r4, r4, #1
 8002a3c:	d5f5      	bpl.n	8002a2a <USB_SetCurrentMode+0x4e>
 8002a3e:	f1a4 0032 	sub.w	r0, r4, #50	; 0x32
 8002a42:	fab0 f080 	clz	r0, r0
 8002a46:	0940      	lsrs	r0, r0, #5
 8002a48:	e7e6      	b.n	8002a18 <USB_SetCurrentMode+0x3c>
 8002a4a:	bf00      	nop

08002a4c <USB_FlushTxFifo>:
 8002a4c:	b082      	sub	sp, #8
 8002a4e:	0189      	lsls	r1, r1, #6
 8002a50:	f041 0120 	orr.w	r1, r1, #32
 8002a54:	2300      	movs	r3, #0
 8002a56:	f44f 6254 	mov.w	r2, #3392	; 0xd40
 8002a5a:	9301      	str	r3, [sp, #4]
 8002a5c:	f2c0 0203 	movt	r2, #3
 8002a60:	6101      	str	r1, [r0, #16]
 8002a62:	e003      	b.n	8002a6c <USB_FlushTxFifo+0x20>
 8002a64:	6903      	ldr	r3, [r0, #16]
 8002a66:	f013 0320 	ands.w	r3, r3, #32
 8002a6a:	d007      	beq.n	8002a7c <USB_FlushTxFifo+0x30>
 8002a6c:	9b01      	ldr	r3, [sp, #4]
 8002a6e:	3301      	adds	r3, #1
 8002a70:	4293      	cmp	r3, r2
 8002a72:	9301      	str	r3, [sp, #4]
 8002a74:	d9f6      	bls.n	8002a64 <USB_FlushTxFifo+0x18>
 8002a76:	2003      	movs	r0, #3
 8002a78:	b002      	add	sp, #8
 8002a7a:	4770      	bx	lr
 8002a7c:	4618      	mov	r0, r3
 8002a7e:	b002      	add	sp, #8
 8002a80:	4770      	bx	lr
 8002a82:	bf00      	nop

08002a84 <USB_FlushRxFifo>:
 8002a84:	b082      	sub	sp, #8
 8002a86:	2100      	movs	r1, #0
 8002a88:	2310      	movs	r3, #16
 8002a8a:	f44f 6254 	mov.w	r2, #3392	; 0xd40
 8002a8e:	9101      	str	r1, [sp, #4]
 8002a90:	f2c0 0203 	movt	r2, #3
 8002a94:	6103      	str	r3, [r0, #16]
 8002a96:	e003      	b.n	8002aa0 <USB_FlushRxFifo+0x1c>
 8002a98:	6903      	ldr	r3, [r0, #16]
 8002a9a:	f013 0310 	ands.w	r3, r3, #16
 8002a9e:	d007      	beq.n	8002ab0 <USB_FlushRxFifo+0x2c>
 8002aa0:	9b01      	ldr	r3, [sp, #4]
 8002aa2:	3301      	adds	r3, #1
 8002aa4:	4293      	cmp	r3, r2
 8002aa6:	9301      	str	r3, [sp, #4]
 8002aa8:	d9f6      	bls.n	8002a98 <USB_FlushRxFifo+0x14>
 8002aaa:	2003      	movs	r0, #3
 8002aac:	b002      	add	sp, #8
 8002aae:	4770      	bx	lr
 8002ab0:	4618      	mov	r0, r3
 8002ab2:	b002      	add	sp, #8
 8002ab4:	4770      	bx	lr
 8002ab6:	bf00      	nop

08002ab8 <USB_ReadPacket>:
 8002ab8:	b4f0      	push	{r4, r5, r6, r7}
 8002aba:	0895      	lsrs	r5, r2, #2
 8002abc:	f002 0703 	and.w	r7, r2, #3
 8002ac0:	d00b      	beq.n	8002ada <USB_ReadPacket+0x22>
 8002ac2:	f500 5680 	add.w	r6, r0, #4096	; 0x1000
 8002ac6:	460a      	mov	r2, r1
 8002ac8:	2300      	movs	r3, #0
 8002aca:	3301      	adds	r3, #1
 8002acc:	6834      	ldr	r4, [r6, #0]
 8002ace:	f842 4b04 	str.w	r4, [r2], #4
 8002ad2:	429d      	cmp	r5, r3
 8002ad4:	d1f9      	bne.n	8002aca <USB_ReadPacket+0x12>
 8002ad6:	eb01 0185 	add.w	r1, r1, r5, lsl #2
 8002ada:	b187      	cbz	r7, 8002afe <USB_ReadPacket+0x46>
 8002adc:	f500 5080 	add.w	r0, r0, #4096	; 0x1000
 8002ae0:	3f01      	subs	r7, #1
 8002ae2:	6803      	ldr	r3, [r0, #0]
 8002ae4:	700b      	strb	r3, [r1, #0]
 8002ae6:	b2bf      	uxth	r7, r7
 8002ae8:	b13f      	cbz	r7, 8002afa <USB_ReadPacket+0x42>
 8002aea:	2f01      	cmp	r7, #1
 8002aec:	ea4f 2213 	mov.w	r2, r3, lsr #8
 8002af0:	bf18      	it	ne
 8002af2:	0c1b      	lsrne	r3, r3, #16
 8002af4:	704a      	strb	r2, [r1, #1]
 8002af6:	bf18      	it	ne
 8002af8:	708b      	strbne	r3, [r1, #2]
 8002afa:	3701      	adds	r7, #1
 8002afc:	4439      	add	r1, r7
 8002afe:	4608      	mov	r0, r1
 8002b00:	bcf0      	pop	{r4, r5, r6, r7}
 8002b02:	4770      	bx	lr

08002b04 <USB_ReadInterrupts>:
 8002b04:	6942      	ldr	r2, [r0, #20]
 8002b06:	6980      	ldr	r0, [r0, #24]
 8002b08:	4010      	ands	r0, r2
 8002b0a:	4770      	bx	lr

08002b0c <USB_GetMode>:
 8002b0c:	6940      	ldr	r0, [r0, #20]
 8002b0e:	f000 0001 	and.w	r0, r0, #1
 8002b12:	4770      	bx	lr

08002b14 <USB_HostInit>:
 8002b14:	b084      	sub	sp, #16
 8002b16:	b430      	push	{r4, r5}
 8002b18:	2400      	movs	r4, #0
 8002b1a:	f8c0 4e00 	str.w	r4, [r0, #3584]	; 0xe00
 8002b1e:	6b84      	ldr	r4, [r0, #56]	; 0x38
 8002b20:	f444 1400 	orr.w	r4, r4, #2097152	; 0x200000
 8002b24:	6384      	str	r4, [r0, #56]	; 0x38
 8002b26:	6b84      	ldr	r4, [r0, #56]	; 0x38
 8002b28:	f424 2400 	bic.w	r4, r4, #524288	; 0x80000
 8002b2c:	6384      	str	r4, [r0, #56]	; 0x38
 8002b2e:	6b84      	ldr	r4, [r0, #56]	; 0x38
 8002b30:	b082      	sub	sp, #8
 8002b32:	ad05      	add	r5, sp, #20
 8002b34:	f424 2480 	bic.w	r4, r4, #262144	; 0x40000
 8002b38:	e885 000e 	stmia.w	r5, {r1, r2, r3}
 8002b3c:	6384      	str	r4, [r0, #56]	; 0x38
 8002b3e:	6bc3      	ldr	r3, [r0, #60]	; 0x3c
 8002b40:	9906      	ldr	r1, [sp, #24]
 8002b42:	05db      	lsls	r3, r3, #23
 8002b44:	d56c      	bpl.n	8002c20 <USB_HostInit+0x10c>
 8002b46:	9b07      	ldr	r3, [sp, #28]
 8002b48:	2b01      	cmp	r3, #1
 8002b4a:	f8d0 3400 	ldr.w	r3, [r0, #1024]	; 0x400
 8002b4e:	d06a      	beq.n	8002c26 <USB_HostInit+0x112>
 8002b50:	f023 0304 	bic.w	r3, r3, #4
 8002b54:	f8c0 3400 	str.w	r3, [r0, #1024]	; 0x400
 8002b58:	2400      	movs	r4, #0
 8002b5a:	f44f 6384 	mov.w	r3, #1056	; 0x420
 8002b5e:	f44f 6254 	mov.w	r2, #3392	; 0xd40
 8002b62:	9401      	str	r4, [sp, #4]
 8002b64:	f2c0 0203 	movt	r2, #3
 8002b68:	6103      	str	r3, [r0, #16]
 8002b6a:	e002      	b.n	8002b72 <USB_HostInit+0x5e>
 8002b6c:	6903      	ldr	r3, [r0, #16]
 8002b6e:	069d      	lsls	r5, r3, #26
 8002b70:	d504      	bpl.n	8002b7c <USB_HostInit+0x68>
 8002b72:	9b01      	ldr	r3, [sp, #4]
 8002b74:	3301      	adds	r3, #1
 8002b76:	4293      	cmp	r3, r2
 8002b78:	9301      	str	r3, [sp, #4]
 8002b7a:	d9f7      	bls.n	8002b6c <USB_HostInit+0x58>
 8002b7c:	2400      	movs	r4, #0
 8002b7e:	2310      	movs	r3, #16
 8002b80:	f44f 6254 	mov.w	r2, #3392	; 0xd40
 8002b84:	9400      	str	r4, [sp, #0]
 8002b86:	f2c0 0203 	movt	r2, #3
 8002b8a:	6103      	str	r3, [r0, #16]
 8002b8c:	e002      	b.n	8002b94 <USB_HostInit+0x80>
 8002b8e:	6903      	ldr	r3, [r0, #16]
 8002b90:	06dc      	lsls	r4, r3, #27
 8002b92:	d504      	bpl.n	8002b9e <USB_HostInit+0x8a>
 8002b94:	9b00      	ldr	r3, [sp, #0]
 8002b96:	3301      	adds	r3, #1
 8002b98:	4293      	cmp	r3, r2
 8002b9a:	9300      	str	r3, [sp, #0]
 8002b9c:	d9f7      	bls.n	8002b8e <USB_HostInit+0x7a>
 8002b9e:	b161      	cbz	r1, 8002bba <USB_HostInit+0xa6>
 8002ba0:	2200      	movs	r2, #0
 8002ba2:	4615      	mov	r5, r2
 8002ba4:	f500 63a0 	add.w	r3, r0, #1280	; 0x500
 8002ba8:	f04f 34ff 	mov.w	r4, #4294967295
 8002bac:	3201      	adds	r2, #1
 8002bae:	428a      	cmp	r2, r1
 8002bb0:	609c      	str	r4, [r3, #8]
 8002bb2:	60dd      	str	r5, [r3, #12]
 8002bb4:	f103 0320 	add.w	r3, r3, #32
 8002bb8:	d1f8      	bne.n	8002bac <USB_HostInit+0x98>
 8002bba:	f04f 33ff 	mov.w	r3, #4294967295
 8002bbe:	2200      	movs	r2, #0
 8002bc0:	6182      	str	r2, [r0, #24]
 8002bc2:	6143      	str	r3, [r0, #20]
 8002bc4:	6bc3      	ldr	r3, [r0, #60]	; 0x3c
 8002bc6:	05db      	lsls	r3, r3, #23
 8002bc8:	d51e      	bpl.n	8002c08 <USB_HostInit+0xf4>
 8002bca:	f44f 7200 	mov.w	r2, #512	; 0x200
 8002bce:	f44f 7340 	mov.w	r3, #768	; 0x300
 8002bd2:	f2c0 1200 	movt	r2, #256	; 0x100
 8002bd6:	f44f 7100 	mov.w	r1, #512	; 0x200
 8002bda:	f2c0 03e0 	movt	r3, #224	; 0xe0
 8002bde:	6241      	str	r1, [r0, #36]	; 0x24
 8002be0:	6282      	str	r2, [r0, #40]	; 0x28
 8002be2:	f8c0 3100 	str.w	r3, [r0, #256]	; 0x100
 8002be6:	9b08      	ldr	r3, [sp, #32]
 8002be8:	b91b      	cbnz	r3, 8002bf2 <USB_HostInit+0xde>
 8002bea:	6983      	ldr	r3, [r0, #24]
 8002bec:	f043 0310 	orr.w	r3, r3, #16
 8002bf0:	6183      	str	r3, [r0, #24]
 8002bf2:	6982      	ldr	r2, [r0, #24]
 8002bf4:	2308      	movs	r3, #8
 8002bf6:	f2ca 3320 	movt	r3, #41760	; 0xa320
 8002bfa:	4313      	orrs	r3, r2
 8002bfc:	6183      	str	r3, [r0, #24]
 8002bfe:	2000      	movs	r0, #0
 8002c00:	b002      	add	sp, #8
 8002c02:	bc30      	pop	{r4, r5}
 8002c04:	b004      	add	sp, #16
 8002c06:	4770      	bx	lr
 8002c08:	2280      	movs	r2, #128	; 0x80
 8002c0a:	23e0      	movs	r3, #224	; 0xe0
 8002c0c:	f2c0 0260 	movt	r2, #96	; 0x60
 8002c10:	2180      	movs	r1, #128	; 0x80
 8002c12:	f2c0 0340 	movt	r3, #64	; 0x40
 8002c16:	6241      	str	r1, [r0, #36]	; 0x24
 8002c18:	6282      	str	r2, [r0, #40]	; 0x28
 8002c1a:	f8c0 3100 	str.w	r3, [r0, #256]	; 0x100
 8002c1e:	e7e2      	b.n	8002be6 <USB_HostInit+0xd2>
 8002c20:	f8d0 3400 	ldr.w	r3, [r0, #1024]	; 0x400
 8002c24:	e794      	b.n	8002b50 <USB_HostInit+0x3c>
 8002c26:	f043 0304 	orr.w	r3, r3, #4
 8002c2a:	f8c0 3400 	str.w	r3, [r0, #1024]	; 0x400
 8002c2e:	e793      	b.n	8002b58 <USB_HostInit+0x44>

08002c30 <USB_InitFSLSPClkSel>:
 8002c30:	f8d0 3400 	ldr.w	r3, [r0, #1024]	; 0x400
 8002c34:	f023 0303 	bic.w	r3, r3, #3
 8002c38:	f8c0 3400 	str.w	r3, [r0, #1024]	; 0x400
 8002c3c:	f8d0 2400 	ldr.w	r2, [r0, #1024]	; 0x400
 8002c40:	f001 0303 	and.w	r3, r1, #3
 8002c44:	4313      	orrs	r3, r2
 8002c46:	2901      	cmp	r1, #1
 8002c48:	f8c0 3400 	str.w	r3, [r0, #1024]	; 0x400
 8002c4c:	f500 6080 	add.w	r0, r0, #1024	; 0x400
 8002c50:	d006      	beq.n	8002c60 <USB_InitFSLSPClkSel+0x30>
 8002c52:	2902      	cmp	r1, #2
 8002c54:	bf04      	itt	eq
 8002c56:	f241 7370 	movweq	r3, #6000	; 0x1770
 8002c5a:	6043      	streq	r3, [r0, #4]
 8002c5c:	2000      	movs	r0, #0
 8002c5e:	4770      	bx	lr
 8002c60:	f64b 3380 	movw	r3, #48000	; 0xbb80
 8002c64:	6043      	str	r3, [r0, #4]
 8002c66:	2000      	movs	r0, #0
 8002c68:	4770      	bx	lr
 8002c6a:	bf00      	nop

08002c6c <USB_ResetPort>:
 8002c6c:	b530      	push	{r4, r5, lr}
 8002c6e:	b083      	sub	sp, #12
 8002c70:	2500      	movs	r5, #0
 8002c72:	9501      	str	r5, [sp, #4]
 8002c74:	f8d0 3440 	ldr.w	r3, [r0, #1088]	; 0x440
 8002c78:	9301      	str	r3, [sp, #4]
 8002c7a:	9b01      	ldr	r3, [sp, #4]
 8002c7c:	f023 032e 	bic.w	r3, r3, #46	; 0x2e
 8002c80:	9301      	str	r3, [sp, #4]
 8002c82:	9b01      	ldr	r3, [sp, #4]
 8002c84:	f443 7380 	orr.w	r3, r3, #256	; 0x100
 8002c88:	4604      	mov	r4, r0
 8002c8a:	f8c0 3440 	str.w	r3, [r0, #1088]	; 0x440
 8002c8e:	2064      	movs	r0, #100	; 0x64
 8002c90:	f7fe f98e 	bl	8000fb0 <HAL_Delay>
 8002c94:	9b01      	ldr	r3, [sp, #4]
 8002c96:	f423 7380 	bic.w	r3, r3, #256	; 0x100
 8002c9a:	f8c4 3440 	str.w	r3, [r4, #1088]	; 0x440
 8002c9e:	200a      	movs	r0, #10
 8002ca0:	f7fe f986 	bl	8000fb0 <HAL_Delay>
 8002ca4:	4628      	mov	r0, r5
 8002ca6:	b003      	add	sp, #12
 8002ca8:	bd30      	pop	{r4, r5, pc}
 8002caa:	bf00      	nop

08002cac <USB_DriveVbus>:
 8002cac:	b082      	sub	sp, #8
 8002cae:	2300      	movs	r3, #0
 8002cb0:	9301      	str	r3, [sp, #4]
 8002cb2:	f8d0 3440 	ldr.w	r3, [r0, #1088]	; 0x440
 8002cb6:	9301      	str	r3, [sp, #4]
 8002cb8:	9b01      	ldr	r3, [sp, #4]
 8002cba:	f023 032e 	bic.w	r3, r3, #46	; 0x2e
 8002cbe:	9301      	str	r3, [sp, #4]
 8002cc0:	9b01      	ldr	r3, [sp, #4]
 8002cc2:	f413 5f80 	tst.w	r3, #4096	; 0x1000
 8002cc6:	9b01      	ldr	r3, [sp, #4]
 8002cc8:	d101      	bne.n	8002cce <USB_DriveVbus+0x22>
 8002cca:	2901      	cmp	r1, #1
 8002ccc:	d00a      	beq.n	8002ce4 <USB_DriveVbus+0x38>
 8002cce:	04db      	lsls	r3, r3, #19
 8002cd0:	d505      	bpl.n	8002cde <USB_DriveVbus+0x32>
 8002cd2:	b921      	cbnz	r1, 8002cde <USB_DriveVbus+0x32>
 8002cd4:	9b01      	ldr	r3, [sp, #4]
 8002cd6:	f423 5380 	bic.w	r3, r3, #4096	; 0x1000
 8002cda:	f8c0 3440 	str.w	r3, [r0, #1088]	; 0x440
 8002cde:	2000      	movs	r0, #0
 8002ce0:	b002      	add	sp, #8
 8002ce2:	4770      	bx	lr
 8002ce4:	f443 5380 	orr.w	r3, r3, #4096	; 0x1000
 8002ce8:	f8c0 3440 	str.w	r3, [r0, #1088]	; 0x440
 8002cec:	9b01      	ldr	r3, [sp, #4]
 8002cee:	2000      	movs	r0, #0
 8002cf0:	b002      	add	sp, #8
 8002cf2:	4770      	bx	lr

08002cf4 <USB_GetHostSpeed>:
 8002cf4:	b082      	sub	sp, #8
 8002cf6:	2300      	movs	r3, #0
 8002cf8:	9301      	str	r3, [sp, #4]
 8002cfa:	f8d0 3440 	ldr.w	r3, [r0, #1088]	; 0x440
 8002cfe:	9301      	str	r3, [sp, #4]
 8002d00:	9801      	ldr	r0, [sp, #4]
 8002d02:	f3c0 4041 	ubfx	r0, r0, #17, #2
 8002d06:	b002      	add	sp, #8
 8002d08:	4770      	bx	lr
 8002d0a:	bf00      	nop

08002d0c <USB_GetCurrentFrame>:
 8002d0c:	f500 6080 	add.w	r0, r0, #1024	; 0x400
 8002d10:	6880      	ldr	r0, [r0, #8]
 8002d12:	b280      	uxth	r0, r0
 8002d14:	4770      	bx	lr
 8002d16:	bf00      	nop

08002d18 <USB_HC_Init>:
 8002d18:	e92d 41f0 	stmdb	sp!, {r4, r5, r6, r7, r8, lr}
 8002d1c:	b082      	sub	sp, #8
 8002d1e:	eb00 1541 	add.w	r5, r0, r1, lsl #5
 8002d22:	f505 66a0 	add.w	r6, r5, #1280	; 0x500
 8002d26:	f89d 4024 	ldrb.w	r4, [sp, #36]	; 0x24
 8002d2a:	f89d e020 	ldrb.w	lr, [sp, #32]
 8002d2e:	f8bd c028 	ldrh.w	ip, [sp, #40]	; 0x28
 8002d32:	f04f 37ff 	mov.w	r7, #4294967295
 8002d36:	60b7      	str	r7, [r6, #8]
 8002d38:	2c03      	cmp	r4, #3
 8002d3a:	d873      	bhi.n	8002e24 <USB_HC_Init+0x10c>
 8002d3c:	e8df f004 	tbb	[pc, r4]
 8002d40:	4d026802 	.word	0x4d026802
 8002d44:	f240 479d 	movw	r7, #1181	; 0x49d
 8002d48:	60f7      	str	r7, [r6, #12]
 8002d4a:	0617      	lsls	r7, r2, #24
 8002d4c:	d44a      	bmi.n	8002de4 <USB_HC_Init+0xcc>
 8002d4e:	6bc7      	ldr	r7, [r0, #60]	; 0x3c
 8002d50:	05ff      	lsls	r7, r7, #23
 8002d52:	d503      	bpl.n	8002d5c <USB_HC_Init+0x44>
 8002d54:	68f7      	ldr	r7, [r6, #12]
 8002d56:	f047 0760 	orr.w	r7, r7, #96	; 0x60
 8002d5a:	60f7      	str	r7, [r6, #12]
 8002d5c:	f8d0 8418 	ldr.w	r8, [r0, #1048]	; 0x418
 8002d60:	2601      	movs	r6, #1
 8002d62:	f001 010f 	and.w	r1, r1, #15
 8002d66:	fa06 f101 	lsl.w	r1, r6, r1
 8002d6a:	ea41 0108 	orr.w	r1, r1, r8
 8002d6e:	f8c0 1418 	str.w	r1, [r0, #1048]	; 0x418
 8002d72:	6981      	ldr	r1, [r0, #24]
 8002d74:	2600      	movs	r6, #0
 8002d76:	f041 7100 	orr.w	r1, r1, #33554432	; 0x2000000
 8002d7a:	6181      	str	r1, [r0, #24]
 8002d7c:	4637      	mov	r7, r6
 8002d7e:	2100      	movs	r1, #0
 8002d80:	9101      	str	r1, [sp, #4]
 8002d82:	f8d0 0440 	ldr.w	r0, [r0, #1088]	; 0x440
 8002d86:	9001      	str	r0, [sp, #4]
 8002d88:	f1be 0f02 	cmp.w	lr, #2
 8002d8c:	9801      	ldr	r0, [sp, #4]
 8002d8e:	d105      	bne.n	8002d9c <USB_HC_Init+0x84>
 8002d90:	f3c0 4041 	ubfx	r0, r0, #17, #2
 8002d94:	2802      	cmp	r0, #2
 8002d96:	bf18      	it	ne
 8002d98:	f44f 3100 	movne.w	r1, #131072	; 0x20000
 8002d9c:	059b      	lsls	r3, r3, #22
 8002d9e:	02d2      	lsls	r2, r2, #11
 8002da0:	f003 53fe 	and.w	r3, r3, #532676608	; 0x1fc00000
 8002da4:	f3cc 0c0a 	ubfx	ip, ip, #0, #11
 8002da8:	f402 40f0 	and.w	r0, r2, #30720	; 0x7800
 8002dac:	ea43 030c 	orr.w	r3, r3, ip
 8002db0:	04a2      	lsls	r2, r4, #18
 8002db2:	4303      	orrs	r3, r0
 8002db4:	f402 2240 	and.w	r2, r2, #786432	; 0xc0000
 8002db8:	4313      	orrs	r3, r2
 8002dba:	433b      	orrs	r3, r7
 8002dbc:	430b      	orrs	r3, r1
 8002dbe:	2c03      	cmp	r4, #3
 8002dc0:	f8c5 3500 	str.w	r3, [r5, #1280]	; 0x500
 8002dc4:	d105      	bne.n	8002dd2 <USB_HC_Init+0xba>
 8002dc6:	f8d5 3500 	ldr.w	r3, [r5, #1280]	; 0x500
 8002dca:	f043 5300 	orr.w	r3, r3, #536870912	; 0x20000000
 8002dce:	f8c5 3500 	str.w	r3, [r5, #1280]	; 0x500
 8002dd2:	4630      	mov	r0, r6
 8002dd4:	b002      	add	sp, #8
 8002dd6:	e8bd 81f0 	ldmia.w	sp!, {r4, r5, r6, r7, r8, pc}
 8002dda:	f240 679d 	movw	r7, #1693	; 0x69d
 8002dde:	60f7      	str	r7, [r6, #12]
 8002de0:	0617      	lsls	r7, r2, #24
 8002de2:	d5bb      	bpl.n	8002d5c <USB_HC_Init+0x44>
 8002de4:	68f7      	ldr	r7, [r6, #12]
 8002de6:	f447 7780 	orr.w	r7, r7, #256	; 0x100
 8002dea:	60f7      	str	r7, [r6, #12]
 8002dec:	f8d0 7418 	ldr.w	r7, [r0, #1048]	; 0x418
 8002df0:	f001 080f 	and.w	r8, r1, #15
 8002df4:	2101      	movs	r1, #1
 8002df6:	fa01 f108 	lsl.w	r1, r1, r8
 8002dfa:	4339      	orrs	r1, r7
 8002dfc:	f8c0 1418 	str.w	r1, [r0, #1048]	; 0x418
 8002e00:	6981      	ldr	r1, [r0, #24]
 8002e02:	f041 7100 	orr.w	r1, r1, #33554432	; 0x2000000
 8002e06:	6181      	str	r1, [r0, #24]
 8002e08:	2600      	movs	r6, #0
 8002e0a:	f44f 4700 	mov.w	r7, #32768	; 0x8000
 8002e0e:	e7b6      	b.n	8002d7e <USB_HC_Init+0x66>
 8002e10:	f240 2725 	movw	r7, #549	; 0x225
 8002e14:	60f7      	str	r7, [r6, #12]
 8002e16:	0617      	lsls	r7, r2, #24
 8002e18:	d5a0      	bpl.n	8002d5c <USB_HC_Init+0x44>
 8002e1a:	68f7      	ldr	r7, [r6, #12]
 8002e1c:	f447 77c0 	orr.w	r7, r7, #384	; 0x180
 8002e20:	60f7      	str	r7, [r6, #12]
 8002e22:	e7e3      	b.n	8002dec <USB_HC_Init+0xd4>
 8002e24:	f8d0 8418 	ldr.w	r8, [r0, #1048]	; 0x418
 8002e28:	f001 010f 	and.w	r1, r1, #15
 8002e2c:	2601      	movs	r6, #1
 8002e2e:	fa06 f101 	lsl.w	r1, r6, r1
 8002e32:	ea41 0108 	orr.w	r1, r1, r8
 8002e36:	f8c0 1418 	str.w	r1, [r0, #1048]	; 0x418
 8002e3a:	6981      	ldr	r1, [r0, #24]
 8002e3c:	f012 0f80 	tst.w	r2, #128	; 0x80
 8002e40:	f041 7100 	orr.w	r1, r1, #33554432	; 0x2000000
 8002e44:	f500 6780 	add.w	r7, r0, #1024	; 0x400
 8002e48:	6181      	str	r1, [r0, #24]
 8002e4a:	bf14      	ite	ne
 8002e4c:	f44f 4700 	movne.w	r7, #32768	; 0x8000
 8002e50:	2700      	moveq	r7, #0
 8002e52:	e794      	b.n	8002d7e <USB_HC_Init+0x66>

08002e54 <USB_HC_StartXfer>:
 8002e54:	b5f0      	push	{r4, r5, r6, r7, lr}
 8002e56:	6bc3      	ldr	r3, [r0, #60]	; 0x3c
 8002e58:	784e      	ldrb	r6, [r1, #1]
 8002e5a:	05db      	lsls	r3, r3, #23
 8002e5c:	b083      	sub	sp, #12
 8002e5e:	d502      	bpl.n	8002e66 <USB_HC_StartXfer+0x12>
 8002e60:	790b      	ldrb	r3, [r1, #4]
 8002e62:	2b00      	cmp	r3, #0
 8002e64:	d05b      	beq.n	8002f1e <USB_HC_StartXfer+0xca>
 8002e66:	eb00 1446 	add.w	r4, r0, r6, lsl #5
 8002e6a:	f504 64a0 	add.w	r4, r4, #1280	; 0x500
 8002e6e:	694d      	ldr	r5, [r1, #20]
 8002e70:	2d00      	cmp	r5, #0
 8002e72:	d142      	bne.n	8002efa <USB_HC_StartXfer+0xa6>
 8002e74:	78cf      	ldrb	r7, [r1, #3]
 8002e76:	f44f 2e00 	mov.w	lr, #524288	; 0x80000
 8002e7a:	2301      	movs	r3, #1
 8002e7c:	2f00      	cmp	r7, #0
 8002e7e:	d04c      	beq.n	8002f1a <USB_HC_StartXfer+0xc6>
 8002e80:	f8b1 c008 	ldrh.w	ip, [r1, #8]
 8002e84:	fb03 f30c 	mul.w	r3, r3, ip
 8002e88:	f891 c00a 	ldrb.w	ip, [r1, #10]
 8002e8c:	610b      	str	r3, [r1, #16]
 8002e8e:	ea4f 7c4c 	mov.w	ip, ip, lsl #29
 8002e92:	f00c 4cc0 	and.w	ip, ip, #1610612736	; 0x60000000
 8002e96:	f3c3 0312 	ubfx	r3, r3, #0, #19
 8002e9a:	ea4c 0c0e 	orr.w	ip, ip, lr
 8002e9e:	ea4c 0303 	orr.w	r3, ip, r3
 8002ea2:	6123      	str	r3, [r4, #16]
 8002ea4:	b10a      	cbz	r2, 8002eaa <USB_HC_StartXfer+0x56>
 8002ea6:	68cb      	ldr	r3, [r1, #12]
 8002ea8:	6163      	str	r3, [r4, #20]
 8002eaa:	f8d0 3408 	ldr.w	r3, [r0, #1032]	; 0x408
 8002eae:	f8d4 e000 	ldr.w	lr, [r4]
 8002eb2:	f02e 5e00 	bic.w	lr, lr, #536870912	; 0x20000000
 8002eb6:	f8c4 e000 	str.w	lr, [r4]
 8002eba:	43db      	mvns	r3, r3
 8002ebc:	f8d4 e000 	ldr.w	lr, [r4]
 8002ec0:	075b      	lsls	r3, r3, #29
 8002ec2:	f003 5300 	and.w	r3, r3, #536870912	; 0x20000000
 8002ec6:	ea43 030e 	orr.w	r3, r3, lr
 8002eca:	6023      	str	r3, [r4, #0]
 8002ecc:	6823      	ldr	r3, [r4, #0]
 8002ece:	9301      	str	r3, [sp, #4]
 8002ed0:	9b01      	ldr	r3, [sp, #4]
 8002ed2:	f023 4380 	bic.w	r3, r3, #1073741824	; 0x40000000
 8002ed6:	9301      	str	r3, [sp, #4]
 8002ed8:	f500 6c80 	add.w	ip, r0, #1024	; 0x400
 8002edc:	9b01      	ldr	r3, [sp, #4]
 8002ede:	2f00      	cmp	r7, #0
 8002ee0:	d034      	beq.n	8002f4c <USB_HC_StartXfer+0xf8>
 8002ee2:	f443 4300 	orr.w	r3, r3, #32768	; 0x8000
 8002ee6:	9301      	str	r3, [sp, #4]
 8002ee8:	9b01      	ldr	r3, [sp, #4]
 8002eea:	f043 4300 	orr.w	r3, r3, #2147483648	; 0x80000000
 8002eee:	9301      	str	r3, [sp, #4]
 8002ef0:	9b01      	ldr	r3, [sp, #4]
 8002ef2:	6023      	str	r3, [r4, #0]
 8002ef4:	2000      	movs	r0, #0
 8002ef6:	b003      	add	sp, #12
 8002ef8:	bdf0      	pop	{r4, r5, r6, r7, pc}
 8002efa:	890f      	ldrh	r7, [r1, #8]
 8002efc:	1e6b      	subs	r3, r5, #1
 8002efe:	443b      	add	r3, r7
 8002f00:	fbb3 f3f7 	udiv	r3, r3, r7
 8002f04:	b29b      	uxth	r3, r3
 8002f06:	f5b3 7f80 	cmp.w	r3, #256	; 0x100
 8002f0a:	78cf      	ldrb	r7, [r1, #3]
 8002f0c:	bf28      	it	cs
 8002f0e:	f44f 7380 	movcs.w	r3, #256	; 0x100
 8002f12:	ea4f 4ec3 	mov.w	lr, r3, lsl #19
 8002f16:	2f00      	cmp	r7, #0
 8002f18:	d1b2      	bne.n	8002e80 <USB_HC_StartXfer+0x2c>
 8002f1a:	462b      	mov	r3, r5
 8002f1c:	e7b4      	b.n	8002e88 <USB_HC_StartXfer+0x34>
 8002f1e:	2a01      	cmp	r2, #1
 8002f20:	d028      	beq.n	8002f74 <USB_HC_StartXfer+0x120>
 8002f22:	2a00      	cmp	r2, #0
 8002f24:	d19f      	bne.n	8002e66 <USB_HC_StartXfer+0x12>
 8002f26:	794b      	ldrb	r3, [r1, #5]
 8002f28:	2b01      	cmp	r3, #1
 8002f2a:	d19c      	bne.n	8002e66 <USB_HC_StartXfer+0x12>
 8002f2c:	eb00 1046 	add.w	r0, r0, r6, lsl #5
 8002f30:	2300      	movs	r3, #0
 8002f32:	f2c8 0308 	movt	r3, #32776	; 0x8008
 8002f36:	f8c0 3510 	str.w	r3, [r0, #1296]	; 0x510
 8002f3a:	f8d0 3500 	ldr.w	r3, [r0, #1280]	; 0x500
 8002f3e:	f023 4380 	bic.w	r3, r3, #1073741824	; 0x40000000
 8002f42:	f043 4300 	orr.w	r3, r3, #2147483648	; 0x80000000
 8002f46:	f8c0 3500 	str.w	r3, [r0, #1280]	; 0x500
 8002f4a:	e7d3      	b.n	8002ef4 <USB_HC_StartXfer+0xa0>
 8002f4c:	f423 4300 	bic.w	r3, r3, #32768	; 0x8000
 8002f50:	9301      	str	r3, [sp, #4]
 8002f52:	9b01      	ldr	r3, [sp, #4]
 8002f54:	f043 4300 	orr.w	r3, r3, #2147483648	; 0x80000000
 8002f58:	9301      	str	r3, [sp, #4]
 8002f5a:	9b01      	ldr	r3, [sp, #4]
 8002f5c:	6023      	str	r3, [r4, #0]
 8002f5e:	2a00      	cmp	r2, #0
 8002f60:	d1c8      	bne.n	8002ef4 <USB_HC_StartXfer+0xa0>
 8002f62:	2d00      	cmp	r5, #0
 8002f64:	d0c6      	beq.n	8002ef4 <USB_HC_StartXfer+0xa0>
 8002f66:	79cb      	ldrb	r3, [r1, #7]
 8002f68:	2b03      	cmp	r3, #3
 8002f6a:	d818      	bhi.n	8002f9e <USB_HC_StartXfer+0x14a>
 8002f6c:	e8df f003 	tbb	[pc, r3]
 8002f70:	0f2a0f2a 	.word	0x0f2a0f2a
 8002f74:	79cb      	ldrb	r3, [r1, #7]
 8002f76:	eb00 1446 	add.w	r4, r0, r6, lsl #5
 8002f7a:	f504 64a0 	add.w	r4, r4, #1280	; 0x500
 8002f7e:	f013 0ffd 	tst.w	r3, #253	; 0xfd
 8002f82:	bf02      	ittt	eq
 8002f84:	68e3      	ldreq	r3, [r4, #12]
 8002f86:	f023 0370 	biceq.w	r3, r3, #112	; 0x70
 8002f8a:	60e3      	streq	r3, [r4, #12]
 8002f8c:	e76f      	b.n	8002e6e <USB_HC_StartXfer+0x1a>
 8002f8e:	f8dc 2010 	ldr.w	r2, [ip, #16]
 8002f92:	1ceb      	adds	r3, r5, #3
 8002f94:	b292      	uxth	r2, r2
 8002f96:	f3c3 038f 	ubfx	r3, r3, #2, #16
 8002f9a:	429a      	cmp	r2, r3
 8002f9c:	d31e      	bcc.n	8002fdc <USB_HC_StartXfer+0x188>
 8002f9e:	b2ab      	uxth	r3, r5
 8002fa0:	3303      	adds	r3, #3
 8002fa2:	089b      	lsrs	r3, r3, #2
 8002fa4:	68ca      	ldr	r2, [r1, #12]
 8002fa6:	d0a5      	beq.n	8002ef4 <USB_HC_StartXfer+0xa0>
 8002fa8:	eb00 3006 	add.w	r0, r0, r6, lsl #12
 8002fac:	f500 5080 	add.w	r0, r0, #4096	; 0x1000
 8002fb0:	eb02 0383 	add.w	r3, r2, r3, lsl #2
 8002fb4:	f852 1b04 	ldr.w	r1, [r2], #4
 8002fb8:	6001      	str	r1, [r0, #0]
 8002fba:	429a      	cmp	r2, r3
 8002fbc:	d1fa      	bne.n	8002fb4 <USB_HC_StartXfer+0x160>
 8002fbe:	2000      	movs	r0, #0
 8002fc0:	b003      	add	sp, #12
 8002fc2:	bdf0      	pop	{r4, r5, r6, r7, pc}
 8002fc4:	6ac2      	ldr	r2, [r0, #44]	; 0x2c
 8002fc6:	1ceb      	adds	r3, r5, #3
 8002fc8:	b292      	uxth	r2, r2
 8002fca:	f3c3 038f 	ubfx	r3, r3, #2, #16
 8002fce:	429a      	cmp	r2, r3
 8002fd0:	d2e5      	bcs.n	8002f9e <USB_HC_StartXfer+0x14a>
 8002fd2:	6983      	ldr	r3, [r0, #24]
 8002fd4:	f043 0320 	orr.w	r3, r3, #32
 8002fd8:	6183      	str	r3, [r0, #24]
 8002fda:	e7e0      	b.n	8002f9e <USB_HC_StartXfer+0x14a>
 8002fdc:	6983      	ldr	r3, [r0, #24]
 8002fde:	f043 6380 	orr.w	r3, r3, #67108864	; 0x4000000
 8002fe2:	6183      	str	r3, [r0, #24]
 8002fe4:	e7db      	b.n	8002f9e <USB_HC_StartXfer+0x14a>
 8002fe6:	bf00      	nop

08002fe8 <USB_HC_ReadInterrupt>:
 8002fe8:	f500 6080 	add.w	r0, r0, #1024	; 0x400
 8002fec:	6940      	ldr	r0, [r0, #20]
 8002fee:	b280      	uxth	r0, r0
 8002ff0:	4770      	bx	lr
 8002ff2:	bf00      	nop

08002ff4 <USB_HC_Halt>:
 8002ff4:	eb00 1141 	add.w	r1, r0, r1, lsl #5
 8002ff8:	b430      	push	{r4, r5}
 8002ffa:	f8d1 3500 	ldr.w	r3, [r1, #1280]	; 0x500
 8002ffe:	f8d1 5500 	ldr.w	r5, [r1, #1280]	; 0x500
 8003002:	6882      	ldr	r2, [r0, #8]
 8003004:	0692      	lsls	r2, r2, #26
 8003006:	f501 64a0 	add.w	r4, r1, #1280	; 0x500
 800300a:	ea4f 4393 	mov.w	r3, r3, lsr #18
 800300e:	d501      	bpl.n	8003014 <USB_HC_Halt+0x20>
 8003010:	2d00      	cmp	r5, #0
 8003012:	da29      	bge.n	8003068 <USB_HC_Halt+0x74>
 8003014:	f013 0f01 	tst.w	r3, #1
 8003018:	f8d1 3500 	ldr.w	r3, [r1, #1280]	; 0x500
 800301c:	f043 4380 	orr.w	r3, r3, #1073741824	; 0x40000000
 8003020:	f8c1 3500 	str.w	r3, [r1, #1280]	; 0x500
 8003024:	d123      	bne.n	800306e <USB_HC_Halt+0x7a>
 8003026:	6883      	ldr	r3, [r0, #8]
 8003028:	069b      	lsls	r3, r3, #26
 800302a:	d41d      	bmi.n	8003068 <USB_HC_Halt+0x74>
 800302c:	6ac3      	ldr	r3, [r0, #44]	; 0x2c
 800302e:	f413 0f7f 	tst.w	r3, #16711680	; 0xff0000
 8003032:	f8d1 3500 	ldr.w	r3, [r1, #1280]	; 0x500
 8003036:	d13c      	bne.n	80030b2 <USB_HC_Halt+0xbe>
 8003038:	f023 4300 	bic.w	r3, r3, #2147483648	; 0x80000000
 800303c:	f8c1 3500 	str.w	r3, [r1, #1280]	; 0x500
 8003040:	f8d1 3500 	ldr.w	r3, [r1, #1280]	; 0x500
 8003044:	f043 4300 	orr.w	r3, r3, #2147483648	; 0x80000000
 8003048:	f8c1 3500 	str.w	r3, [r1, #1280]	; 0x500
 800304c:	f8d1 3500 	ldr.w	r3, [r1, #1280]	; 0x500
 8003050:	f423 4300 	bic.w	r3, r3, #32768	; 0x8000
 8003054:	f8c1 3500 	str.w	r3, [r1, #1280]	; 0x500
 8003058:	f44f 737a 	mov.w	r3, #1000	; 0x3e8
 800305c:	e001      	b.n	8003062 <USB_HC_Halt+0x6e>
 800305e:	3b01      	subs	r3, #1
 8003060:	d002      	beq.n	8003068 <USB_HC_Halt+0x74>
 8003062:	6822      	ldr	r2, [r4, #0]
 8003064:	2a00      	cmp	r2, #0
 8003066:	dbfa      	blt.n	800305e <USB_HC_Halt+0x6a>
 8003068:	2000      	movs	r0, #0
 800306a:	bc30      	pop	{r4, r5}
 800306c:	4770      	bx	lr
 800306e:	f8d0 3410 	ldr.w	r3, [r0, #1040]	; 0x410
 8003072:	f413 0f7f 	tst.w	r3, #16711680	; 0xff0000
 8003076:	f8d1 3500 	ldr.w	r3, [r1, #1280]	; 0x500
 800307a:	d11a      	bne.n	80030b2 <USB_HC_Halt+0xbe>
 800307c:	f023 4300 	bic.w	r3, r3, #2147483648	; 0x80000000
 8003080:	f8c1 3500 	str.w	r3, [r1, #1280]	; 0x500
 8003084:	f8d1 3500 	ldr.w	r3, [r1, #1280]	; 0x500
 8003088:	f043 4300 	orr.w	r3, r3, #2147483648	; 0x80000000
 800308c:	f8c1 3500 	str.w	r3, [r1, #1280]	; 0x500
 8003090:	f8d1 3500 	ldr.w	r3, [r1, #1280]	; 0x500
 8003094:	f423 4300 	bic.w	r3, r3, #32768	; 0x8000
 8003098:	f8c1 3500 	str.w	r3, [r1, #1280]	; 0x500
 800309c:	f44f 737a 	mov.w	r3, #1000	; 0x3e8
 80030a0:	e001      	b.n	80030a6 <USB_HC_Halt+0xb2>
 80030a2:	3b01      	subs	r3, #1
 80030a4:	d0e0      	beq.n	8003068 <USB_HC_Halt+0x74>
 80030a6:	6822      	ldr	r2, [r4, #0]
 80030a8:	2a00      	cmp	r2, #0
 80030aa:	dbfa      	blt.n	80030a2 <USB_HC_Halt+0xae>
 80030ac:	2000      	movs	r0, #0
 80030ae:	bc30      	pop	{r4, r5}
 80030b0:	4770      	bx	lr
 80030b2:	f043 4300 	orr.w	r3, r3, #2147483648	; 0x80000000
 80030b6:	2000      	movs	r0, #0
 80030b8:	bc30      	pop	{r4, r5}
 80030ba:	f8c1 3500 	str.w	r3, [r1, #1280]	; 0x500
 80030be:	4770      	bx	lr

080030c0 <USB_StopHost>:
 80030c0:	b410      	push	{r4}
 80030c2:	6883      	ldr	r3, [r0, #8]
 80030c4:	b083      	sub	sp, #12
 80030c6:	2400      	movs	r4, #0
 80030c8:	f44f 6184 	mov.w	r1, #1056	; 0x420
 80030cc:	f023 0301 	bic.w	r3, r3, #1
 80030d0:	f44f 6254 	mov.w	r2, #3392	; 0xd40
 80030d4:	6083      	str	r3, [r0, #8]
 80030d6:	f2c0 0203 	movt	r2, #3
 80030da:	9401      	str	r4, [sp, #4]
 80030dc:	6101      	str	r1, [r0, #16]
 80030de:	e002      	b.n	80030e6 <USB_StopHost+0x26>
 80030e0:	6903      	ldr	r3, [r0, #16]
 80030e2:	0699      	lsls	r1, r3, #26
 80030e4:	d504      	bpl.n	80030f0 <USB_StopHost+0x30>
 80030e6:	9b01      	ldr	r3, [sp, #4]
 80030e8:	3301      	adds	r3, #1
 80030ea:	4293      	cmp	r3, r2
 80030ec:	9301      	str	r3, [sp, #4]
 80030ee:	d9f7      	bls.n	80030e0 <USB_StopHost+0x20>
 80030f0:	2100      	movs	r1, #0
 80030f2:	2310      	movs	r3, #16
 80030f4:	f44f 6254 	mov.w	r2, #3392	; 0xd40
 80030f8:	9100      	str	r1, [sp, #0]
 80030fa:	f2c0 0203 	movt	r2, #3
 80030fe:	6103      	str	r3, [r0, #16]
 8003100:	e002      	b.n	8003108 <USB_StopHost+0x48>
 8003102:	6903      	ldr	r3, [r0, #16]
 8003104:	06db      	lsls	r3, r3, #27
 8003106:	d504      	bpl.n	8003112 <USB_StopHost+0x52>
 8003108:	9b00      	ldr	r3, [sp, #0]
 800310a:	3301      	adds	r3, #1
 800310c:	4293      	cmp	r3, r2
 800310e:	9300      	str	r3, [sp, #0]
 8003110:	d9f7      	bls.n	8003102 <USB_StopHost+0x42>
 8003112:	f8d0 3500 	ldr.w	r3, [r0, #1280]	; 0x500
 8003116:	f023 2380 	bic.w	r3, r3, #2147516416	; 0x80008000
 800311a:	f043 4380 	orr.w	r3, r3, #1073741824	; 0x40000000
 800311e:	f8c0 3500 	str.w	r3, [r0, #1280]	; 0x500
 8003122:	f8d0 3520 	ldr.w	r3, [r0, #1312]	; 0x520
 8003126:	f023 2380 	bic.w	r3, r3, #2147516416	; 0x80008000
 800312a:	f043 4380 	orr.w	r3, r3, #1073741824	; 0x40000000
 800312e:	f8c0 3520 	str.w	r3, [r0, #1312]	; 0x520
 8003132:	f8d0 3540 	ldr.w	r3, [r0, #1344]	; 0x540
 8003136:	f023 2380 	bic.w	r3, r3, #2147516416	; 0x80008000
 800313a:	f043 4380 	orr.w	r3, r3, #1073741824	; 0x40000000
 800313e:	f8c0 3540 	str.w	r3, [r0, #1344]	; 0x540
 8003142:	f8d0 3560 	ldr.w	r3, [r0, #1376]	; 0x560
 8003146:	f023 2380 	bic.w	r3, r3, #2147516416	; 0x80008000
 800314a:	f043 4380 	orr.w	r3, r3, #1073741824	; 0x40000000
 800314e:	f8c0 3560 	str.w	r3, [r0, #1376]	; 0x560
 8003152:	f8d0 3580 	ldr.w	r3, [r0, #1408]	; 0x580
 8003156:	f023 2380 	bic.w	r3, r3, #2147516416	; 0x80008000
 800315a:	f043 4380 	orr.w	r3, r3, #1073741824	; 0x40000000
 800315e:	f8c0 3580 	str.w	r3, [r0, #1408]	; 0x580
 8003162:	f8d0 35a0 	ldr.w	r3, [r0, #1440]	; 0x5a0
 8003166:	f023 2380 	bic.w	r3, r3, #2147516416	; 0x80008000
 800316a:	f043 4380 	orr.w	r3, r3, #1073741824	; 0x40000000
 800316e:	f8c0 35a0 	str.w	r3, [r0, #1440]	; 0x5a0
 8003172:	f8d0 35c0 	ldr.w	r3, [r0, #1472]	; 0x5c0
 8003176:	f023 2380 	bic.w	r3, r3, #2147516416	; 0x80008000
 800317a:	f043 4380 	orr.w	r3, r3, #1073741824	; 0x40000000
 800317e:	f8c0 35c0 	str.w	r3, [r0, #1472]	; 0x5c0
 8003182:	f8d0 35e0 	ldr.w	r3, [r0, #1504]	; 0x5e0
 8003186:	f023 2380 	bic.w	r3, r3, #2147516416	; 0x80008000
 800318a:	f043 4380 	orr.w	r3, r3, #1073741824	; 0x40000000
 800318e:	f8c0 35e0 	str.w	r3, [r0, #1504]	; 0x5e0
 8003192:	f8d0 3600 	ldr.w	r3, [r0, #1536]	; 0x600
 8003196:	f023 2380 	bic.w	r3, r3, #2147516416	; 0x80008000
 800319a:	f043 4380 	orr.w	r3, r3, #1073741824	; 0x40000000
 800319e:	f8c0 3600 	str.w	r3, [r0, #1536]	; 0x600
 80031a2:	f8d0 3620 	ldr.w	r3, [r0, #1568]	; 0x620
 80031a6:	f023 2380 	bic.w	r3, r3, #2147516416	; 0x80008000
 80031aa:	f043 4380 	orr.w	r3, r3, #1073741824	; 0x40000000
 80031ae:	f8c0 3620 	str.w	r3, [r0, #1568]	; 0x620
 80031b2:	f8d0 3640 	ldr.w	r3, [r0, #1600]	; 0x640
 80031b6:	f023 2380 	bic.w	r3, r3, #2147516416	; 0x80008000
 80031ba:	f043 4380 	orr.w	r3, r3, #1073741824	; 0x40000000
 80031be:	f8c0 3640 	str.w	r3, [r0, #1600]	; 0x640
 80031c2:	f8d0 3660 	ldr.w	r3, [r0, #1632]	; 0x660
 80031c6:	f023 2380 	bic.w	r3, r3, #2147516416	; 0x80008000
 80031ca:	f043 4380 	orr.w	r3, r3, #1073741824	; 0x40000000
 80031ce:	f8c0 3660 	str.w	r3, [r0, #1632]	; 0x660
 80031d2:	f8d0 3680 	ldr.w	r3, [r0, #1664]	; 0x680
 80031d6:	f023 2380 	bic.w	r3, r3, #2147516416	; 0x80008000
 80031da:	f043 4380 	orr.w	r3, r3, #1073741824	; 0x40000000
 80031de:	f8c0 3680 	str.w	r3, [r0, #1664]	; 0x680
 80031e2:	f8d0 36a0 	ldr.w	r3, [r0, #1696]	; 0x6a0
 80031e6:	f023 2380 	bic.w	r3, r3, #2147516416	; 0x80008000
 80031ea:	f043 4380 	orr.w	r3, r3, #1073741824	; 0x40000000
 80031ee:	f8c0 36a0 	str.w	r3, [r0, #1696]	; 0x6a0
 80031f2:	f8d0 36c0 	ldr.w	r3, [r0, #1728]	; 0x6c0
 80031f6:	f023 2380 	bic.w	r3, r3, #2147516416	; 0x80008000
 80031fa:	f043 4380 	orr.w	r3, r3, #1073741824	; 0x40000000
 80031fe:	f8c0 36c0 	str.w	r3, [r0, #1728]	; 0x6c0
 8003202:	f8d0 36e0 	ldr.w	r3, [r0, #1760]	; 0x6e0
 8003206:	f023 2380 	bic.w	r3, r3, #2147516416	; 0x80008000
 800320a:	f043 4380 	orr.w	r3, r3, #1073741824	; 0x40000000
 800320e:	f8c0 36e0 	str.w	r3, [r0, #1760]	; 0x6e0
 8003212:	f500 61a0 	add.w	r1, r0, #1280	; 0x500
 8003216:	f500 64e0 	add.w	r4, r0, #1792	; 0x700
 800321a:	2300      	movs	r3, #0
 800321c:	680a      	ldr	r2, [r1, #0]
 800321e:	f422 4200 	bic.w	r2, r2, #32768	; 0x8000
 8003222:	f042 4240 	orr.w	r2, r2, #3221225472	; 0xc0000000
 8003226:	600a      	str	r2, [r1, #0]
 8003228:	e002      	b.n	8003230 <USB_StopHost+0x170>
 800322a:	680a      	ldr	r2, [r1, #0]
 800322c:	2a00      	cmp	r2, #0
 800322e:	da03      	bge.n	8003238 <USB_StopHost+0x178>
 8003230:	3301      	adds	r3, #1
 8003232:	f5b3 7f7a 	cmp.w	r3, #1000	; 0x3e8
 8003236:	d9f8      	bls.n	800322a <USB_StopHost+0x16a>
 8003238:	3120      	adds	r1, #32
 800323a:	42a1      	cmp	r1, r4
 800323c:	d1ee      	bne.n	800321c <USB_StopHost+0x15c>
 800323e:	f04f 33ff 	mov.w	r3, #4294967295
 8003242:	f8c0 3414 	str.w	r3, [r0, #1044]	; 0x414
 8003246:	6143      	str	r3, [r0, #20]
 8003248:	6883      	ldr	r3, [r0, #8]
 800324a:	f043 0301 	orr.w	r3, r3, #1
 800324e:	6083      	str	r3, [r0, #8]
 8003250:	2000      	movs	r0, #0
 8003252:	b003      	add	sp, #12
 8003254:	f85d 4b04 	ldr.w	r4, [sp], #4
 8003258:	4770      	bx	lr
 800325a:	bf00      	nop

0800325c <USBH_HID_ClassRequest>:
 800325c:	2000      	movs	r0, #0
 800325e:	4770      	bx	lr

08003260 <USBH_HID_SOFProcess>:
 8003260:	b470      	push	{r4, r5, r6}
 8003262:	f890 3324 	ldrb.w	r3, [r0, #804]	; 0x324
 8003266:	f8d0 137c 	ldr.w	r1, [r0, #892]	; 0x37c
 800326a:	f103 0208 	add.w	r2, r3, #8
 800326e:	f851 2022 	ldr.w	r2, [r1, r2, lsl #2]
 8003272:	7894      	ldrb	r4, [r2, #2]
 8003274:	2c06      	cmp	r4, #6
 8003276:	d002      	beq.n	800327e <USBH_HID_SOFProcess+0x1e>
 8003278:	2000      	movs	r0, #0
 800327a:	bc70      	pop	{r4, r5, r6}
 800327c:	4770      	bx	lr
 800327e:	f8d0 43c4 	ldr.w	r4, [r0, #964]	; 0x3c4
 8003282:	6a16      	ldr	r6, [r2, #32]
 8003284:	8b95      	ldrh	r5, [r2, #28]
 8003286:	1ba4      	subs	r4, r4, r6
 8003288:	42ac      	cmp	r4, r5
 800328a:	d3f5      	bcc.n	8003278 <USBH_HID_SOFProcess+0x18>
 800328c:	3301      	adds	r3, #1
 800328e:	b2db      	uxtb	r3, r3
 8003290:	2404      	movs	r4, #4
 8003292:	7094      	strb	r4, [r2, #2]
 8003294:	f880 3324 	strb.w	r3, [r0, #804]	; 0x324
 8003298:	7f0a      	ldrb	r2, [r1, #28]
 800329a:	429a      	cmp	r2, r3
 800329c:	bf9c      	itt	ls
 800329e:	2300      	movls	r3, #0
 80032a0:	f880 3324 	strbls.w	r3, [r0, #804]	; 0x324
 80032a4:	bc70      	pop	{r4, r5, r6}
 80032a6:	2000      	movs	r0, #0
 80032a8:	4770      	bx	lr
 80032aa:	bf00      	nop

080032ac <USBH_HID_InterfaceDeInit>:
 80032ac:	e92d 41f0 	stmdb	sp!, {r4, r5, r6, r7, r8, lr}
 80032b0:	2700      	movs	r7, #0
 80032b2:	f8d0 337c 	ldr.w	r3, [r0, #892]	; 0x37c
 80032b6:	f107 0608 	add.w	r6, r7, #8
 80032ba:	4605      	mov	r5, r0
 80032bc:	f853 4026 	ldr.w	r4, [r3, r6, lsl #2]
 80032c0:	7861      	ldrb	r1, [r4, #1]
 80032c2:	46b8      	mov	r8, r7
 80032c4:	b9e1      	cbnz	r1, 8003300 <USBH_HID_InterfaceDeInit+0x54>
 80032c6:	7821      	ldrb	r1, [r4, #0]
 80032c8:	bb29      	cbnz	r1, 8003316 <USBH_HID_InterfaceDeInit+0x6a>
 80032ca:	4620      	mov	r0, r4
 80032cc:	f002 fda2 	bl	8005e14 <free>
 80032d0:	f8d5 337c 	ldr.w	r3, [r5, #892]	; 0x37c
 80032d4:	f853 0026 	ldr.w	r0, [r3, r6, lsl #2]
 80032d8:	f002 fd9c 	bl	8005e14 <free>
 80032dc:	f8d5 337c 	ldr.w	r3, [r5, #892]	; 0x37c
 80032e0:	f843 8026 	str.w	r8, [r3, r6, lsl #2]
 80032e4:	b127      	cbz	r7, 80032f0 <USBH_HID_InterfaceDeInit+0x44>
 80032e6:	2000      	movs	r0, #0
 80032e8:	8398      	strh	r0, [r3, #28]
 80032ea:	7798      	strb	r0, [r3, #30]
 80032ec:	e8bd 81f0 	ldmia.w	sp!, {r4, r5, r6, r7, r8, pc}
 80032f0:	2701      	movs	r7, #1
 80032f2:	f107 0608 	add.w	r6, r7, #8
 80032f6:	f853 4026 	ldr.w	r4, [r3, r6, lsl #2]
 80032fa:	7861      	ldrb	r1, [r4, #1]
 80032fc:	2900      	cmp	r1, #0
 80032fe:	d0e2      	beq.n	80032c6 <USBH_HID_InterfaceDeInit+0x1a>
 8003300:	4628      	mov	r0, r5
 8003302:	f002 fb87 	bl	8005a14 <USBH_ClosePipe>
 8003306:	7861      	ldrb	r1, [r4, #1]
 8003308:	4628      	mov	r0, r5
 800330a:	f002 fbd7 	bl	8005abc <USBH_FreePipe>
 800330e:	7821      	ldrb	r1, [r4, #0]
 8003310:	f884 8001 	strb.w	r8, [r4, #1]
 8003314:	b141      	cbz	r1, 8003328 <USBH_HID_InterfaceDeInit+0x7c>
 8003316:	4628      	mov	r0, r5
 8003318:	f002 fb7c 	bl	8005a14 <USBH_ClosePipe>
 800331c:	7821      	ldrb	r1, [r4, #0]
 800331e:	4628      	mov	r0, r5
 8003320:	f002 fbcc 	bl	8005abc <USBH_FreePipe>
 8003324:	f884 8000 	strb.w	r8, [r4]
 8003328:	f8d5 337c 	ldr.w	r3, [r5, #892]	; 0x37c
 800332c:	f853 4026 	ldr.w	r4, [r3, r6, lsl #2]
 8003330:	2c00      	cmp	r4, #0
 8003332:	d0d7      	beq.n	80032e4 <USBH_HID_InterfaceDeInit+0x38>
 8003334:	e7c9      	b.n	80032ca <USBH_HID_InterfaceDeInit+0x1e>
 8003336:	bf00      	nop

08003338 <USBH_HID_InterfaceInit>:
 8003338:	e92d 43f0 	stmdb	sp!, {r4, r5, r6, r7, r8, r9, lr}
 800333c:	f8d0 637c 	ldr.w	r6, [r0, #892]	; 0x37c
 8003340:	7fb5      	ldrb	r5, [r6, #30]
 8003342:	b085      	sub	sp, #20
 8003344:	4604      	mov	r4, r0
 8003346:	2d07      	cmp	r5, #7
 8003348:	d825      	bhi.n	8003396 <USBH_HID_InterfaceInit+0x5e>
 800334a:	e8df f015 	tbh	[pc, r5, lsl #1]
 800334e:	0038      	.short	0x0038
 8003350:	0008005e 	.word	0x0008005e
 8003354:	00c10099 	.word	0x00c10099
 8003358:	011600ff 	.word	0x011600ff
 800335c:	0029      	.short	0x0029
 800335e:	7f73      	ldrb	r3, [r6, #29]
 8003360:	221a      	movs	r2, #26
 8003362:	fb02 0203 	mla	r2, r2, r3, r0
 8003366:	3308      	adds	r3, #8
 8003368:	f892 1344 	ldrb.w	r1, [r2, #836]	; 0x344
 800336c:	f856 5023 	ldr.w	r5, [r6, r3, lsl #2]
 8003370:	f001 f8be 	bl	80044f0 <USBH_SelectInterface>
 8003374:	f8d4 337c 	ldr.w	r3, [r4, #892]	; 0x37c
 8003378:	8dea      	ldrh	r2, [r5, #46]	; 0x2e
 800337a:	7f5b      	ldrb	r3, [r3, #29]
 800337c:	9201      	str	r2, [sp, #4]
 800337e:	f504 768e 	add.w	r6, r4, #284	; 0x11c
 8003382:	9600      	str	r6, [sp, #0]
 8003384:	f44f 5208 	mov.w	r2, #8704	; 0x2200
 8003388:	2101      	movs	r1, #1
 800338a:	4620      	mov	r0, r4
 800338c:	f001 fdd0 	bl	8004f30 <USBH_GetDescriptor>
 8003390:	2800      	cmp	r0, #0
 8003392:	f000 813e 	beq.w	8003612 <USBH_HID_InterfaceInit+0x2da>
 8003396:	2501      	movs	r5, #1
 8003398:	4628      	mov	r0, r5
 800339a:	b005      	add	sp, #20
 800339c:	e8bd 83f0 	ldmia.w	sp!, {r4, r5, r6, r7, r8, r9, pc}
 80033a0:	7f73      	ldrb	r3, [r6, #29]
 80033a2:	3301      	adds	r3, #1
 80033a4:	b2db      	uxtb	r3, r3
 80033a6:	7773      	strb	r3, [r6, #29]
 80033a8:	f890 233c 	ldrb.w	r2, [r0, #828]	; 0x33c
 80033ac:	429a      	cmp	r2, r3
 80033ae:	f240 810e 	bls.w	80035ce <USBH_HID_InterfaceInit+0x296>
 80033b2:	2b02      	cmp	r3, #2
 80033b4:	f200 810b 	bhi.w	80035ce <USBH_HID_InterfaceInit+0x296>
 80033b8:	2501      	movs	r5, #1
 80033ba:	77b5      	strb	r5, [r6, #30]
 80033bc:	e7ec      	b.n	8003398 <USBH_HID_InterfaceInit+0x60>
 80033be:	2700      	movs	r7, #0
 80033c0:	7777      	strb	r7, [r6, #29]
 80033c2:	f106 0820 	add.w	r8, r6, #32
 80033c6:	f106 0928 	add.w	r9, r6, #40	; 0x28
 80033ca:	206c      	movs	r0, #108	; 0x6c
 80033cc:	f002 fd1a 	bl	8005e04 <malloc>
 80033d0:	f848 0b04 	str.w	r0, [r8], #4
 80033d4:	4605      	mov	r5, r0
 80033d6:	226c      	movs	r2, #108	; 0x6c
 80033d8:	2100      	movs	r1, #0
 80033da:	f002 fd23 	bl	8005e24 <memset>
 80033de:	f894 134e 	ldrb.w	r1, [r4, #846]	; 0x34e
 80033e2:	f8b4 2350 	ldrh.w	r2, [r4, #848]	; 0x350
 80033e6:	f894 3352 	ldrb.w	r3, [r4, #850]	; 0x352
 80033ea:	70af      	strb	r7, [r5, #2]
 80033ec:	45c1      	cmp	r9, r8
 80033ee:	716f      	strb	r7, [r5, #5]
 80033f0:	76a9      	strb	r1, [r5, #26]
 80033f2:	832a      	strh	r2, [r5, #24]
 80033f4:	83ab      	strh	r3, [r5, #28]
 80033f6:	f104 041a 	add.w	r4, r4, #26
 80033fa:	d1e6      	bne.n	80033ca <USBH_HID_InterfaceInit+0x92>
 80033fc:	2501      	movs	r5, #1
 80033fe:	4628      	mov	r0, r5
 8003400:	7737      	strb	r7, [r6, #28]
 8003402:	77b5      	strb	r5, [r6, #30]
 8003404:	b005      	add	sp, #20
 8003406:	e8bd 83f0 	ldmia.w	sp!, {r4, r5, r6, r7, r8, r9, pc}
 800340a:	7f73      	ldrb	r3, [r6, #29]
 800340c:	221a      	movs	r2, #26
 800340e:	fb02 0303 	mla	r3, r2, r3, r0
 8003412:	f893 1344 	ldrb.w	r1, [r3, #836]	; 0x344
 8003416:	f001 f86b 	bl	80044f0 <USBH_SelectInterface>
 800341a:	f8d4 337c 	ldr.w	r3, [r4, #892]	; 0x37c
 800341e:	2109      	movs	r1, #9
 8003420:	f504 728e 	add.w	r2, r4, #284	; 0x11c
 8003424:	7f5b      	ldrb	r3, [r3, #29]
 8003426:	4620      	mov	r0, r4
 8003428:	e9cd 2100 	strd	r2, r1, [sp]
 800342c:	f44f 5204 	mov.w	r2, #8448	; 0x2100
 8003430:	2101      	movs	r1, #1
 8003432:	f001 fd7d 	bl	8004f30 <USBH_GetDescriptor>
 8003436:	2800      	cmp	r0, #0
 8003438:	d1ad      	bne.n	8003396 <USBH_HID_InterfaceInit+0x5e>
 800343a:	f8d4 237c 	ldr.w	r2, [r4, #892]	; 0x37c
 800343e:	f894 011c 	ldrb.w	r0, [r4, #284]	; 0x11c
 8003442:	7f53      	ldrb	r3, [r2, #29]
 8003444:	3308      	adds	r3, #8
 8003446:	2102      	movs	r1, #2
 8003448:	f852 3023 	ldr.w	r3, [r2, r3, lsl #2]
 800344c:	f883 0026 	strb.w	r0, [r3, #38]	; 0x26
 8003450:	f894 011d 	ldrb.w	r0, [r4, #285]	; 0x11d
 8003454:	f883 0027 	strb.w	r0, [r3, #39]	; 0x27
 8003458:	f8b4 011e 	ldrh.w	r0, [r4, #286]	; 0x11e
 800345c:	8518      	strh	r0, [r3, #40]	; 0x28
 800345e:	f894 0120 	ldrb.w	r0, [r4, #288]	; 0x120
 8003462:	f883 002a 	strb.w	r0, [r3, #42]	; 0x2a
 8003466:	f894 0121 	ldrb.w	r0, [r4, #289]	; 0x121
 800346a:	f883 002b 	strb.w	r0, [r3, #43]	; 0x2b
 800346e:	f894 0122 	ldrb.w	r0, [r4, #290]	; 0x122
 8003472:	f883 002c 	strb.w	r0, [r3, #44]	; 0x2c
 8003476:	f8b4 0123 	ldrh.w	r0, [r4, #291]	; 0x123
 800347a:	85d8      	strh	r0, [r3, #46]	; 0x2e
 800347c:	7791      	strb	r1, [r2, #30]
 800347e:	e78b      	b.n	8003398 <USBH_HID_InterfaceInit+0x60>
 8003480:	7f70      	ldrb	r0, [r6, #29]
 8003482:	231a      	movs	r3, #26
 8003484:	fb03 4300 	mla	r3, r3, r0, r4
 8003488:	f100 0108 	add.w	r1, r0, #8
 800348c:	f893 2347 	ldrb.w	r2, [r3, #839]	; 0x347
 8003490:	f856 1021 	ldr.w	r1, [r6, r1, lsl #2]
 8003494:	2a03      	cmp	r2, #3
 8003496:	f000 80e7 	beq.w	8003668 <USBH_HID_InterfaceInit+0x330>
 800349a:	f891 3030 	ldrb.w	r3, [r1, #48]	; 0x30
 800349e:	f003 0303 	and.w	r3, r3, #3
 80034a2:	2b02      	cmp	r3, #2
 80034a4:	f000 80ca 	beq.w	800363c <USBH_HID_InterfaceInit+0x304>
 80034a8:	2b01      	cmp	r3, #1
 80034aa:	f000 80be 	beq.w	800362a <USBH_HID_InterfaceInit+0x2f2>
 80034ae:	2b03      	cmp	r3, #3
 80034b0:	d107      	bne.n	80034c2 <USBH_HID_InterfaceInit+0x18a>
 80034b2:	f643 0385 	movw	r3, #14469	; 0x3885
 80034b6:	f6c0 0300 	movt	r3, #2048	; 0x800
 80034ba:	668b      	str	r3, [r1, #104]	; 0x68
 80034bc:	7f33      	ldrb	r3, [r6, #28]
 80034be:	3301      	adds	r3, #1
 80034c0:	7733      	strb	r3, [r6, #28]
 80034c2:	2501      	movs	r5, #1
 80034c4:	2304      	movs	r3, #4
 80034c6:	4628      	mov	r0, r5
 80034c8:	77b3      	strb	r3, [r6, #30]
 80034ca:	b005      	add	sp, #20
 80034cc:	e8bd 83f0 	ldmia.w	sp!, {r4, r5, r6, r7, r8, r9, pc}
 80034d0:	f890 3324 	ldrb.w	r3, [r0, #804]	; 0x324
 80034d4:	271a      	movs	r7, #26
 80034d6:	fb07 0203 	mla	r2, r7, r3, r0
 80034da:	f892 1346 	ldrb.w	r1, [r2, #838]	; 0x346
 80034de:	2900      	cmp	r1, #0
 80034e0:	d079      	beq.n	80035d6 <USBH_HID_InterfaceInit+0x29e>
 80034e2:	7f72      	ldrb	r2, [r6, #29]
 80034e4:	3208      	adds	r2, #8
 80034e6:	2902      	cmp	r1, #2
 80034e8:	bf28      	it	cs
 80034ea:	2102      	movcs	r1, #2
 80034ec:	f856 6022 	ldr.w	r6, [r6, r2, lsl #2]
 80034f0:	4688      	mov	r8, r1
 80034f2:	2500      	movs	r5, #0
 80034f4:	f04f 0903 	mov.w	r9, #3
 80034f8:	3501      	adds	r5, #1
 80034fa:	fb07 f303 	mul.w	r3, r7, r3
 80034fe:	eb03 03c5 	add.w	r3, r3, r5, lsl #3
 8003502:	4423      	add	r3, r4
 8003504:	4620      	mov	r0, r4
 8003506:	f993 2346 	ldrsb.w	r2, [r3, #838]	; 0x346
 800350a:	f893 3346 	ldrb.w	r3, [r3, #838]	; 0x346
 800350e:	2a00      	cmp	r2, #0
 8003510:	4619      	mov	r1, r3
 8003512:	db67      	blt.n	80035e4 <USBH_HID_InterfaceInit+0x2ac>
 8003514:	70f3      	strb	r3, [r6, #3]
 8003516:	f002 fa83 	bl	8005a20 <USBH_AllocPipe>
 800351a:	7030      	strb	r0, [r6, #0]
 800351c:	f894 331d 	ldrb.w	r3, [r4, #797]	; 0x31d
 8003520:	78f2      	ldrb	r2, [r6, #3]
 8003522:	8b31      	ldrh	r1, [r6, #24]
 8003524:	9102      	str	r1, [sp, #8]
 8003526:	e9cd 3900 	strd	r3, r9, [sp]
 800352a:	4601      	mov	r1, r0
 800352c:	f894 331c 	ldrb.w	r3, [r4, #796]	; 0x31c
 8003530:	4620      	mov	r0, r4
 8003532:	f002 fa5f 	bl	80059f4 <USBH_OpenPipe>
 8003536:	7831      	ldrb	r1, [r6, #0]
 8003538:	2200      	movs	r2, #0
 800353a:	4620      	mov	r0, r4
 800353c:	f002 fc26 	bl	8005d8c <USBH_LL_SetToggle>
 8003540:	b2eb      	uxtb	r3, r5
 8003542:	4543      	cmp	r3, r8
 8003544:	d245      	bcs.n	80035d2 <USBH_HID_InterfaceInit+0x29a>
 8003546:	f894 3324 	ldrb.w	r3, [r4, #804]	; 0x324
 800354a:	e7d5      	b.n	80034f8 <USBH_HID_InterfaceInit+0x1c0>
 800354c:	f640 3321 	movw	r3, #2849	; 0xb21
 8003550:	f890 1324 	ldrb.w	r1, [r0, #804]	; 0x324
 8003554:	8281      	strh	r1, [r0, #20]
 8003556:	2200      	movs	r2, #0
 8003558:	f2c0 0301 	movt	r3, #1
 800355c:	6103      	str	r3, [r0, #16]
 800355e:	82c2      	strh	r2, [r0, #22]
 8003560:	4611      	mov	r1, r2
 8003562:	f002 f92d 	bl	80057c0 <USBH_CtlReq>
 8003566:	b110      	cbz	r0, 800356e <USBH_HID_InterfaceInit+0x236>
 8003568:	2803      	cmp	r0, #3
 800356a:	f47f af14 	bne.w	8003396 <USBH_HID_InterfaceInit+0x5e>
 800356e:	f8d4 337c 	ldr.w	r3, [r4, #892]	; 0x37c
 8003572:	2206      	movs	r2, #6
 8003574:	779a      	strb	r2, [r3, #30]
 8003576:	2501      	movs	r5, #1
 8003578:	e70e      	b.n	8003398 <USBH_HID_InterfaceInit+0x60>
 800357a:	7f73      	ldrb	r3, [r6, #29]
 800357c:	221a      	movs	r2, #26
 800357e:	fb02 0203 	mla	r2, r2, r3, r0
 8003582:	3308      	adds	r3, #8
 8003584:	f892 1347 	ldrb.w	r1, [r2, #839]	; 0x347
 8003588:	f856 3023 	ldr.w	r3, [r6, r3, lsl #2]
 800358c:	2903      	cmp	r1, #3
 800358e:	f000 8085 	beq.w	800369c <USBH_HID_InterfaceInit+0x364>
 8003592:	f893 3030 	ldrb.w	r3, [r3, #48]	; 0x30
 8003596:	f003 0303 	and.w	r3, r3, #3
 800359a:	2b02      	cmp	r3, #2
 800359c:	d157      	bne.n	800364e <USBH_HID_InterfaceInit+0x316>
 800359e:	f640 2321 	movw	r3, #2593	; 0xa21
 80035a2:	f894 1324 	ldrb.w	r1, [r4, #804]	; 0x324
 80035a6:	82e1      	strh	r1, [r4, #22]
 80035a8:	2200      	movs	r2, #0
 80035aa:	f6c7 5300 	movt	r3, #32000	; 0x7d00
 80035ae:	6123      	str	r3, [r4, #16]
 80035b0:	82a2      	strh	r2, [r4, #20]
 80035b2:	4611      	mov	r1, r2
 80035b4:	4620      	mov	r0, r4
 80035b6:	f002 f903 	bl	80057c0 <USBH_CtlReq>
 80035ba:	b110      	cbz	r0, 80035c2 <USBH_HID_InterfaceInit+0x28a>
 80035bc:	2803      	cmp	r0, #3
 80035be:	f47f aeea 	bne.w	8003396 <USBH_HID_InterfaceInit+0x5e>
 80035c2:	f8d4 337c 	ldr.w	r3, [r4, #892]	; 0x37c
 80035c6:	2207      	movs	r2, #7
 80035c8:	779a      	strb	r2, [r3, #30]
 80035ca:	2501      	movs	r5, #1
 80035cc:	e6e4      	b.n	8003398 <USBH_HID_InterfaceInit+0x60>
 80035ce:	2500      	movs	r5, #0
 80035d0:	e6e2      	b.n	8003398 <USBH_HID_InterfaceInit+0x60>
 80035d2:	f8d4 637c 	ldr.w	r6, [r4, #892]	; 0x37c
 80035d6:	2501      	movs	r5, #1
 80035d8:	2305      	movs	r3, #5
 80035da:	4628      	mov	r0, r5
 80035dc:	77b3      	strb	r3, [r6, #30]
 80035de:	b005      	add	sp, #20
 80035e0:	e8bd 83f0 	ldmia.w	sp!, {r4, r5, r6, r7, r8, r9, pc}
 80035e4:	7133      	strb	r3, [r6, #4]
 80035e6:	f002 fa1b 	bl	8005a20 <USBH_AllocPipe>
 80035ea:	7070      	strb	r0, [r6, #1]
 80035ec:	f894 331d 	ldrb.w	r3, [r4, #797]	; 0x31d
 80035f0:	7932      	ldrb	r2, [r6, #4]
 80035f2:	8b31      	ldrh	r1, [r6, #24]
 80035f4:	9102      	str	r1, [sp, #8]
 80035f6:	e9cd 3900 	strd	r3, r9, [sp]
 80035fa:	4601      	mov	r1, r0
 80035fc:	f894 331c 	ldrb.w	r3, [r4, #796]	; 0x31c
 8003600:	4620      	mov	r0, r4
 8003602:	f002 f9f7 	bl	80059f4 <USBH_OpenPipe>
 8003606:	7871      	ldrb	r1, [r6, #1]
 8003608:	2200      	movs	r2, #0
 800360a:	4620      	mov	r0, r4
 800360c:	f002 fbbe 	bl	8005d8c <USBH_LL_SetToggle>
 8003610:	e796      	b.n	8003540 <USBH_HID_InterfaceInit+0x208>
 8003612:	f105 0230 	add.w	r2, r5, #48	; 0x30
 8003616:	8de9      	ldrh	r1, [r5, #46]	; 0x2e
 8003618:	4630      	mov	r0, r6
 800361a:	f000 fc43 	bl	8003ea4 <parse_report_descriptor>
 800361e:	f8d4 337c 	ldr.w	r3, [r4, #892]	; 0x37c
 8003622:	2203      	movs	r2, #3
 8003624:	779a      	strb	r2, [r3, #30]
 8003626:	2501      	movs	r5, #1
 8003628:	e6b6      	b.n	8003398 <USBH_HID_InterfaceInit+0x60>
 800362a:	f643 4385 	movw	r3, #15493	; 0x3c85
 800362e:	f6c0 0300 	movt	r3, #2048	; 0x800
 8003632:	668b      	str	r3, [r1, #104]	; 0x68
 8003634:	7f33      	ldrb	r3, [r6, #28]
 8003636:	3301      	adds	r3, #1
 8003638:	7733      	strb	r3, [r6, #28]
 800363a:	e742      	b.n	80034c2 <USBH_HID_InterfaceInit+0x18a>
 800363c:	f643 4329 	movw	r3, #15401	; 0x3c29
 8003640:	f6c0 0300 	movt	r3, #2048	; 0x800
 8003644:	668b      	str	r3, [r1, #104]	; 0x68
 8003646:	7f33      	ldrb	r3, [r6, #28]
 8003648:	3301      	adds	r3, #1
 800364a:	7733      	strb	r3, [r6, #28]
 800364c:	e739      	b.n	80034c2 <USBH_HID_InterfaceInit+0x18a>
 800364e:	f894 3324 	ldrb.w	r3, [r4, #804]	; 0x324
 8003652:	82e3      	strh	r3, [r4, #22]
 8003654:	2200      	movs	r2, #0
 8003656:	f640 2321 	movw	r3, #2593	; 0xa21
 800365a:	6123      	str	r3, [r4, #16]
 800365c:	82a2      	strh	r2, [r4, #20]
 800365e:	4611      	mov	r1, r2
 8003660:	4620      	mov	r0, r4
 8003662:	f002 f8ad 	bl	80057c0 <USBH_CtlReq>
 8003666:	e7a8      	b.n	80035ba <USBH_HID_InterfaceInit+0x282>
 8003668:	f8b3 2348 	ldrh.w	r2, [r3, #840]	; 0x348
 800366c:	f240 1301 	movw	r3, #257	; 0x101
 8003670:	429a      	cmp	r2, r3
 8003672:	d01b      	beq.n	80036ac <USBH_HID_InterfaceInit+0x374>
 8003674:	f891 3030 	ldrb.w	r3, [r1, #48]	; 0x30
 8003678:	f003 0303 	and.w	r3, r3, #3
 800367c:	2b02      	cmp	r3, #2
 800367e:	d019      	beq.n	80036b4 <USBH_HID_InterfaceInit+0x37c>
 8003680:	f240 2001 	movw	r0, #513	; 0x201
 8003684:	4282      	cmp	r2, r0
 8003686:	f47f af0f 	bne.w	80034a8 <USBH_HID_InterfaceInit+0x170>
 800368a:	f643 4285 	movw	r2, #15493	; 0x3c85
 800368e:	f6c0 0200 	movt	r2, #2048	; 0x800
 8003692:	668a      	str	r2, [r1, #104]	; 0x68
 8003694:	7f32      	ldrb	r2, [r6, #28]
 8003696:	3201      	adds	r2, #1
 8003698:	7732      	strb	r2, [r6, #28]
 800369a:	e708      	b.n	80034ae <USBH_HID_InterfaceInit+0x176>
 800369c:	f8b2 1348 	ldrh.w	r1, [r2, #840]	; 0x348
 80036a0:	f240 1201 	movw	r2, #257	; 0x101
 80036a4:	4291      	cmp	r1, r2
 80036a6:	f47f af74 	bne.w	8003592 <USBH_HID_InterfaceInit+0x25a>
 80036aa:	e778      	b.n	800359e <USBH_HID_InterfaceInit+0x266>
 80036ac:	f891 3030 	ldrb.w	r3, [r1, #48]	; 0x30
 80036b0:	f003 0303 	and.w	r3, r3, #3
 80036b4:	f643 4229 	movw	r2, #15401	; 0x3c29
 80036b8:	f6c0 0200 	movt	r2, #2048	; 0x800
 80036bc:	668a      	str	r2, [r1, #104]	; 0x68
 80036be:	7f32      	ldrb	r2, [r6, #28]
 80036c0:	251a      	movs	r5, #26
 80036c2:	3201      	adds	r2, #1
 80036c4:	fb05 4400 	mla	r4, r5, r0, r4
 80036c8:	7732      	strb	r2, [r6, #28]
 80036ca:	f8b4 2348 	ldrh.w	r2, [r4, #840]	; 0x348
 80036ce:	e7d7      	b.n	8003680 <USBH_HID_InterfaceInit+0x348>

080036d0 <USBH_HID_GetDeviceType>:
 80036d0:	7803      	ldrb	r3, [r0, #0]
 80036d2:	2b0b      	cmp	r3, #11
 80036d4:	d001      	beq.n	80036da <USBH_HID_GetDeviceType+0xa>
 80036d6:	20ff      	movs	r0, #255	; 0xff
 80036d8:	4770      	bx	lr
 80036da:	f890 3324 	ldrb.w	r3, [r0, #804]	; 0x324
 80036de:	221a      	movs	r2, #26
 80036e0:	fb02 0003 	mla	r0, r2, r3, r0
 80036e4:	f890 3349 	ldrb.w	r3, [r0, #841]	; 0x349
 80036e8:	2b01      	cmp	r3, #1
 80036ea:	d004      	beq.n	80036f6 <USBH_HID_GetDeviceType+0x26>
 80036ec:	2b02      	cmp	r3, #2
 80036ee:	bf14      	ite	ne
 80036f0:	20ff      	movne	r0, #255	; 0xff
 80036f2:	2001      	moveq	r0, #1
 80036f4:	4770      	bx	lr
 80036f6:	2002      	movs	r0, #2
 80036f8:	4770      	bx	lr
 80036fa:	bf00      	nop

080036fc <USBH_HID_FifoInit>:
 80036fc:	2300      	movs	r3, #0
 80036fe:	6001      	str	r1, [r0, #0]
 8003700:	8102      	strh	r2, [r0, #8]
 8003702:	6043      	str	r3, [r0, #4]
 8003704:	7283      	strb	r3, [r0, #10]
 8003706:	4770      	bx	lr

08003708 <USBH_HID_FifoRead>:
 8003708:	b4f0      	push	{r4, r5, r6, r7}
 800370a:	7a85      	ldrb	r5, [r0, #10]
 800370c:	4604      	mov	r4, r0
 800370e:	b9bd      	cbnz	r5, 8003740 <USBH_HID_FifoRead+0x38>
 8003710:	2301      	movs	r3, #1
 8003712:	7283      	strb	r3, [r0, #10]
 8003714:	b1a2      	cbz	r2, 8003740 <USBH_HID_FifoRead+0x38>
 8003716:	88c3      	ldrh	r3, [r0, #6]
 8003718:	462f      	mov	r7, r5
 800371a:	4628      	mov	r0, r5
 800371c:	88a6      	ldrh	r6, [r4, #4]
 800371e:	429e      	cmp	r6, r3
 8003720:	d01a      	beq.n	8003758 <USBH_HID_FifoRead+0x50>
 8003722:	6820      	ldr	r0, [r4, #0]
 8003724:	5cc3      	ldrb	r3, [r0, r3]
 8003726:	f801 3b01 	strb.w	r3, [r1], #1
 800372a:	88e3      	ldrh	r3, [r4, #6]
 800372c:	8920      	ldrh	r0, [r4, #8]
 800372e:	3301      	adds	r3, #1
 8003730:	b29b      	uxth	r3, r3
 8003732:	3501      	adds	r5, #1
 8003734:	4298      	cmp	r0, r3
 8003736:	80e3      	strh	r3, [r4, #6]
 8003738:	b2a8      	uxth	r0, r5
 800373a:	d006      	beq.n	800374a <USBH_HID_FifoRead+0x42>
 800373c:	4290      	cmp	r0, r2
 800373e:	d3ed      	bcc.n	800371c <USBH_HID_FifoRead+0x14>
 8003740:	2300      	movs	r3, #0
 8003742:	72a3      	strb	r3, [r4, #10]
 8003744:	4610      	mov	r0, r2
 8003746:	bcf0      	pop	{r4, r5, r6, r7}
 8003748:	4770      	bx	lr
 800374a:	4282      	cmp	r2, r0
 800374c:	80e7      	strh	r7, [r4, #6]
 800374e:	d9f7      	bls.n	8003740 <USBH_HID_FifoRead+0x38>
 8003750:	88a6      	ldrh	r6, [r4, #4]
 8003752:	2300      	movs	r3, #0
 8003754:	429e      	cmp	r6, r3
 8003756:	d1e4      	bne.n	8003722 <USBH_HID_FifoRead+0x1a>
 8003758:	2300      	movs	r3, #0
 800375a:	72a3      	strb	r3, [r4, #10]
 800375c:	bcf0      	pop	{r4, r5, r6, r7}
 800375e:	4770      	bx	lr

08003760 <USBH_HID_EventCallback>:
 8003760:	4770      	bx	lr
 8003762:	bf00      	nop

08003764 <USBH_HID_Process>:
 8003764:	b5f8      	push	{r3, r4, r5, r6, r7, lr}
 8003766:	f890 3324 	ldrb.w	r3, [r0, #804]	; 0x324
 800376a:	f8d0 237c 	ldr.w	r2, [r0, #892]	; 0x37c
 800376e:	3308      	adds	r3, #8
 8003770:	4604      	mov	r4, r0
 8003772:	f852 5023 	ldr.w	r5, [r2, r3, lsl #2]
 8003776:	78ab      	ldrb	r3, [r5, #2]
 8003778:	2b06      	cmp	r3, #6
 800377a:	d825      	bhi.n	80037c8 <USBH_HID_Process+0x64>
 800377c:	e8df f003 	tbb	[pc, r3]
 8003780:	2424243d 	.word	0x2424243d
 8003784:	262e      	.short	0x262e
 8003786:	04          	.byte	0x04
 8003787:	00          	.byte	0x00
 8003788:	7869      	ldrb	r1, [r5, #1]
 800378a:	f002 faf5 	bl	8005d78 <USBH_LL_GetURBState>
 800378e:	4606      	mov	r6, r0
 8003790:	2e01      	cmp	r6, #1
 8003792:	7869      	ldrb	r1, [r5, #1]
 8003794:	4620      	mov	r0, r4
 8003796:	d03b      	beq.n	8003810 <USBH_HID_Process+0xac>
 8003798:	f002 faee 	bl	8005d78 <USBH_LL_GetURBState>
 800379c:	2805      	cmp	r0, #5
 800379e:	d113      	bne.n	80037c8 <USBH_HID_Process+0x64>
 80037a0:	7ea9      	ldrb	r1, [r5, #26]
 80037a2:	4620      	mov	r0, r4
 80037a4:	f001 ff36 	bl	8005614 <USBH_ClrFeature>
 80037a8:	b970      	cbnz	r0, 80037c8 <USBH_HID_Process+0x64>
 80037aa:	2304      	movs	r3, #4
 80037ac:	70ab      	strb	r3, [r5, #2]
 80037ae:	f894 3324 	ldrb.w	r3, [r4, #804]	; 0x324
 80037b2:	f8d4 237c 	ldr.w	r2, [r4, #892]	; 0x37c
 80037b6:	3301      	adds	r3, #1
 80037b8:	b2db      	uxtb	r3, r3
 80037ba:	f884 3324 	strb.w	r3, [r4, #804]	; 0x324
 80037be:	7f12      	ldrb	r2, [r2, #28]
 80037c0:	429a      	cmp	r2, r3
 80037c2:	bf98      	it	ls
 80037c4:	f884 0324 	strbls.w	r0, [r4, #804]	; 0x324
 80037c8:	2000      	movs	r0, #0
 80037ca:	bdf8      	pop	{r3, r4, r5, r6, r7, pc}
 80037cc:	f8d0 33c4 	ldr.w	r3, [r0, #964]	; 0x3c4
 80037d0:	07db      	lsls	r3, r3, #31
 80037d2:	d5f9      	bpl.n	80037c8 <USBH_HID_Process+0x64>
 80037d4:	2304      	movs	r3, #4
 80037d6:	70ab      	strb	r3, [r5, #2]
 80037d8:	2000      	movs	r0, #0
 80037da:	bdf8      	pop	{r3, r4, r5, r6, r7, pc}
 80037dc:	786b      	ldrb	r3, [r5, #1]
 80037de:	7e2a      	ldrb	r2, [r5, #24]
 80037e0:	6969      	ldr	r1, [r5, #20]
 80037e2:	f002 f8f7 	bl	80059d4 <USBH_InterruptReceiveData>
 80037e6:	2306      	movs	r3, #6
 80037e8:	70ab      	strb	r3, [r5, #2]
 80037ea:	f8d4 33c4 	ldr.w	r3, [r4, #964]	; 0x3c4
 80037ee:	622b      	str	r3, [r5, #32]
 80037f0:	2300      	movs	r3, #0
 80037f2:	f885 3024 	strb.w	r3, [r5, #36]	; 0x24
 80037f6:	2000      	movs	r0, #0
 80037f8:	bdf8      	pop	{r3, r4, r5, r6, r7, pc}
 80037fa:	6eab      	ldr	r3, [r5, #104]	; 0x68
 80037fc:	4798      	blx	r3
 80037fe:	2305      	movs	r3, #5
 8003800:	70ab      	strb	r3, [r5, #2]
 8003802:	4620      	mov	r0, r4
 8003804:	f8d4 33d4 	ldr.w	r3, [r4, #980]	; 0x3d4
 8003808:	2102      	movs	r1, #2
 800380a:	4798      	blx	r3
 800380c:	2000      	movs	r0, #0
 800380e:	bdf8      	pop	{r3, r4, r5, r6, r7, pc}
 8003810:	f002 fa6a 	bl	8005ce8 <USBH_LL_GetLastXferSize>
 8003814:	f895 3024 	ldrb.w	r3, [r5, #36]	; 0x24
 8003818:	2b00      	cmp	r3, #0
 800381a:	d1d5      	bne.n	80037c8 <USBH_HID_Process+0x64>
 800381c:	2800      	cmp	r0, #0
 800381e:	d0d3      	beq.n	80037c8 <USBH_HID_Process+0x64>
 8003820:	7ca9      	ldrb	r1, [r5, #18]
 8003822:	b9e9      	cbnz	r1, 8003860 <USBH_HID_Process+0xfc>
 8003824:	8b2f      	ldrh	r7, [r5, #24]
 8003826:	696a      	ldr	r2, [r5, #20]
 8003828:	74ae      	strb	r6, [r5, #18]
 800382a:	b1cf      	cbz	r7, 8003860 <USBH_HID_Process+0xfc>
 800382c:	3f01      	subs	r7, #1
 800382e:	b2bf      	uxth	r7, r7
 8003830:	3701      	adds	r7, #1
 8003832:	89ab      	ldrh	r3, [r5, #12]
 8003834:	4417      	add	r7, r2
 8003836:	468c      	mov	ip, r1
 8003838:	89e8      	ldrh	r0, [r5, #14]
 800383a:	1c59      	adds	r1, r3, #1
 800383c:	4281      	cmp	r1, r0
 800383e:	d00f      	beq.n	8003860 <USBH_HID_Process+0xfc>
 8003840:	8a2e      	ldrh	r6, [r5, #16]
 8003842:	42b1      	cmp	r1, r6
 8003844:	d015      	beq.n	8003872 <USBH_HID_Process+0x10e>
 8003846:	68a9      	ldr	r1, [r5, #8]
 8003848:	f812 0b01 	ldrb.w	r0, [r2], #1
 800384c:	54c8      	strb	r0, [r1, r3]
 800384e:	89ab      	ldrh	r3, [r5, #12]
 8003850:	8a29      	ldrh	r1, [r5, #16]
 8003852:	3301      	adds	r3, #1
 8003854:	b29b      	uxth	r3, r3
 8003856:	4299      	cmp	r1, r3
 8003858:	81ab      	strh	r3, [r5, #12]
 800385a:	d00d      	beq.n	8003878 <USBH_HID_Process+0x114>
 800385c:	42ba      	cmp	r2, r7
 800385e:	d1eb      	bne.n	8003838 <USBH_HID_Process+0xd4>
 8003860:	2300      	movs	r3, #0
 8003862:	74ab      	strb	r3, [r5, #18]
 8003864:	2301      	movs	r3, #1
 8003866:	4620      	mov	r0, r4
 8003868:	f885 3024 	strb.w	r3, [r5, #36]	; 0x24
 800386c:	f7ff ff78 	bl	8003760 <USBH_HID_EventCallback>
 8003870:	e7aa      	b.n	80037c8 <USBH_HID_Process+0x64>
 8003872:	2800      	cmp	r0, #0
 8003874:	d1e7      	bne.n	8003846 <USBH_HID_Process+0xe2>
 8003876:	e7f3      	b.n	8003860 <USBH_HID_Process+0xfc>
 8003878:	42ba      	cmp	r2, r7
 800387a:	f8a5 c00c 	strh.w	ip, [r5, #12]
 800387e:	d0ef      	beq.n	8003860 <USBH_HID_Process+0xfc>
 8003880:	2300      	movs	r3, #0
 8003882:	e7d9      	b.n	8003838 <USBH_HID_Process+0xd4>

08003884 <USBH_HID_GamepadInit>:
 8003884:	b5f8      	push	{r3, r4, r5, r6, r7, lr}
 8003886:	f890 3324 	ldrb.w	r3, [r0, #804]	; 0x324
 800388a:	f8d0 237c 	ldr.w	r2, [r0, #892]	; 0x37c
 800388e:	3308      	adds	r3, #8
 8003890:	4604      	mov	r4, r0
 8003892:	f852 6023 	ldr.w	r6, [r2, r3, lsl #2]
 8003896:	f896 0032 	ldrb.w	r0, [r6, #50]	; 0x32
 800389a:	b285      	uxth	r5, r0
 800389c:	8335      	strh	r5, [r6, #24]
 800389e:	f002 fab1 	bl	8005e04 <malloc>
 80038a2:	f240 07c4 	movw	r7, #196	; 0xc4
 80038a6:	eb05 0585 	add.w	r5, r5, r5, lsl #2
 80038aa:	f2c2 0700 	movt	r7, #8192	; 0x2000
 80038ae:	4603      	mov	r3, r0
 80038b0:	6170      	str	r0, [r6, #20]
 80038b2:	006a      	lsls	r2, r5, #1
 80038b4:	f106 0008 	add.w	r0, r6, #8
 80038b8:	f504 718e 	add.w	r1, r4, #284	; 0x11c
 80038bc:	603b      	str	r3, [r7, #0]
 80038be:	f7ff ff1d 	bl	80036fc <USBH_HID_FifoInit>
 80038c2:	2000      	movs	r0, #0
 80038c4:	bdf8      	pop	{r3, r4, r5, r6, r7, pc}
 80038c6:	bf00      	nop

080038c8 <USBH_HID_GetGamepadInfo>:
 80038c8:	e92d 4ff0 	stmdb	sp!, {r4, r5, r6, r7, r8, r9, sl, fp, lr}
 80038cc:	f890 3324 	ldrb.w	r3, [r0, #804]	; 0x324
 80038d0:	f8d0 237c 	ldr.w	r2, [r0, #892]	; 0x37c
 80038d4:	3308      	adds	r3, #8
 80038d6:	b091      	sub	sp, #68	; 0x44
 80038d8:	f852 6023 	ldr.w	r6, [r2, r3, lsl #2]
 80038dc:	8b32      	ldrh	r2, [r6, #24]
 80038de:	b15a      	cbz	r2, 80038f8 <USBH_HID_GetGamepadInfo+0x30>
 80038e0:	f240 07c4 	movw	r7, #196	; 0xc4
 80038e4:	f2c2 0700 	movt	r7, #8192	; 0x2000
 80038e8:	f106 0008 	add.w	r0, r6, #8
 80038ec:	6839      	ldr	r1, [r7, #0]
 80038ee:	f7ff ff0b 	bl	8003708 <USBH_HID_FifoRead>
 80038f2:	8b33      	ldrh	r3, [r6, #24]
 80038f4:	4283      	cmp	r3, r0
 80038f6:	d003      	beq.n	8003900 <USBH_HID_GetGamepadInfo+0x38>
 80038f8:	2000      	movs	r0, #0
 80038fa:	b011      	add	sp, #68	; 0x44
 80038fc:	e8bd 8ff0 	ldmia.w	sp!, {r4, r5, r6, r7, r8, r9, sl, fp, pc}
 8003900:	f106 0430 	add.w	r4, r6, #48	; 0x30
 8003904:	cc0f      	ldmia	r4!, {r0, r1, r2, r3}
 8003906:	ad02      	add	r5, sp, #8
 8003908:	c50f      	stmia	r5!, {r0, r1, r2, r3}
 800390a:	cc0f      	ldmia	r4!, {r0, r1, r2, r3}
 800390c:	c50f      	stmia	r5!, {r0, r1, r2, r3}
 800390e:	cc0f      	ldmia	r4!, {r0, r1, r2, r3}
 8003910:	c50f      	stmia	r5!, {r0, r1, r2, r3}
 8003912:	e894 0003 	ldmia.w	r4, {r0, r1}
 8003916:	f896 3031 	ldrb.w	r3, [r6, #49]	; 0x31
 800391a:	683c      	ldr	r4, [r7, #0]
 800391c:	f845 0b04 	str.w	r0, [r5], #4
 8003920:	2b00      	cmp	r3, #0
 8003922:	bf18      	it	ne
 8003924:	3401      	addne	r4, #1
 8003926:	8029      	strh	r1, [r5, #0]
 8003928:	ae02      	add	r6, sp, #8
 800392a:	f10d 0904 	add.w	r9, sp, #4
 800392e:	f04f 08ff 	mov.w	r8, #255	; 0xff
 8003932:	8933      	ldrh	r3, [r6, #8]
 8003934:	7ab0      	ldrb	r0, [r6, #10]
 8003936:	89b7      	ldrh	r7, [r6, #12]
 8003938:	89f5      	ldrh	r5, [r6, #14]
 800393a:	f3c3 0ec7 	ubfx	lr, r3, #3, #8
 800393e:	f003 0107 	and.w	r1, r3, #7
 8003942:	460b      	mov	r3, r1
 8003944:	f814 c00e 	ldrb.w	ip, [r4, lr]
 8003948:	f1c3 0208 	rsb	r2, r3, #8
 800394c:	fa08 f101 	lsl.w	r1, r8, r1
 8003950:	b2d2      	uxtb	r2, r2
 8003952:	ea01 010c 	and.w	r1, r1, ip
 8003956:	4290      	cmp	r0, r2
 8003958:	fa41 f103 	asr.w	r1, r1, r3
 800395c:	f0c0 8121 	bcc.w	8003ba2 <USBH_HID_GetGamepadInfo+0x2da>
 8003960:	f1a0 0c08 	sub.w	ip, r0, #8
 8003964:	4463      	add	r3, ip
 8003966:	f013 03ff 	ands.w	r3, r3, #255	; 0xff
 800396a:	b289      	uxth	r1, r1
 800396c:	d01a      	beq.n	80039a4 <USBH_HID_GetGamepadInfo+0xdc>
 800396e:	f10e 0e01 	add.w	lr, lr, #1
 8003972:	fa5f fe8e 	uxtb.w	lr, lr
 8003976:	f10e 0c01 	add.w	ip, lr, #1
 800397a:	2b07      	cmp	r3, #7
 800397c:	f102 0b08 	add.w	fp, r2, #8
 8003980:	f1a3 0a08 	sub.w	sl, r3, #8
 8003984:	fa5f fc8c 	uxtb.w	ip, ip
 8003988:	f200 8119 	bhi.w	8003bbe <USBH_HID_GetGamepadInfo+0x2f6>
 800398c:	f814 c00e 	ldrb.w	ip, [r4, lr]
 8003990:	f1c3 0308 	rsb	r3, r3, #8
 8003994:	fa48 f303 	asr.w	r3, r8, r3
 8003998:	ea0c 0303 	and.w	r3, ip, r3
 800399c:	fa03 f202 	lsl.w	r2, r3, r2
 80039a0:	4411      	add	r1, r2
 80039a2:	b289      	uxth	r1, r1
 80039a4:	42af      	cmp	r7, r5
 80039a6:	d907      	bls.n	80039b8 <USBH_HID_GetGamepadInfo+0xf0>
 80039a8:	2301      	movs	r3, #1
 80039aa:	3801      	subs	r0, #1
 80039ac:	fa03 f000 	lsl.w	r0, r3, r0
 80039b0:	4208      	tst	r0, r1
 80039b2:	b283      	uxth	r3, r0
 80039b4:	f040 80e9 	bne.w	8003b8a <USBH_HID_GetGamepadInfo+0x2c2>
 80039b8:	3608      	adds	r6, #8
 80039ba:	ab06      	add	r3, sp, #24
 80039bc:	429e      	cmp	r6, r3
 80039be:	f829 1b02 	strh.w	r1, [r9], #2
 80039c2:	d1b6      	bne.n	8003932 <USBH_HID_GetGamepadInfo+0x6a>
 80039c4:	f89d 2020 	ldrb.w	r2, [sp, #32]
 80039c8:	f89d 3022 	ldrb.w	r3, [sp, #34]	; 0x22
 80039cc:	f89d 1021 	ldrb.w	r1, [sp, #33]	; 0x21
 80039d0:	5ca0      	ldrb	r0, [r4, r2]
 80039d2:	5ce2      	ldrb	r2, [r4, r3]
 80039d4:	f89d 3023 	ldrb.w	r3, [sp, #35]	; 0x23
 80039d8:	4208      	tst	r0, r1
 80039da:	bf14      	ite	ne
 80039dc:	2101      	movne	r1, #1
 80039de:	2100      	moveq	r1, #0
 80039e0:	421a      	tst	r2, r3
 80039e2:	f89d 2024 	ldrb.w	r2, [sp, #36]	; 0x24
 80039e6:	f89d 3025 	ldrb.w	r3, [sp, #37]	; 0x25
 80039ea:	5ca2      	ldrb	r2, [r4, r2]
 80039ec:	bf18      	it	ne
 80039ee:	f041 0102 	orrne.w	r1, r1, #2
 80039f2:	421a      	tst	r2, r3
 80039f4:	f89d 2026 	ldrb.w	r2, [sp, #38]	; 0x26
 80039f8:	f89d 3027 	ldrb.w	r3, [sp, #39]	; 0x27
 80039fc:	5ca2      	ldrb	r2, [r4, r2]
 80039fe:	bf18      	it	ne
 8003a00:	f041 0104 	orrne.w	r1, r1, #4
 8003a04:	421a      	tst	r2, r3
 8003a06:	f89d 2028 	ldrb.w	r2, [sp, #40]	; 0x28
 8003a0a:	f89d 302a 	ldrb.w	r3, [sp, #42]	; 0x2a
 8003a0e:	5ca5      	ldrb	r5, [r4, r2]
 8003a10:	f89d 2029 	ldrb.w	r2, [sp, #41]	; 0x29
 8003a14:	5ce0      	ldrb	r0, [r4, r3]
 8003a16:	f89d 302b 	ldrb.w	r3, [sp, #43]	; 0x2b
 8003a1a:	bf18      	it	ne
 8003a1c:	f041 0108 	orrne.w	r1, r1, #8
 8003a20:	4215      	tst	r5, r2
 8003a22:	bf14      	ite	ne
 8003a24:	2201      	movne	r2, #1
 8003a26:	2200      	moveq	r2, #0
 8003a28:	4218      	tst	r0, r3
 8003a2a:	f89d 002c 	ldrb.w	r0, [sp, #44]	; 0x2c
 8003a2e:	f89d 302d 	ldrb.w	r3, [sp, #45]	; 0x2d
 8003a32:	5c20      	ldrb	r0, [r4, r0]
 8003a34:	bf18      	it	ne
 8003a36:	f042 0202 	orrne.w	r2, r2, #2
 8003a3a:	4218      	tst	r0, r3
 8003a3c:	f89d 002e 	ldrb.w	r0, [sp, #46]	; 0x2e
 8003a40:	f89d 302f 	ldrb.w	r3, [sp, #47]	; 0x2f
 8003a44:	5c20      	ldrb	r0, [r4, r0]
 8003a46:	bf18      	it	ne
 8003a48:	f042 0204 	orrne.w	r2, r2, #4
 8003a4c:	4218      	tst	r0, r3
 8003a4e:	f89d 0030 	ldrb.w	r0, [sp, #48]	; 0x30
 8003a52:	f89d 3031 	ldrb.w	r3, [sp, #49]	; 0x31
 8003a56:	5c20      	ldrb	r0, [r4, r0]
 8003a58:	bf18      	it	ne
 8003a5a:	f042 0208 	orrne.w	r2, r2, #8
 8003a5e:	4218      	tst	r0, r3
 8003a60:	f89d 0032 	ldrb.w	r0, [sp, #50]	; 0x32
 8003a64:	f89d 3033 	ldrb.w	r3, [sp, #51]	; 0x33
 8003a68:	5c20      	ldrb	r0, [r4, r0]
 8003a6a:	bf18      	it	ne
 8003a6c:	f042 0210 	orrne.w	r2, r2, #16
 8003a70:	4218      	tst	r0, r3
 8003a72:	f89d 0034 	ldrb.w	r0, [sp, #52]	; 0x34
 8003a76:	f89d 3035 	ldrb.w	r3, [sp, #53]	; 0x35
 8003a7a:	5c20      	ldrb	r0, [r4, r0]
 8003a7c:	f8bd 6016 	ldrh.w	r6, [sp, #22]
 8003a80:	f9bd 7004 	ldrsh.w	r7, [sp, #4]
 8003a84:	bf18      	it	ne
 8003a86:	f042 0220 	orrne.w	r2, r2, #32
 8003a8a:	4218      	tst	r0, r3
 8003a8c:	f89d 0036 	ldrb.w	r0, [sp, #54]	; 0x36
 8003a90:	f89d 3037 	ldrb.w	r3, [sp, #55]	; 0x37
 8003a94:	5c20      	ldrb	r0, [r4, r0]
 8003a96:	bf18      	it	ne
 8003a98:	f042 0240 	orrne.w	r2, r2, #64	; 0x40
 8003a9c:	4218      	tst	r0, r3
 8003a9e:	f8bd 3014 	ldrh.w	r3, [sp, #20]
 8003aa2:	f242 0483 	movw	r4, #8323	; 0x2083
 8003aa6:	eba6 0003 	sub.w	r0, r6, r3
 8003aaa:	f2c8 2408 	movt	r4, #33288	; 0x8208
 8003aae:	fb84 5400 	smull	r5, r4, r4, r0
 8003ab2:	bf18      	it	ne
 8003ab4:	f042 0280 	orrne.w	r2, r2, #128	; 0x80
 8003ab8:	17c5      	asrs	r5, r0, #31
 8003aba:	4404      	add	r4, r0
 8003abc:	42bb      	cmp	r3, r7
 8003abe:	ebc5 14a4 	rsb	r4, r5, r4, asr #6
 8003ac2:	461d      	mov	r5, r3
 8003ac4:	dd76      	ble.n	8003bb4 <USBH_HID_GetGamepadInfo+0x2ec>
 8003ac6:	4435      	add	r5, r6
 8003ac8:	eba3 0355 	sub.w	r3, r3, r5, lsr #1
 8003acc:	b21e      	sxth	r6, r3
 8003ace:	4265      	negs	r5, r4
 8003ad0:	42b5      	cmp	r5, r6
 8003ad2:	b29b      	uxth	r3, r3
 8003ad4:	dc6b      	bgt.n	8003bae <USBH_HID_GetGamepadInfo+0x2e6>
 8003ad6:	42b4      	cmp	r4, r6
 8003ad8:	f280 8088 	bge.w	8003bec <USBH_HID_GetGamepadInfo+0x324>
 8003adc:	1b1b      	subs	r3, r3, r4
 8003ade:	b21b      	sxth	r3, r3
 8003ae0:	eb00 70d0 	add.w	r0, r0, r0, lsr #31
 8003ae4:	ebc4 0460 	rsb	r4, r4, r0, asr #1
 8003ae8:	ebc3 13c3 	rsb	r3, r3, r3, lsl #7
 8003aec:	fb93 f3f4 	sdiv	r3, r3, r4
 8003af0:	b218      	sxth	r0, r3
 8003af2:	f110 0f7f 	cmn.w	r0, #127	; 0x7f
 8003af6:	f280 8081 	bge.w	8003bfc <USBH_HID_GetGamepadInfo+0x334>
 8003afa:	2400      	movs	r4, #0
 8003afc:	f8bd 301c 	ldrh.w	r3, [sp, #28]
 8003b00:	f8bd 701e 	ldrh.w	r7, [sp, #30]
 8003b04:	f9bd c006 	ldrsh.w	ip, [sp, #6]
 8003b08:	f242 0583 	movw	r5, #8323	; 0x2083
 8003b0c:	1afe      	subs	r6, r7, r3
 8003b0e:	f2c8 2508 	movt	r5, #33288	; 0x8208
 8003b12:	fb85 0506 	smull	r0, r5, r5, r6
 8003b16:	4435      	add	r5, r6
 8003b18:	17f0      	asrs	r0, r6, #31
 8003b1a:	4563      	cmp	r3, ip
 8003b1c:	ebc0 10a5 	rsb	r0, r0, r5, asr #6
 8003b20:	461d      	mov	r5, r3
 8003b22:	dc04      	bgt.n	8003b2e <USBH_HID_GetGamepadInfo+0x266>
 8003b24:	4567      	cmp	r7, ip
 8003b26:	bfac      	ite	ge
 8003b28:	fa1f f38c 	uxthge.w	r3, ip
 8003b2c:	463b      	movlt	r3, r7
 8003b2e:	442f      	add	r7, r5
 8003b30:	eba3 0357 	sub.w	r3, r3, r7, lsr #1
 8003b34:	b21f      	sxth	r7, r3
 8003b36:	4245      	negs	r5, r0
 8003b38:	42af      	cmp	r7, r5
 8003b3a:	b29b      	uxth	r3, r3
 8003b3c:	da51      	bge.n	8003be2 <USBH_HID_GetGamepadInfo+0x31a>
 8003b3e:	4403      	add	r3, r0
 8003b40:	b21b      	sxth	r3, r3
 8003b42:	eb06 76d6 	add.w	r6, r6, r6, lsr #31
 8003b46:	ebc0 0666 	rsb	r6, r0, r6, asr #1
 8003b4a:	ebc3 13c3 	rsb	r3, r3, r3, lsl #7
 8003b4e:	fb93 f3f6 	sdiv	r3, r3, r6
 8003b52:	b218      	sxth	r0, r3
 8003b54:	f110 0f7f 	cmn.w	r0, #127	; 0x7f
 8003b58:	da4a      	bge.n	8003bf0 <USBH_HID_GetGamepadInfo+0x328>
 8003b5a:	2c3f      	cmp	r4, #63	; 0x3f
 8003b5c:	dd3d      	ble.n	8003bda <USBH_HID_GetGamepadInfo+0x312>
 8003b5e:	2300      	movs	r3, #0
 8003b60:	2cc0      	cmp	r4, #192	; 0xc0
 8003b62:	bfd4      	ite	le
 8003b64:	2400      	movle	r4, #0
 8003b66:	2401      	movgt	r4, #1
 8003b68:	2b3f      	cmp	r3, #63	; 0x3f
 8003b6a:	dd37      	ble.n	8003bdc <USBH_HID_GetGamepadInfo+0x314>
 8003b6c:	2bc0      	cmp	r3, #192	; 0xc0
 8003b6e:	dd01      	ble.n	8003b74 <USBH_HID_GetGamepadInfo+0x2ac>
 8003b70:	f044 0404 	orr.w	r4, r4, #4
 8003b74:	f240 10bc 	movw	r0, #444	; 0x1bc
 8003b78:	f2c2 0000 	movt	r0, #8192	; 0x2000
 8003b7c:	ea44 1101 	orr.w	r1, r4, r1, lsl #4
 8003b80:	7001      	strb	r1, [r0, #0]
 8003b82:	7042      	strb	r2, [r0, #1]
 8003b84:	b011      	add	sp, #68	; 0x44
 8003b86:	e8bd 8ff0 	ldmia.w	sp!, {r4, r5, r6, r7, r8, r9, sl, fp, pc}
 8003b8a:	005a      	lsls	r2, r3, #1
 8003b8c:	4319      	orrs	r1, r3
 8003b8e:	b293      	uxth	r3, r2
 8003b90:	2b00      	cmp	r3, #0
 8003b92:	f43f af11 	beq.w	80039b8 <USBH_HID_GetGamepadInfo+0xf0>
 8003b96:	005a      	lsls	r2, r3, #1
 8003b98:	4319      	orrs	r1, r3
 8003b9a:	b293      	uxth	r3, r2
 8003b9c:	2b00      	cmp	r3, #0
 8003b9e:	d1f4      	bne.n	8003b8a <USBH_HID_GetGamepadInfo+0x2c2>
 8003ba0:	e70a      	b.n	80039b8 <USBH_HID_GetGamepadInfo+0xf0>
 8003ba2:	2301      	movs	r3, #1
 8003ba4:	4083      	lsls	r3, r0
 8003ba6:	3b01      	subs	r3, #1
 8003ba8:	4019      	ands	r1, r3
 8003baa:	b289      	uxth	r1, r1
 8003bac:	e6fa      	b.n	80039a4 <USBH_HID_GetGamepadInfo+0xdc>
 8003bae:	4423      	add	r3, r4
 8003bb0:	b21b      	sxth	r3, r3
 8003bb2:	e795      	b.n	8003ae0 <USBH_HID_GetGamepadInfo+0x218>
 8003bb4:	42b7      	cmp	r7, r6
 8003bb6:	bfd4      	ite	le
 8003bb8:	b2bb      	uxthle	r3, r7
 8003bba:	4633      	movgt	r3, r6
 8003bbc:	e783      	b.n	8003ac6 <USBH_HID_GetGamepadInfo+0x1fe>
 8003bbe:	f814 300e 	ldrb.w	r3, [r4, lr]
 8003bc2:	fa03 f202 	lsl.w	r2, r3, r2
 8003bc6:	4411      	add	r1, r2
 8003bc8:	f01a 03ff 	ands.w	r3, sl, #255	; 0xff
 8003bcc:	b289      	uxth	r1, r1
 8003bce:	fa5f f28b 	uxtb.w	r2, fp
 8003bd2:	f43f aee7 	beq.w	80039a4 <USBH_HID_GetGamepadInfo+0xdc>
 8003bd6:	46e6      	mov	lr, ip
 8003bd8:	e6cd      	b.n	8003976 <USBH_HID_GetGamepadInfo+0xae>
 8003bda:	2402      	movs	r4, #2
 8003bdc:	f044 0408 	orr.w	r4, r4, #8
 8003be0:	e7c8      	b.n	8003b74 <USBH_HID_GetGamepadInfo+0x2ac>
 8003be2:	42b8      	cmp	r0, r7
 8003be4:	da12      	bge.n	8003c0c <USBH_HID_GetGamepadInfo+0x344>
 8003be6:	1a1b      	subs	r3, r3, r0
 8003be8:	b21b      	sxth	r3, r3
 8003bea:	e7aa      	b.n	8003b42 <USBH_HID_GetGamepadInfo+0x27a>
 8003bec:	247f      	movs	r4, #127	; 0x7f
 8003bee:	e785      	b.n	8003afc <USBH_HID_GetGamepadInfo+0x234>
 8003bf0:	287f      	cmp	r0, #127	; 0x7f
 8003bf2:	dd13      	ble.n	8003c1c <USBH_HID_GetGamepadInfo+0x354>
 8003bf4:	2c3f      	cmp	r4, #63	; 0x3f
 8003bf6:	dc0f      	bgt.n	8003c18 <USBH_HID_GetGamepadInfo+0x350>
 8003bf8:	2402      	movs	r4, #2
 8003bfa:	e7b9      	b.n	8003b70 <USBH_HID_GetGamepadInfo+0x2a8>
 8003bfc:	287f      	cmp	r0, #127	; 0x7f
 8003bfe:	bfc8      	it	gt
 8003c00:	24fe      	movgt	r4, #254	; 0xfe
 8003c02:	f73f af7b 	bgt.w	8003afc <USBH_HID_GetGamepadInfo+0x234>
 8003c06:	337f      	adds	r3, #127	; 0x7f
 8003c08:	b21c      	sxth	r4, r3
 8003c0a:	e777      	b.n	8003afc <USBH_HID_GetGamepadInfo+0x234>
 8003c0c:	2c3f      	cmp	r4, #63	; 0x3f
 8003c0e:	dc01      	bgt.n	8003c14 <USBH_HID_GetGamepadInfo+0x34c>
 8003c10:	2402      	movs	r4, #2
 8003c12:	e7af      	b.n	8003b74 <USBH_HID_GetGamepadInfo+0x2ac>
 8003c14:	237f      	movs	r3, #127	; 0x7f
 8003c16:	e7a3      	b.n	8003b60 <USBH_HID_GetGamepadInfo+0x298>
 8003c18:	23fe      	movs	r3, #254	; 0xfe
 8003c1a:	e7a1      	b.n	8003b60 <USBH_HID_GetGamepadInfo+0x298>
 8003c1c:	337f      	adds	r3, #127	; 0x7f
 8003c1e:	2c3f      	cmp	r4, #63	; 0x3f
 8003c20:	b21b      	sxth	r3, r3
 8003c22:	dc9d      	bgt.n	8003b60 <USBH_HID_GetGamepadInfo+0x298>
 8003c24:	2402      	movs	r4, #2
 8003c26:	e79f      	b.n	8003b68 <USBH_HID_GetGamepadInfo+0x2a0>

08003c28 <USBH_HID_KeybdInit>:
 8003c28:	b570      	push	{r4, r5, r6, lr}
 8003c2a:	f890 3324 	ldrb.w	r3, [r0, #804]	; 0x324
 8003c2e:	f8d0 237c 	ldr.w	r2, [r0, #892]	; 0x37c
 8003c32:	3308      	adds	r3, #8
 8003c34:	f240 14d0 	movw	r4, #464	; 0x1d0
 8003c38:	f852 5023 	ldr.w	r5, [r2, r3, lsl #2]
 8003c3c:	8b2e      	ldrh	r6, [r5, #24]
 8003c3e:	f2c2 0400 	movt	r4, #8192	; 0x2000
 8003c42:	f240 11c0 	movw	r1, #448	; 0x1c0
 8003c46:	f240 12c8 	movw	r2, #456	; 0x1c8
 8003c4a:	2300      	movs	r3, #0
 8003c4c:	2e08      	cmp	r6, #8
 8003c4e:	f2c2 0200 	movt	r2, #8192	; 0x2000
 8003c52:	f2c2 0100 	movt	r1, #8192	; 0x2000
 8003c56:	e9c1 3300 	strd	r3, r3, [r1]
 8003c5a:	e9c2 3300 	strd	r3, r3, [r2]
 8003c5e:	f8c4 3001 	str.w	r3, [r4, #1]
 8003c62:	f8c4 3005 	str.w	r3, [r4, #5]
 8003c66:	bf88      	it	hi
 8003c68:	2308      	movhi	r3, #8
 8003c6a:	616a      	str	r2, [r5, #20]
 8003c6c:	f500 718e 	add.w	r1, r0, #284	; 0x11c
 8003c70:	bf88      	it	hi
 8003c72:	832b      	strhhi	r3, [r5, #24]
 8003c74:	f105 0008 	add.w	r0, r5, #8
 8003c78:	2250      	movs	r2, #80	; 0x50
 8003c7a:	f7ff fd3f 	bl	80036fc <USBH_HID_FifoInit>
 8003c7e:	2000      	movs	r0, #0
 8003c80:	bd70      	pop	{r4, r5, r6, pc}
 8003c82:	bf00      	nop

08003c84 <USBH_HID_MouseInit>:
 8003c84:	b570      	push	{r4, r5, r6, lr}
 8003c86:	f890 3324 	ldrb.w	r3, [r0, #804]	; 0x324
 8003c8a:	f8d0 237c 	ldr.w	r2, [r0, #892]	; 0x37c
 8003c8e:	3308      	adds	r3, #8
 8003c90:	f240 15f0 	movw	r5, #496	; 0x1f0
 8003c94:	f852 4023 	ldr.w	r4, [r2, r3, lsl #2]
 8003c98:	f894 3031 	ldrb.w	r3, [r4, #49]	; 0x31
 8003c9c:	f894 6032 	ldrb.w	r6, [r4, #50]	; 0x32
 8003ca0:	2b00      	cmp	r3, #0
 8003ca2:	bf18      	it	ne
 8003ca4:	3601      	addne	r6, #1
 8003ca6:	f240 13e0 	movw	r3, #480	; 0x1e0
 8003caa:	f2c2 0300 	movt	r3, #8192	; 0x2000
 8003cae:	f2c2 0500 	movt	r5, #8192	; 0x2000
 8003cb2:	8326      	strh	r6, [r4, #24]
 8003cb4:	eb06 0286 	add.w	r2, r6, r6, lsl #2
 8003cb8:	f240 16e8 	movw	r6, #488	; 0x1e8
 8003cbc:	6165      	str	r5, [r4, #20]
 8003cbe:	f500 718e 	add.w	r1, r0, #284	; 0x11c
 8003cc2:	f2c2 0600 	movt	r6, #8192	; 0x2000
 8003cc6:	f104 0008 	add.w	r0, r4, #8
 8003cca:	2400      	movs	r4, #0
 8003ccc:	0052      	lsls	r2, r2, #1
 8003cce:	809c      	strh	r4, [r3, #4]
 8003cd0:	e9c5 4400 	strd	r4, r4, [r5]
 8003cd4:	801c      	strh	r4, [r3, #0]
 8003cd6:	805c      	strh	r4, [r3, #2]
 8003cd8:	719c      	strb	r4, [r3, #6]
 8003cda:	7034      	strb	r4, [r6, #0]
 8003cdc:	7074      	strb	r4, [r6, #1]
 8003cde:	f7ff fd0d 	bl	80036fc <USBH_HID_FifoInit>
 8003ce2:	4620      	mov	r0, r4
 8003ce4:	bd70      	pop	{r4, r5, r6, pc}
 8003ce6:	bf00      	nop

08003ce8 <USBH_HID_GetMouseInfo>:
 8003ce8:	e92d 4ff0 	stmdb	sp!, {r4, r5, r6, r7, r8, r9, sl, fp, lr}
 8003cec:	f890 3324 	ldrb.w	r3, [r0, #804]	; 0x324
 8003cf0:	f8d0 237c 	ldr.w	r2, [r0, #892]	; 0x37c
 8003cf4:	3308      	adds	r3, #8
 8003cf6:	b085      	sub	sp, #20
 8003cf8:	f852 4023 	ldr.w	r4, [r2, r3, lsl #2]
 8003cfc:	8b22      	ldrh	r2, [r4, #24]
 8003cfe:	b162      	cbz	r2, 8003d1a <USBH_HID_GetMouseInfo+0x32>
 8003d00:	f240 15e8 	movw	r5, #488	; 0x1e8
 8003d04:	f2c2 0500 	movt	r5, #8192	; 0x2000
 8003d08:	2300      	movs	r3, #0
 8003d0a:	4629      	mov	r1, r5
 8003d0c:	f104 0008 	add.w	r0, r4, #8
 8003d10:	602b      	str	r3, [r5, #0]
 8003d12:	606b      	str	r3, [r5, #4]
 8003d14:	f7ff fcf8 	bl	8003708 <USBH_HID_FifoRead>
 8003d18:	b918      	cbnz	r0, 8003d22 <USBH_HID_GetMouseInfo+0x3a>
 8003d1a:	2000      	movs	r0, #0
 8003d1c:	b005      	add	sp, #20
 8003d1e:	e8bd 8ff0 	ldmia.w	sp!, {r4, r5, r6, r7, r8, r9, sl, fp, pc}
 8003d22:	f894 1031 	ldrb.w	r1, [r4, #49]	; 0x31
 8003d26:	9401      	str	r4, [sp, #4]
 8003d28:	f104 0310 	add.w	r3, r4, #16
 8003d2c:	4627      	mov	r7, r4
 8003d2e:	2900      	cmp	r1, #0
 8003d30:	bf0c      	ite	eq
 8003d32:	4629      	moveq	r1, r5
 8003d34:	1c69      	addne	r1, r5, #1
 8003d36:	f10d 0a0c 	add.w	sl, sp, #12
 8003d3a:	9300      	str	r3, [sp, #0]
 8003d3c:	f04f 09ff 	mov.w	r9, #255	; 0xff
 8003d40:	8f3a      	ldrh	r2, [r7, #56]	; 0x38
 8003d42:	f897 603a 	ldrb.w	r6, [r7, #58]	; 0x3a
 8003d46:	f8b7 b03c 	ldrh.w	fp, [r7, #60]	; 0x3c
 8003d4a:	f8b7 803e 	ldrh.w	r8, [r7, #62]	; 0x3e
 8003d4e:	f3c2 04c7 	ubfx	r4, r2, #3, #8
 8003d52:	f002 0307 	and.w	r3, r2, #7
 8003d56:	461a      	mov	r2, r3
 8003d58:	5d0d      	ldrb	r5, [r1, r4]
 8003d5a:	f1c2 0008 	rsb	r0, r2, #8
 8003d5e:	fa09 f303 	lsl.w	r3, r9, r3
 8003d62:	b2c0      	uxtb	r0, r0
 8003d64:	402b      	ands	r3, r5
 8003d66:	4286      	cmp	r6, r0
 8003d68:	fa43 f302 	asr.w	r3, r3, r2
 8003d6c:	f0c0 8094 	bcc.w	8003e98 <USBH_HID_GetMouseInfo+0x1b0>
 8003d70:	f1a6 0508 	sub.w	r5, r6, #8
 8003d74:	442a      	add	r2, r5
 8003d76:	f012 02ff 	ands.w	r2, r2, #255	; 0xff
 8003d7a:	b29b      	uxth	r3, r3
 8003d7c:	d013      	beq.n	8003da6 <USBH_HID_GetMouseInfo+0xbe>
 8003d7e:	3401      	adds	r4, #1
 8003d80:	b2e4      	uxtb	r4, r4
 8003d82:	1c65      	adds	r5, r4, #1
 8003d84:	2a07      	cmp	r2, #7
 8003d86:	f100 0e08 	add.w	lr, r0, #8
 8003d8a:	f1a2 0c08 	sub.w	ip, r2, #8
 8003d8e:	b2ed      	uxtb	r5, r5
 8003d90:	d876      	bhi.n	8003e80 <USBH_HID_GetMouseInfo+0x198>
 8003d92:	5d0c      	ldrb	r4, [r1, r4]
 8003d94:	f1c2 0208 	rsb	r2, r2, #8
 8003d98:	fa49 f202 	asr.w	r2, r9, r2
 8003d9c:	4022      	ands	r2, r4
 8003d9e:	fa02 f000 	lsl.w	r0, r2, r0
 8003da2:	4403      	add	r3, r0
 8003da4:	b29b      	uxth	r3, r3
 8003da6:	45c3      	cmp	fp, r8
 8003da8:	d906      	bls.n	8003db8 <USBH_HID_GetMouseInfo+0xd0>
 8003daa:	2201      	movs	r2, #1
 8003dac:	3e01      	subs	r6, #1
 8003dae:	fa02 f606 	lsl.w	r6, r2, r6
 8003db2:	421e      	tst	r6, r3
 8003db4:	b2b2      	uxth	r2, r6
 8003db6:	d158      	bne.n	8003e6a <USBH_HID_GetMouseInfo+0x182>
 8003db8:	f82a 3b02 	strh.w	r3, [sl], #2
 8003dbc:	9b00      	ldr	r3, [sp, #0]
 8003dbe:	3708      	adds	r7, #8
 8003dc0:	42bb      	cmp	r3, r7
 8003dc2:	d1bd      	bne.n	8003d40 <USBH_HID_GetMouseInfo+0x58>
 8003dc4:	9c01      	ldr	r4, [sp, #4]
 8003dc6:	f894 3048 	ldrb.w	r3, [r4, #72]	; 0x48
 8003dca:	f894 204a 	ldrb.w	r2, [r4, #74]	; 0x4a
 8003dce:	5ccd      	ldrb	r5, [r1, r3]
 8003dd0:	f894 3049 	ldrb.w	r3, [r4, #73]	; 0x49
 8003dd4:	5c88      	ldrb	r0, [r1, r2]
 8003dd6:	f894 204b 	ldrb.w	r2, [r4, #75]	; 0x4b
 8003dda:	421d      	tst	r5, r3
 8003ddc:	bf14      	ite	ne
 8003dde:	2301      	movne	r3, #1
 8003de0:	2300      	moveq	r3, #0
 8003de2:	4210      	tst	r0, r2
 8003de4:	f894 004c 	ldrb.w	r0, [r4, #76]	; 0x4c
 8003de8:	f894 204d 	ldrb.w	r2, [r4, #77]	; 0x4d
 8003dec:	5c08      	ldrb	r0, [r1, r0]
 8003dee:	bf18      	it	ne
 8003df0:	f043 0302 	orrne.w	r3, r3, #2
 8003df4:	4210      	tst	r0, r2
 8003df6:	f894 004e 	ldrb.w	r0, [r4, #78]	; 0x4e
 8003dfa:	f894 204f 	ldrb.w	r2, [r4, #79]	; 0x4f
 8003dfe:	5c09      	ldrb	r1, [r1, r0]
 8003e00:	bf18      	it	ne
 8003e02:	f043 0304 	orrne.w	r3, r3, #4
 8003e06:	4211      	tst	r1, r2
 8003e08:	f894 2030 	ldrb.w	r2, [r4, #48]	; 0x30
 8003e0c:	f002 0203 	and.w	r2, r2, #3
 8003e10:	bf18      	it	ne
 8003e12:	f043 0308 	orrne.w	r3, r3, #8
 8003e16:	2a01      	cmp	r2, #1
 8003e18:	d120      	bne.n	8003e5c <USBH_HID_GetMouseInfo+0x174>
 8003e1a:	f9bd 000e 	ldrsh.w	r0, [sp, #14]
 8003e1e:	f9bd 100c 	ldrsh.w	r1, [sp, #12]
 8003e22:	f06f 047f 	mvn.w	r4, #127	; 0x7f
 8003e26:	42a0      	cmp	r0, r4
 8003e28:	bfb8      	it	lt
 8003e2a:	4620      	movlt	r0, r4
 8003e2c:	42a1      	cmp	r1, r4
 8003e2e:	bfb8      	it	lt
 8003e30:	4621      	movlt	r1, r4
 8003e32:	f240 12e0 	movw	r2, #480	; 0x1e0
 8003e36:	287f      	cmp	r0, #127	; 0x7f
 8003e38:	f2c2 0200 	movt	r2, #8192	; 0x2000
 8003e3c:	bfa8      	it	ge
 8003e3e:	207f      	movge	r0, #127	; 0x7f
 8003e40:	297f      	cmp	r1, #127	; 0x7f
 8003e42:	f003 0501 	and.w	r5, r3, #1
 8003e46:	f3c3 0440 	ubfx	r4, r3, #1, #1
 8003e4a:	bfa8      	it	ge
 8003e4c:	217f      	movge	r1, #127	; 0x7f
 8003e4e:	f3c3 0380 	ubfx	r3, r3, #2, #1
 8003e52:	8050      	strh	r0, [r2, #2]
 8003e54:	8011      	strh	r1, [r2, #0]
 8003e56:	7115      	strb	r5, [r2, #4]
 8003e58:	7154      	strb	r4, [r2, #5]
 8003e5a:	7193      	strb	r3, [r2, #6]
 8003e5c:	f240 10e0 	movw	r0, #480	; 0x1e0
 8003e60:	f2c2 0000 	movt	r0, #8192	; 0x2000
 8003e64:	b005      	add	sp, #20
 8003e66:	e8bd 8ff0 	ldmia.w	sp!, {r4, r5, r6, r7, r8, r9, sl, fp, pc}
 8003e6a:	0050      	lsls	r0, r2, #1
 8003e6c:	4313      	orrs	r3, r2
 8003e6e:	b282      	uxth	r2, r0
 8003e70:	2a00      	cmp	r2, #0
 8003e72:	d0a1      	beq.n	8003db8 <USBH_HID_GetMouseInfo+0xd0>
 8003e74:	0050      	lsls	r0, r2, #1
 8003e76:	4313      	orrs	r3, r2
 8003e78:	b282      	uxth	r2, r0
 8003e7a:	2a00      	cmp	r2, #0
 8003e7c:	d1f5      	bne.n	8003e6a <USBH_HID_GetMouseInfo+0x182>
 8003e7e:	e79b      	b.n	8003db8 <USBH_HID_GetMouseInfo+0xd0>
 8003e80:	5d0a      	ldrb	r2, [r1, r4]
 8003e82:	fa02 f000 	lsl.w	r0, r2, r0
 8003e86:	4403      	add	r3, r0
 8003e88:	f01c 02ff 	ands.w	r2, ip, #255	; 0xff
 8003e8c:	b29b      	uxth	r3, r3
 8003e8e:	fa5f f08e 	uxtb.w	r0, lr
 8003e92:	d088      	beq.n	8003da6 <USBH_HID_GetMouseInfo+0xbe>
 8003e94:	462c      	mov	r4, r5
 8003e96:	e774      	b.n	8003d82 <USBH_HID_GetMouseInfo+0x9a>
 8003e98:	2201      	movs	r2, #1
 8003e9a:	40b2      	lsls	r2, r6
 8003e9c:	3a01      	subs	r2, #1
 8003e9e:	4013      	ands	r3, r2
 8003ea0:	b29b      	uxth	r3, r3
 8003ea2:	e780      	b.n	8003da6 <USBH_HID_GetMouseInfo+0xbe>

08003ea4 <parse_report_descriptor>:
 8003ea4:	2900      	cmp	r1, #0
 8003ea6:	f000 82d8 	beq.w	800445a <parse_report_descriptor+0x5b6>
 8003eaa:	e92d 4ff0 	stmdb	sp!, {r4, r5, r6, r7, r8, r9, sl, fp, lr}
 8003eae:	b08b      	sub	sp, #44	; 0x2c
 8003eb0:	f04f 0e00 	mov.w	lr, #0
 8003eb4:	f04f 39ff 	mov.w	r9, #4294967295
 8003eb8:	4690      	mov	r8, r2
 8003eba:	f8cd 900c 	str.w	r9, [sp, #12]
 8003ebe:	f8cd 901c 	str.w	r9, [sp, #28]
 8003ec2:	46ca      	mov	sl, r9
 8003ec4:	f8cd e010 	str.w	lr, [sp, #16]
 8003ec8:	f8cd e024 	str.w	lr, [sp, #36]	; 0x24
 8003ecc:	f8cd e018 	str.w	lr, [sp, #24]
 8003ed0:	4676      	mov	r6, lr
 8003ed2:	f8cd e000 	str.w	lr, [sp]
 8003ed6:	f8cd e020 	str.w	lr, [sp, #32]
 8003eda:	f8cd e004 	str.w	lr, [sp, #4]
 8003ede:	46f4      	mov	ip, lr
 8003ee0:	4672      	mov	r2, lr
 8003ee2:	f8cd e008 	str.w	lr, [sp, #8]
 8003ee6:	f8cd e014 	str.w	lr, [sp, #20]
 8003eea:	7804      	ldrb	r4, [r0, #0]
 8003eec:	0923      	lsrs	r3, r4, #4
 8003eee:	f3c4 0781 	ubfx	r7, r4, #2, #2
 8003ef2:	f014 0403 	ands.w	r4, r4, #3
 8003ef6:	d119      	bne.n	8003f2c <parse_report_descriptor+0x88>
 8003ef8:	3901      	subs	r1, #1
 8003efa:	b289      	uxth	r1, r1
 8003efc:	3001      	adds	r0, #1
 8003efe:	4625      	mov	r5, r4
 8003f00:	b352      	cbz	r2, 8003f58 <parse_report_descriptor+0xb4>
 8003f02:	b96f      	cbnz	r7, 8003f20 <parse_report_descriptor+0x7c>
 8003f04:	2b0a      	cmp	r3, #10
 8003f06:	d07d      	beq.n	8004004 <parse_report_descriptor+0x160>
 8003f08:	2b0c      	cmp	r3, #12
 8003f0a:	d109      	bne.n	8003f20 <parse_report_descriptor+0x7c>
 8003f0c:	f10c 3cff 	add.w	ip, ip, #4294967295
 8003f10:	fa5f fc8c 	uxtb.w	ip, ip
 8003f14:	3a01      	subs	r2, #1
 8003f16:	45e2      	cmp	sl, ip
 8003f18:	bfc8      	it	gt
 8003f1a:	f04f 3aff 	movgt.w	sl, #4294967295
 8003f1e:	b2d2      	uxtb	r2, r2
 8003f20:	2900      	cmp	r1, #0
 8003f22:	d1e2      	bne.n	8003eea <parse_report_descriptor+0x46>
 8003f24:	2000      	movs	r0, #0
 8003f26:	b00b      	add	sp, #44	; 0x2c
 8003f28:	e8bd 8ff0 	ldmia.w	sp!, {r4, r5, r6, r7, r8, r9, sl, fp, pc}
 8003f2c:	2c01      	cmp	r4, #1
 8003f2e:	7845      	ldrb	r5, [r0, #1]
 8003f30:	f000 8295 	beq.w	800445e <parse_report_descriptor+0x5ba>
 8003f34:	f890 b002 	ldrb.w	fp, [r0, #2]
 8003f38:	2c03      	cmp	r4, #3
 8003f3a:	eb05 250b 	add.w	r5, r5, fp, lsl #8
 8003f3e:	d13b      	bne.n	8003fb8 <parse_report_descriptor+0x114>
 8003f40:	7904      	ldrb	r4, [r0, #4]
 8003f42:	f890 b003 	ldrb.w	fp, [r0, #3]
 8003f46:	0624      	lsls	r4, r4, #24
 8003f48:	3905      	subs	r1, #5
 8003f4a:	ea44 440b 	orr.w	r4, r4, fp, lsl #16
 8003f4e:	b289      	uxth	r1, r1
 8003f50:	4325      	orrs	r5, r4
 8003f52:	3005      	adds	r0, #5
 8003f54:	2a00      	cmp	r2, #0
 8003f56:	d1d4      	bne.n	8003f02 <parse_report_descriptor+0x5e>
 8003f58:	2f01      	cmp	r7, #1
 8003f5a:	d013      	beq.n	8003f84 <parse_report_descriptor+0xe0>
 8003f5c:	2f02      	cmp	r7, #2
 8003f5e:	d02f      	beq.n	8003fc0 <parse_report_descriptor+0x11c>
 8003f60:	2f00      	cmp	r7, #0
 8003f62:	d1dd      	bne.n	8003f20 <parse_report_descriptor+0x7c>
 8003f64:	3b08      	subs	r3, #8
 8003f66:	2b04      	cmp	r3, #4
 8003f68:	d8dc      	bhi.n	8003f24 <parse_report_descriptor+0x80>
 8003f6a:	a401      	add	r4, pc, #4	; (adr r4, 8003f70 <parse_report_descriptor+0xcc>)
 8003f6c:	f854 f023 	ldr.w	pc, [r4, r3, lsl #2]
 8003f70:	080040b1 	.word	0x080040b1
 8003f74:	08003f21 	.word	0x08003f21
 8003f78:	0800408b 	.word	0x0800408b
 8003f7c:	08003f21 	.word	0x08003f21
 8003f80:	08004033 	.word	0x08004033
 8003f84:	2b09      	cmp	r3, #9
 8003f86:	d8cd      	bhi.n	8003f24 <parse_report_descriptor+0x80>
 8003f88:	a401      	add	r4, pc, #4	; (adr r4, 8003f90 <parse_report_descriptor+0xec>)
 8003f8a:	f854 f023 	ldr.w	pc, [r4, r3, lsl #2]
 8003f8e:	bf00      	nop
 8003f90:	08004109 	.word	0x08004109
 8003f94:	08004027 	.word	0x08004027
 8003f98:	08004149 	.word	0x08004149
 8003f9c:	08003f21 	.word	0x08003f21
 8003fa0:	08003f21 	.word	0x08003f21
 8003fa4:	08003f21 	.word	0x08003f21
 8003fa8:	08003f21 	.word	0x08003f21
 8003fac:	0800413d 	.word	0x0800413d
 8003fb0:	08004131 	.word	0x08004131
 8003fb4:	08004125 	.word	0x08004125
 8003fb8:	3903      	subs	r1, #3
 8003fba:	b289      	uxth	r1, r1
 8003fbc:	3003      	adds	r0, #3
 8003fbe:	e79f      	b.n	8003f00 <parse_report_descriptor+0x5c>
 8003fc0:	2b01      	cmp	r3, #1
 8003fc2:	f000 80cd 	beq.w	8004160 <parse_report_descriptor+0x2bc>
 8003fc6:	2b02      	cmp	r3, #2
 8003fc8:	f000 80c4 	beq.w	8004154 <parse_report_descriptor+0x2b0>
 8003fcc:	2b00      	cmp	r3, #0
 8003fce:	d1a7      	bne.n	8003f20 <parse_report_descriptor+0x7c>
 8003fd0:	f1bc 0f00 	cmp.w	ip, #0
 8003fd4:	f040 80cb 	bne.w	800416e <parse_report_descriptor+0x2ca>
 8003fd8:	2d06      	cmp	r5, #6
 8003fda:	f000 8125 	beq.w	8004228 <parse_report_descriptor+0x384>
 8003fde:	2d02      	cmp	r5, #2
 8003fe0:	f000 821d 	beq.w	800441e <parse_report_descriptor+0x57a>
 8003fe4:	1f2b      	subs	r3, r5, #4
 8003fe6:	2b01      	cmp	r3, #1
 8003fe8:	f200 80c1 	bhi.w	800416e <parse_report_descriptor+0x2ca>
 8003fec:	f898 3000 	ldrb.w	r3, [r8]
 8003ff0:	f043 0303 	orr.w	r3, r3, #3
 8003ff4:	f888 3000 	strb.w	r3, [r8]
 8003ff8:	3601      	adds	r6, #1
 8003ffa:	b2b6      	uxth	r6, r6
 8003ffc:	2900      	cmp	r1, #0
 8003ffe:	f47f af74 	bne.w	8003eea <parse_report_descriptor+0x46>
 8004002:	e78f      	b.n	8003f24 <parse_report_descriptor+0x80>
 8004004:	3201      	adds	r2, #1
 8004006:	f10c 0c01 	add.w	ip, ip, #1
 800400a:	b2d2      	uxtb	r2, r2
 800400c:	fa5f fc8c 	uxtb.w	ip, ip
 8004010:	2900      	cmp	r1, #0
 8004012:	f47f af6a 	bne.w	8003eea <parse_report_descriptor+0x46>
 8004016:	e785      	b.n	8003f24 <parse_report_descriptor+0x80>
 8004018:	2d01      	cmp	r5, #1
 800401a:	d181      	bne.n	8003f20 <parse_report_descriptor+0x7c>
 800401c:	f1ba 0f00 	cmp.w	sl, #0
 8004020:	da01      	bge.n	8004026 <parse_report_descriptor+0x182>
 8004022:	fa4f fa8c 	sxtb.w	sl, ip
 8004026:	b2ab      	uxth	r3, r5
 8004028:	9306      	str	r3, [sp, #24]
 800402a:	2900      	cmp	r1, #0
 800402c:	f47f af5d 	bne.w	8003eea <parse_report_descriptor+0x46>
 8004030:	e778      	b.n	8003f24 <parse_report_descriptor+0x80>
 8004032:	f10c 3cff 	add.w	ip, ip, #4294967295
 8004036:	9b02      	ldr	r3, [sp, #8]
 8004038:	fa5f fc8c 	uxtb.w	ip, ip
 800403c:	45e2      	cmp	sl, ip
 800403e:	bfc8      	it	gt
 8004040:	f04f 3aff 	movgt.w	sl, #4294967295
 8004044:	2b00      	cmp	r3, #0
 8004046:	f040 80aa 	bne.w	800419e <parse_report_descriptor+0x2fa>
 800404a:	9c05      	ldr	r4, [sp, #20]
 800404c:	2c00      	cmp	r4, #0
 800404e:	f43f af69 	beq.w	8003f24 <parse_report_descriptor+0x80>
 8004052:	f898 3000 	ldrb.w	r3, [r8]
 8004056:	9d00      	ldr	r5, [sp, #0]
 8004058:	3c01      	subs	r4, #1
 800405a:	f003 0303 	and.w	r3, r3, #3
 800405e:	08ed      	lsrs	r5, r5, #3
 8004060:	b264      	sxtb	r4, r4
 8004062:	2b03      	cmp	r3, #3
 8004064:	9405      	str	r4, [sp, #20]
 8004066:	f888 5002 	strb.w	r5, [r8, #2]
 800406a:	f000 81e0 	beq.w	800442e <parse_report_descriptor+0x58a>
 800406e:	2b01      	cmp	r3, #1
 8004070:	f040 81b7 	bne.w	80043e2 <parse_report_descriptor+0x53e>
 8004074:	9c04      	ldr	r4, [sp, #16]
 8004076:	2c0f      	cmp	r4, #15
 8004078:	f000 81b6 	beq.w	80043e8 <parse_report_descriptor+0x544>
 800407c:	9b02      	ldr	r3, [sp, #8]
 800407e:	9304      	str	r3, [sp, #16]
 8004080:	9300      	str	r3, [sp, #0]
 8004082:	2900      	cmp	r1, #0
 8004084:	f47f af31 	bne.w	8003eea <parse_report_descriptor+0x46>
 8004088:	e74c      	b.n	8003f24 <parse_report_descriptor+0x80>
 800408a:	f10c 0c01 	add.w	ip, ip, #1
 800408e:	2d01      	cmp	r5, #1
 8004090:	fa5f fc8c 	uxtb.w	ip, ip
 8004094:	f000 81aa 	beq.w	80043ec <parse_report_descriptor+0x548>
 8004098:	2d00      	cmp	r5, #0
 800409a:	f000 80bc 	beq.w	8004216 <parse_report_descriptor+0x372>
 800409e:	2d02      	cmp	r5, #2
 80040a0:	f000 80b9 	beq.w	8004216 <parse_report_descriptor+0x372>
 80040a4:	2600      	movs	r6, #0
 80040a6:	2201      	movs	r2, #1
 80040a8:	2900      	cmp	r1, #0
 80040aa:	f47f af1e 	bne.w	8003eea <parse_report_descriptor+0x46>
 80040ae:	e739      	b.n	8003f24 <parse_report_descriptor+0x80>
 80040b0:	f1be 0f00 	cmp.w	lr, #0
 80040b4:	d004      	beq.n	80040c0 <parse_report_descriptor+0x21c>
 80040b6:	f898 3000 	ldrb.w	r3, [r8]
 80040ba:	07de      	lsls	r6, r3, #31
 80040bc:	f100 80bb 	bmi.w	8004236 <parse_report_descriptor+0x392>
 80040c0:	9b03      	ldr	r3, [sp, #12]
 80040c2:	2b00      	cmp	r3, #0
 80040c4:	db72      	blt.n	80041ac <parse_report_descriptor+0x308>
 80040c6:	f898 3000 	ldrb.w	r3, [r8]
 80040ca:	f8bd 4004 	ldrh.w	r4, [sp, #4]
 80040ce:	f013 0f01 	tst.w	r3, #1
 80040d2:	9b01      	ldr	r3, [sp, #4]
 80040d4:	f040 81bd 	bne.w	8004452 <parse_report_descriptor+0x5ae>
 80040d8:	f1b9 0f00 	cmp.w	r9, #0
 80040dc:	f2c0 81ae 	blt.w	800443c <parse_report_descriptor+0x598>
 80040e0:	9c08      	ldr	r4, [sp, #32]
 80040e2:	fb13 f304 	smulbb	r3, r3, r4
 80040e6:	9c00      	ldr	r4, [sp, #0]
 80040e8:	441c      	add	r4, r3
 80040ea:	f04f 39ff 	mov.w	r9, #4294967295
 80040ee:	f04f 0e00 	mov.w	lr, #0
 80040f2:	b2a3      	uxth	r3, r4
 80040f4:	9300      	str	r3, [sp, #0]
 80040f6:	4676      	mov	r6, lr
 80040f8:	f8cd 900c 	str.w	r9, [sp, #12]
 80040fc:	f8cd 901c 	str.w	r9, [sp, #28]
 8004100:	2900      	cmp	r1, #0
 8004102:	f47f aef2 	bne.w	8003eea <parse_report_descriptor+0x46>
 8004106:	e70d      	b.n	8003f24 <parse_report_descriptor+0x80>
 8004108:	2d0c      	cmp	r5, #12
 800410a:	f63f af09 	bhi.w	8003f20 <parse_report_descriptor+0x7c>
 800410e:	f44f 538d 	mov.w	r3, #4512	; 0x11a0
 8004112:	40eb      	lsrs	r3, r5
 8004114:	07dc      	lsls	r4, r3, #31
 8004116:	d486      	bmi.n	8004026 <parse_report_descriptor+0x182>
 8004118:	2d09      	cmp	r5, #9
 800411a:	f47f af7d 	bne.w	8004018 <parse_report_descriptor+0x174>
 800411e:	f04f 0e01 	mov.w	lr, #1
 8004122:	e780      	b.n	8004026 <parse_report_descriptor+0x182>
 8004124:	b2eb      	uxtb	r3, r5
 8004126:	9308      	str	r3, [sp, #32]
 8004128:	2900      	cmp	r1, #0
 800412a:	f47f aede 	bne.w	8003eea <parse_report_descriptor+0x46>
 800412e:	e6f9      	b.n	8003f24 <parse_report_descriptor+0x80>
 8004130:	f888 5001 	strb.w	r5, [r8, #1]
 8004134:	2900      	cmp	r1, #0
 8004136:	f47f aed8 	bne.w	8003eea <parse_report_descriptor+0x46>
 800413a:	e6f3      	b.n	8003f24 <parse_report_descriptor+0x80>
 800413c:	b2eb      	uxtb	r3, r5
 800413e:	9301      	str	r3, [sp, #4]
 8004140:	2900      	cmp	r1, #0
 8004142:	f47f aed2 	bne.w	8003eea <parse_report_descriptor+0x46>
 8004146:	e6ed      	b.n	8003f24 <parse_report_descriptor+0x80>
 8004148:	b2ab      	uxth	r3, r5
 800414a:	9309      	str	r3, [sp, #36]	; 0x24
 800414c:	2900      	cmp	r1, #0
 800414e:	f47f aecc 	bne.w	8003eea <parse_report_descriptor+0x46>
 8004152:	e6e7      	b.n	8003f24 <parse_report_descriptor+0x80>
 8004154:	4435      	add	r5, r6
 8004156:	b2ae      	uxth	r6, r5
 8004158:	2900      	cmp	r1, #0
 800415a:	f47f aec6 	bne.w	8003eea <parse_report_descriptor+0x46>
 800415e:	e6e1      	b.n	8003f24 <parse_report_descriptor+0x80>
 8004160:	3601      	adds	r6, #1
 8004162:	1b75      	subs	r5, r6, r5
 8004164:	b2ae      	uxth	r6, r5
 8004166:	2900      	cmp	r1, #0
 8004168:	f47f aebf 	bne.w	8003eea <parse_report_descriptor+0x46>
 800416c:	e6da      	b.n	8003f24 <parse_report_descriptor+0x80>
 800416e:	2d01      	cmp	r5, #1
 8004170:	f43f af42 	beq.w	8003ff8 <parse_report_descriptor+0x154>
 8004174:	f1a5 0330 	sub.w	r3, r5, #48	; 0x30
 8004178:	2b01      	cmp	r3, #1
 800417a:	f240 8140 	bls.w	80043fe <parse_report_descriptor+0x55a>
 800417e:	2d39      	cmp	r5, #57	; 0x39
 8004180:	f47f af3a 	bne.w	8003ff8 <parse_report_descriptor+0x154>
 8004184:	9b05      	ldr	r3, [sp, #20]
 8004186:	2b00      	cmp	r3, #0
 8004188:	f43f af36 	beq.w	8003ff8 <parse_report_descriptor+0x154>
 800418c:	f898 3000 	ldrb.w	r3, [r8]
 8004190:	f003 0303 	and.w	r3, r3, #3
 8004194:	2b03      	cmp	r3, #3
 8004196:	bf04      	itt	eq
 8004198:	b273      	sxtbeq	r3, r6
 800419a:	9307      	streq	r3, [sp, #28]
 800419c:	e72c      	b.n	8003ff8 <parse_report_descriptor+0x154>
 800419e:	3b01      	subs	r3, #1
 80041a0:	b25b      	sxtb	r3, r3
 80041a2:	9302      	str	r3, [sp, #8]
 80041a4:	2900      	cmp	r1, #0
 80041a6:	f47f aea0 	bne.w	8003eea <parse_report_descriptor+0x46>
 80041aa:	e6bb      	b.n	8003f24 <parse_report_descriptor+0x80>
 80041ac:	9b01      	ldr	r3, [sp, #4]
 80041ae:	9c08      	ldr	r4, [sp, #32]
 80041b0:	fb13 f304 	smulbb	r3, r3, r4
 80041b4:	f1b9 0f00 	cmp.w	r9, #0
 80041b8:	f8bd 4004 	ldrh.w	r4, [sp, #4]
 80041bc:	db16      	blt.n	80041ec <parse_report_descriptor+0x348>
 80041be:	f898 5000 	ldrb.w	r5, [r8]
 80041c2:	07ed      	lsls	r5, r5, #31
 80041c4:	d58f      	bpl.n	80040e6 <parse_report_descriptor+0x242>
 80041c6:	9e00      	ldr	r6, [sp, #0]
 80041c8:	fb19 f504 	smulbb	r5, r9, r4
 80041cc:	4435      	add	r5, r6
 80041ce:	f8a8 5010 	strh.w	r5, [r8, #16]
 80041d2:	9d06      	ldr	r5, [sp, #24]
 80041d4:	f8a8 5014 	strh.w	r5, [r8, #20]
 80041d8:	9d09      	ldr	r5, [sp, #36]	; 0x24
 80041da:	f8a8 5016 	strh.w	r5, [r8, #22]
 80041de:	9d01      	ldr	r5, [sp, #4]
 80041e0:	f888 5012 	strb.w	r5, [r8, #18]
 80041e4:	9d04      	ldr	r5, [sp, #16]
 80041e6:	f045 0502 	orr.w	r5, r5, #2
 80041ea:	9504      	str	r5, [sp, #16]
 80041ec:	9e07      	ldr	r6, [sp, #28]
 80041ee:	2e00      	cmp	r6, #0
 80041f0:	f6ff af79 	blt.w	80040e6 <parse_report_descriptor+0x242>
 80041f4:	f898 5000 	ldrb.w	r5, [r8]
 80041f8:	f005 0503 	and.w	r5, r5, #3
 80041fc:	2d03      	cmp	r5, #3
 80041fe:	f47f af72 	bne.w	80040e6 <parse_report_descriptor+0x242>
 8004202:	9d00      	ldr	r5, [sp, #0]
 8004204:	fb16 f404 	smulbb	r4, r6, r4
 8004208:	442c      	add	r4, r5
 800420a:	f8a8 4030 	strh.w	r4, [r8, #48]	; 0x30
 800420e:	9c01      	ldr	r4, [sp, #4]
 8004210:	f888 4032 	strb.w	r4, [r8, #50]	; 0x32
 8004214:	e767      	b.n	80040e6 <parse_report_descriptor+0x242>
 8004216:	9b02      	ldr	r3, [sp, #8]
 8004218:	3301      	adds	r3, #1
 800421a:	b25b      	sxtb	r3, r3
 800421c:	9302      	str	r3, [sp, #8]
 800421e:	2600      	movs	r6, #0
 8004220:	2900      	cmp	r1, #0
 8004222:	f47f ae62 	bne.w	8003eea <parse_report_descriptor+0x46>
 8004226:	e67d      	b.n	8003f24 <parse_report_descriptor+0x80>
 8004228:	f898 3000 	ldrb.w	r3, [r8]
 800422c:	f367 0301 	bfi	r3, r7, #0, #2
 8004230:	f888 3000 	strb.w	r3, [r8]
 8004234:	e6e0      	b.n	8003ff8 <parse_report_descriptor+0x154>
 8004236:	9b08      	ldr	r3, [sp, #32]
 8004238:	2b00      	cmp	r3, #0
 800423a:	f000 8103 	beq.w	8004444 <parse_report_descriptor+0x5a0>
 800423e:	9d00      	ldr	r5, [sp, #0]
 8004240:	9f01      	ldr	r7, [sp, #4]
 8004242:	f005 0407 	and.w	r4, r5, #7
 8004246:	f04f 0e01 	mov.w	lr, #1
 800424a:	46bb      	mov	fp, r7
 800424c:	fa0e f404 	lsl.w	r4, lr, r4
 8004250:	461f      	mov	r7, r3
 8004252:	462e      	mov	r6, r5
 8004254:	b2e4      	uxtb	r4, r4
 8004256:	08ed      	lsrs	r5, r5, #3
 8004258:	fb1b f303 	smulbb	r3, fp, r3
 800425c:	4577      	cmp	r7, lr
 800425e:	f888 4019 	strb.w	r4, [r8, #25]
 8004262:	f888 5018 	strb.w	r5, [r8, #24]
 8004266:	f888 3034 	strb.w	r3, [r8, #52]	; 0x34
 800426a:	f000 80ed 	beq.w	8004448 <parse_report_descriptor+0x5a4>
 800426e:	eb06 050e 	add.w	r5, r6, lr
 8004272:	f005 0607 	and.w	r6, r5, #7
 8004276:	fa0e f606 	lsl.w	r6, lr, r6
 800427a:	f3c5 05cc 	ubfx	r5, r5, #3, #13
 800427e:	2f02      	cmp	r7, #2
 8004280:	f888 601b 	strb.w	r6, [r8, #27]
 8004284:	f888 501a 	strb.w	r5, [r8, #26]
 8004288:	f000 8088 	beq.w	800439c <parse_report_descriptor+0x4f8>
 800428c:	9e00      	ldr	r6, [sp, #0]
 800428e:	1cb5      	adds	r5, r6, #2
 8004290:	f005 0607 	and.w	r6, r5, #7
 8004294:	fa0e f606 	lsl.w	r6, lr, r6
 8004298:	f3c5 05cc 	ubfx	r5, r5, #3, #13
 800429c:	2f03      	cmp	r7, #3
 800429e:	f888 601d 	strb.w	r6, [r8, #29]
 80042a2:	f888 501c 	strb.w	r5, [r8, #28]
 80042a6:	d079      	beq.n	800439c <parse_report_descriptor+0x4f8>
 80042a8:	9e00      	ldr	r6, [sp, #0]
 80042aa:	1cf5      	adds	r5, r6, #3
 80042ac:	f005 0607 	and.w	r6, r5, #7
 80042b0:	fa0e f606 	lsl.w	r6, lr, r6
 80042b4:	f3c5 05cc 	ubfx	r5, r5, #3, #13
 80042b8:	2f04      	cmp	r7, #4
 80042ba:	f888 601f 	strb.w	r6, [r8, #31]
 80042be:	f888 501e 	strb.w	r5, [r8, #30]
 80042c2:	d06b      	beq.n	800439c <parse_report_descriptor+0x4f8>
 80042c4:	9e00      	ldr	r6, [sp, #0]
 80042c6:	1d35      	adds	r5, r6, #4
 80042c8:	f005 0607 	and.w	r6, r5, #7
 80042cc:	fa0e f606 	lsl.w	r6, lr, r6
 80042d0:	f3c5 05cc 	ubfx	r5, r5, #3, #13
 80042d4:	2f05      	cmp	r7, #5
 80042d6:	f888 6021 	strb.w	r6, [r8, #33]	; 0x21
 80042da:	f888 5020 	strb.w	r5, [r8, #32]
 80042de:	d05d      	beq.n	800439c <parse_report_descriptor+0x4f8>
 80042e0:	9e00      	ldr	r6, [sp, #0]
 80042e2:	1d75      	adds	r5, r6, #5
 80042e4:	f005 0607 	and.w	r6, r5, #7
 80042e8:	fa0e f606 	lsl.w	r6, lr, r6
 80042ec:	f3c5 05cc 	ubfx	r5, r5, #3, #13
 80042f0:	2f06      	cmp	r7, #6
 80042f2:	f888 6023 	strb.w	r6, [r8, #35]	; 0x23
 80042f6:	f888 5022 	strb.w	r5, [r8, #34]	; 0x22
 80042fa:	d04f      	beq.n	800439c <parse_report_descriptor+0x4f8>
 80042fc:	9e00      	ldr	r6, [sp, #0]
 80042fe:	1db5      	adds	r5, r6, #6
 8004300:	f005 0607 	and.w	r6, r5, #7
 8004304:	fa0e f606 	lsl.w	r6, lr, r6
 8004308:	f3c5 05cc 	ubfx	r5, r5, #3, #13
 800430c:	2f07      	cmp	r7, #7
 800430e:	f888 6025 	strb.w	r6, [r8, #37]	; 0x25
 8004312:	f888 5024 	strb.w	r5, [r8, #36]	; 0x24
 8004316:	d041      	beq.n	800439c <parse_report_descriptor+0x4f8>
 8004318:	9e00      	ldr	r6, [sp, #0]
 800431a:	1df5      	adds	r5, r6, #7
 800431c:	f005 0607 	and.w	r6, r5, #7
 8004320:	fa0e f606 	lsl.w	r6, lr, r6
 8004324:	f3c5 05cc 	ubfx	r5, r5, #3, #13
 8004328:	2f08      	cmp	r7, #8
 800432a:	f888 6027 	strb.w	r6, [r8, #39]	; 0x27
 800432e:	f888 5026 	strb.w	r5, [r8, #38]	; 0x26
 8004332:	463e      	mov	r6, r7
 8004334:	d032      	beq.n	800439c <parse_report_descriptor+0x4f8>
 8004336:	9f00      	ldr	r7, [sp, #0]
 8004338:	f888 4029 	strb.w	r4, [r8, #41]	; 0x29
 800433c:	f107 0508 	add.w	r5, r7, #8
 8004340:	f3c5 05cc 	ubfx	r5, r5, #3, #13
 8004344:	2e09      	cmp	r6, #9
 8004346:	f888 5028 	strb.w	r5, [r8, #40]	; 0x28
 800434a:	d027      	beq.n	800439c <parse_report_descriptor+0x4f8>
 800434c:	f107 0409 	add.w	r4, r7, #9
 8004350:	f004 0507 	and.w	r5, r4, #7
 8004354:	fa0e f505 	lsl.w	r5, lr, r5
 8004358:	f3c4 04cc 	ubfx	r4, r4, #3, #13
 800435c:	2e0a      	cmp	r6, #10
 800435e:	f888 502b 	strb.w	r5, [r8, #43]	; 0x2b
 8004362:	f888 402a 	strb.w	r4, [r8, #42]	; 0x2a
 8004366:	d019      	beq.n	800439c <parse_report_descriptor+0x4f8>
 8004368:	463c      	mov	r4, r7
 800436a:	340a      	adds	r4, #10
 800436c:	f004 0507 	and.w	r5, r4, #7
 8004370:	fa0e f505 	lsl.w	r5, lr, r5
 8004374:	f3c4 04cc 	ubfx	r4, r4, #3, #13
 8004378:	2e0b      	cmp	r6, #11
 800437a:	f888 502d 	strb.w	r5, [r8, #45]	; 0x2d
 800437e:	f888 402c 	strb.w	r4, [r8, #44]	; 0x2c
 8004382:	d00b      	beq.n	800439c <parse_report_descriptor+0x4f8>
 8004384:	f107 040b 	add.w	r4, r7, #11
 8004388:	f004 0507 	and.w	r5, r4, #7
 800438c:	fa0e f505 	lsl.w	r5, lr, r5
 8004390:	f3c4 04cc 	ubfx	r4, r4, #3, #13
 8004394:	f888 502f 	strb.w	r5, [r8, #47]	; 0x2f
 8004398:	f888 402e 	strb.w	r4, [r8, #46]	; 0x2e
 800439c:	9c04      	ldr	r4, [sp, #16]
 800439e:	f044 040c 	orr.w	r4, r4, #12
 80043a2:	9404      	str	r4, [sp, #16]
 80043a4:	9c03      	ldr	r4, [sp, #12]
 80043a6:	2c00      	cmp	r4, #0
 80043a8:	f6ff af04 	blt.w	80041b4 <parse_report_descriptor+0x310>
 80043ac:	f8bd 4004 	ldrh.w	r4, [sp, #4]
 80043b0:	9d03      	ldr	r5, [sp, #12]
 80043b2:	9e00      	ldr	r6, [sp, #0]
 80043b4:	fb15 f504 	smulbb	r5, r5, r4
 80043b8:	4435      	add	r5, r6
 80043ba:	f8a8 5008 	strh.w	r5, [r8, #8]
 80043be:	9d06      	ldr	r5, [sp, #24]
 80043c0:	f8a8 500c 	strh.w	r5, [r8, #12]
 80043c4:	9d09      	ldr	r5, [sp, #36]	; 0x24
 80043c6:	f8a8 500e 	strh.w	r5, [r8, #14]
 80043ca:	9d01      	ldr	r5, [sp, #4]
 80043cc:	f888 500a 	strb.w	r5, [r8, #10]
 80043d0:	9d04      	ldr	r5, [sp, #16]
 80043d2:	f1b9 0f00 	cmp.w	r9, #0
 80043d6:	f045 0501 	orr.w	r5, r5, #1
 80043da:	9504      	str	r5, [sp, #16]
 80043dc:	f6bf aef3 	bge.w	80041c6 <parse_report_descriptor+0x322>
 80043e0:	e704      	b.n	80041ec <parse_report_descriptor+0x348>
 80043e2:	2b02      	cmp	r3, #2
 80043e4:	f47f ae4a 	bne.w	800407c <parse_report_descriptor+0x1d8>
 80043e8:	2001      	movs	r0, #1
 80043ea:	e59c      	b.n	8003f26 <parse_report_descriptor+0x82>
 80043ec:	9b05      	ldr	r3, [sp, #20]
 80043ee:	3301      	adds	r3, #1
 80043f0:	b25b      	sxtb	r3, r3
 80043f2:	9305      	str	r3, [sp, #20]
 80043f4:	2600      	movs	r6, #0
 80043f6:	2900      	cmp	r1, #0
 80043f8:	f47f ad77 	bne.w	8003eea <parse_report_descriptor+0x46>
 80043fc:	e592      	b.n	8003f24 <parse_report_descriptor+0x80>
 80043fe:	9b05      	ldr	r3, [sp, #20]
 8004400:	2b00      	cmp	r3, #0
 8004402:	f43f adf9 	beq.w	8003ff8 <parse_report_descriptor+0x154>
 8004406:	f898 3000 	ldrb.w	r3, [r8]
 800440a:	07db      	lsls	r3, r3, #31
 800440c:	f57f adf4 	bpl.w	8003ff8 <parse_report_descriptor+0x154>
 8004410:	2d30      	cmp	r5, #48	; 0x30
 8004412:	bf06      	itte	eq
 8004414:	b273      	sxtbeq	r3, r6
 8004416:	9303      	streq	r3, [sp, #12]
 8004418:	fa4f f986 	sxtbne.w	r9, r6
 800441c:	e5ec      	b.n	8003ff8 <parse_report_descriptor+0x154>
 800441e:	f898 3000 	ldrb.w	r3, [r8]
 8004422:	2401      	movs	r4, #1
 8004424:	f364 0301 	bfi	r3, r4, #0, #2
 8004428:	f888 3000 	strb.w	r3, [r8]
 800442c:	e5e4      	b.n	8003ff8 <parse_report_descriptor+0x154>
 800442e:	9b04      	ldr	r3, [sp, #16]
 8004430:	f003 0307 	and.w	r3, r3, #7
 8004434:	2b07      	cmp	r3, #7
 8004436:	f47f ae21 	bne.w	800407c <parse_report_descriptor+0x1d8>
 800443a:	e7d5      	b.n	80043e8 <parse_report_descriptor+0x544>
 800443c:	9d08      	ldr	r5, [sp, #32]
 800443e:	fb13 f305 	smulbb	r3, r3, r5
 8004442:	e6d3      	b.n	80041ec <parse_report_descriptor+0x348>
 8004444:	f888 3034 	strb.w	r3, [r8, #52]	; 0x34
 8004448:	9c04      	ldr	r4, [sp, #16]
 800444a:	f044 0404 	orr.w	r4, r4, #4
 800444e:	9404      	str	r4, [sp, #16]
 8004450:	e7a8      	b.n	80043a4 <parse_report_descriptor+0x500>
 8004452:	9d08      	ldr	r5, [sp, #32]
 8004454:	fb13 f305 	smulbb	r3, r3, r5
 8004458:	e7aa      	b.n	80043b0 <parse_report_descriptor+0x50c>
 800445a:	2000      	movs	r0, #0
 800445c:	4770      	bx	lr
 800445e:	3902      	subs	r1, #2
 8004460:	b289      	uxth	r1, r1
 8004462:	3002      	adds	r0, #2
 8004464:	e54c      	b.n	8003f00 <parse_report_descriptor+0x5c>
 8004466:	bf00      	nop

08004468 <USBH_Init>:
 8004468:	b388      	cbz	r0, 80044ce <USBH_Init+0x66>
 800446a:	b570      	push	{r4, r5, r6, lr}
 800446c:	2500      	movs	r5, #0
 800446e:	4604      	mov	r4, r0
 8004470:	f880 23cc 	strb.w	r2, [r0, #972]	; 0x3cc
 8004474:	e9c0 55df 	strd	r5, r5, [r0, #892]	; 0x37c
 8004478:	223c      	movs	r2, #60	; 0x3c
 800447a:	460e      	mov	r6, r1
 800447c:	f500 7061 	add.w	r0, r0, #900	; 0x384
 8004480:	4629      	mov	r1, r5
 8004482:	f001 fccf 	bl	8005e24 <memset>
 8004486:	4629      	mov	r1, r5
 8004488:	f44f 7200 	mov.w	r2, #512	; 0x200
 800448c:	f504 708e 	add.w	r0, r4, #284	; 0x11c
 8004490:	f001 fcc8 	bl	8005e24 <memset>
 8004494:	2301      	movs	r3, #1
 8004496:	2140      	movs	r1, #64	; 0x40
 8004498:	f44f 7280 	mov.w	r2, #256	; 0x100
 800449c:	7025      	strb	r5, [r4, #0]
 800449e:	7065      	strb	r5, [r4, #1]
 80044a0:	f8c4 53c4 	str.w	r5, [r4, #964]	; 0x3c4
 80044a4:	f884 5323 	strb.w	r5, [r4, #803]	; 0x323
 80044a8:	f884 5320 	strb.w	r5, [r4, #800]	; 0x320
 80044ac:	70a3      	strb	r3, [r4, #2]
 80044ae:	f884 5321 	strb.w	r5, [r4, #801]	; 0x321
 80044b2:	8323      	strh	r3, [r4, #24]
 80044b4:	f884 5322 	strb.w	r5, [r4, #802]	; 0x322
 80044b8:	71a1      	strb	r1, [r4, #6]
 80044ba:	f8c4 231c 	str.w	r2, [r4, #796]	; 0x31c
 80044be:	b10e      	cbz	r6, 80044c4 <USBH_Init+0x5c>
 80044c0:	f8c4 63d4 	str.w	r6, [r4, #980]	; 0x3d4
 80044c4:	4620      	mov	r0, r4
 80044c6:	f001 fbad 	bl	8005c24 <USBH_LL_Init>
 80044ca:	2000      	movs	r0, #0
 80044cc:	bd70      	pop	{r4, r5, r6, pc}
 80044ce:	2002      	movs	r0, #2
 80044d0:	4770      	bx	lr
 80044d2:	bf00      	nop

080044d4 <USBH_RegisterClass>:
 80044d4:	4603      	mov	r3, r0
 80044d6:	b141      	cbz	r1, 80044ea <USBH_RegisterClass+0x16>
 80044d8:	f8d0 0380 	ldr.w	r0, [r0, #896]	; 0x380
 80044dc:	b928      	cbnz	r0, 80044ea <USBH_RegisterClass+0x16>
 80044de:	2201      	movs	r2, #1
 80044e0:	f8c3 1378 	str.w	r1, [r3, #888]	; 0x378
 80044e4:	f8c3 2380 	str.w	r2, [r3, #896]	; 0x380
 80044e8:	4770      	bx	lr
 80044ea:	2002      	movs	r0, #2
 80044ec:	4770      	bx	lr
 80044ee:	bf00      	nop

080044f0 <USBH_SelectInterface>:
 80044f0:	f890 333c 	ldrb.w	r3, [r0, #828]	; 0x33c
 80044f4:	428b      	cmp	r3, r1
 80044f6:	bf86      	itte	hi
 80044f8:	f880 1324 	strbhi.w	r1, [r0, #804]	; 0x324
 80044fc:	2000      	movhi	r0, #0
 80044fe:	2002      	movls	r0, #2
 8004500:	4770      	bx	lr
 8004502:	bf00      	nop

08004504 <USBH_Start>:
 8004504:	b510      	push	{r4, lr}
 8004506:	4604      	mov	r4, r0
 8004508:	f001 fbba 	bl	8005c80 <USBH_LL_Start>
 800450c:	4620      	mov	r0, r4
 800450e:	2101      	movs	r1, #1
 8004510:	f001 fc36 	bl	8005d80 <USBH_LL_DriverVBUS>
 8004514:	2000      	movs	r0, #0
 8004516:	bd10      	pop	{r4, pc}

08004518 <USBH_Process>:
 8004518:	b570      	push	{r4, r5, r6, lr}
 800451a:	b086      	sub	sp, #24
 800451c:	2302      	movs	r3, #2
 800451e:	f88d 3017 	strb.w	r3, [sp, #23]
 8004522:	f890 3321 	ldrb.w	r3, [r0, #801]	; 0x321
 8004526:	2b01      	cmp	r3, #1
 8004528:	bf04      	itt	eq
 800452a:	2303      	moveq	r3, #3
 800452c:	7003      	strbeq	r3, [r0, #0]
 800452e:	7803      	ldrb	r3, [r0, #0]
 8004530:	4604      	mov	r4, r0
 8004532:	2b0b      	cmp	r3, #11
 8004534:	d841      	bhi.n	80045ba <USBH_Process+0xa2>
 8004536:	e8df f013 	tbh	[pc, r3, lsl #1]
 800453a:	004a      	.short	0x004a
 800453c:	0073005c 	.word	0x0073005c
 8004540:	0040000c 	.word	0x0040000c
 8004544:	00b200a8 	.word	0x00b200a8
 8004548:	00ef00c1 	.word	0x00ef00c1
 800454c:	00d300cb 	.word	0x00d300cb
 8004550:	0043      	.short	0x0043
 8004552:	2500      	movs	r5, #0
 8004554:	f880 5321 	strb.w	r5, [r0, #801]	; 0x321
 8004558:	4629      	mov	r1, r5
 800455a:	223c      	movs	r2, #60	; 0x3c
 800455c:	f500 7061 	add.w	r0, r0, #900	; 0x384
 8004560:	f001 fc60 	bl	8005e24 <memset>
 8004564:	4629      	mov	r1, r5
 8004566:	f44f 7200 	mov.w	r2, #512	; 0x200
 800456a:	f504 708e 	add.w	r0, r4, #284	; 0x11c
 800456e:	f001 fc59 	bl	8005e24 <memset>
 8004572:	f8d4 237c 	ldr.w	r2, [r4, #892]	; 0x37c
 8004576:	7025      	strb	r5, [r4, #0]
 8004578:	2301      	movs	r3, #1
 800457a:	2040      	movs	r0, #64	; 0x40
 800457c:	f44f 7180 	mov.w	r1, #256	; 0x100
 8004580:	7065      	strb	r5, [r4, #1]
 8004582:	f8c4 53c4 	str.w	r5, [r4, #964]	; 0x3c4
 8004586:	70a3      	strb	r3, [r4, #2]
 8004588:	8323      	strh	r3, [r4, #24]
 800458a:	71a0      	strb	r0, [r4, #6]
 800458c:	f8c4 131c 	str.w	r1, [r4, #796]	; 0x31c
 8004590:	b122      	cbz	r2, 800459c <USBH_Process+0x84>
 8004592:	68d3      	ldr	r3, [r2, #12]
 8004594:	4620      	mov	r0, r4
 8004596:	4798      	blx	r3
 8004598:	f8c4 537c 	str.w	r5, [r4, #892]	; 0x37c
 800459c:	f8d4 33d4 	ldr.w	r3, [r4, #980]	; 0x3d4
 80045a0:	b113      	cbz	r3, 80045a8 <USBH_Process+0x90>
 80045a2:	2105      	movs	r1, #5
 80045a4:	4620      	mov	r0, r4
 80045a6:	4798      	blx	r3
 80045a8:	f894 3322 	ldrb.w	r3, [r4, #802]	; 0x322
 80045ac:	2b01      	cmp	r3, #1
 80045ae:	b2dd      	uxtb	r5, r3
 80045b0:	f000 8136 	beq.w	8004820 <USBH_Process+0x308>
 80045b4:	4620      	mov	r0, r4
 80045b6:	f001 fb63 	bl	8005c80 <USBH_LL_Start>
 80045ba:	2000      	movs	r0, #0
 80045bc:	b006      	add	sp, #24
 80045be:	bd70      	pop	{r4, r5, r6, pc}
 80045c0:	f8d0 337c 	ldr.w	r3, [r0, #892]	; 0x37c
 80045c4:	2b00      	cmp	r3, #0
 80045c6:	d0f8      	beq.n	80045ba <USBH_Process+0xa2>
 80045c8:	695b      	ldr	r3, [r3, #20]
 80045ca:	4798      	blx	r3
 80045cc:	e7f5      	b.n	80045ba <USBH_Process+0xa2>
 80045ce:	f890 3320 	ldrb.w	r3, [r0, #800]	; 0x320
 80045d2:	2b00      	cmp	r3, #0
 80045d4:	d0f1      	beq.n	80045ba <USBH_Process+0xa2>
 80045d6:	2301      	movs	r3, #1
 80045d8:	7003      	strb	r3, [r0, #0]
 80045da:	20c8      	movs	r0, #200	; 0xc8
 80045dc:	f001 fbe6 	bl	8005dac <USBH_Delay>
 80045e0:	4620      	mov	r0, r4
 80045e2:	f001 fb73 	bl	8005ccc <USBH_LL_ResetPort>
 80045e6:	2300      	movs	r3, #0
 80045e8:	f884 331c 	strb.w	r3, [r4, #796]	; 0x31c
 80045ec:	f8c4 33c8 	str.w	r3, [r4, #968]	; 0x3c8
 80045f0:	e7e3      	b.n	80045ba <USBH_Process+0xa2>
 80045f2:	f890 3323 	ldrb.w	r3, [r0, #803]	; 0x323
 80045f6:	2b01      	cmp	r3, #1
 80045f8:	f000 810c 	beq.w	8004814 <USBH_Process+0x2fc>
 80045fc:	f8d0 33c8 	ldr.w	r3, [r0, #968]	; 0x3c8
 8004600:	f5b3 7f7a 	cmp.w	r3, #1000	; 0x3e8
 8004604:	f240 809a 	bls.w	800473c <USBH_Process+0x224>
 8004608:	f890 331f 	ldrb.w	r3, [r0, #799]	; 0x31f
 800460c:	3301      	adds	r3, #1
 800460e:	b2db      	uxtb	r3, r3
 8004610:	2b03      	cmp	r3, #3
 8004612:	f880 331f 	strb.w	r3, [r0, #799]	; 0x31f
 8004616:	f200 808e 	bhi.w	8004736 <USBH_Process+0x21e>
 800461a:	2300      	movs	r3, #0
 800461c:	7003      	strb	r3, [r0, #0]
 800461e:	e7cc      	b.n	80045ba <USBH_Process+0xa2>
 8004620:	f8d0 33d4 	ldr.w	r3, [r0, #980]	; 0x3d4
 8004624:	b10b      	cbz	r3, 800462a <USBH_Process+0x112>
 8004626:	2104      	movs	r1, #4
 8004628:	4798      	blx	r3
 800462a:	2064      	movs	r0, #100	; 0x64
 800462c:	f001 fbbe 	bl	8005dac <USBH_Delay>
 8004630:	4620      	mov	r0, r4
 8004632:	f001 fb41 	bl	8005cb8 <USBH_LL_GetSpeed>
 8004636:	2305      	movs	r3, #5
 8004638:	7023      	strb	r3, [r4, #0]
 800463a:	f884 031d 	strb.w	r0, [r4, #797]	; 0x31d
 800463e:	2100      	movs	r1, #0
 8004640:	4620      	mov	r0, r4
 8004642:	f001 f9ed 	bl	8005a20 <USBH_AllocPipe>
 8004646:	2180      	movs	r1, #128	; 0x80
 8004648:	7160      	strb	r0, [r4, #5]
 800464a:	4620      	mov	r0, r4
 800464c:	f001 f9e8 	bl	8005a20 <USBH_AllocPipe>
 8004650:	79a2      	ldrb	r2, [r4, #6]
 8004652:	f894 331d 	ldrb.w	r3, [r4, #797]	; 0x31d
 8004656:	7120      	strb	r0, [r4, #4]
 8004658:	2500      	movs	r5, #0
 800465a:	e9cd 5201 	strd	r5, r2, [sp, #4]
 800465e:	9300      	str	r3, [sp, #0]
 8004660:	f894 331c 	ldrb.w	r3, [r4, #796]	; 0x31c
 8004664:	4601      	mov	r1, r0
 8004666:	2280      	movs	r2, #128	; 0x80
 8004668:	4620      	mov	r0, r4
 800466a:	f001 f9c3 	bl	80059f4 <USBH_OpenPipe>
 800466e:	79a1      	ldrb	r1, [r4, #6]
 8004670:	f894 331d 	ldrb.w	r3, [r4, #797]	; 0x31d
 8004674:	9300      	str	r3, [sp, #0]
 8004676:	9501      	str	r5, [sp, #4]
 8004678:	9102      	str	r1, [sp, #8]
 800467a:	f894 331c 	ldrb.w	r3, [r4, #796]	; 0x31c
 800467e:	7961      	ldrb	r1, [r4, #5]
 8004680:	462a      	mov	r2, r5
 8004682:	4620      	mov	r0, r4
 8004684:	f001 f9b6 	bl	80059f4 <USBH_OpenPipe>
 8004688:	e797      	b.n	80045ba <USBH_Process+0xa2>
 800468a:	7845      	ldrb	r5, [r0, #1]
 800468c:	2d07      	cmp	r5, #7
 800468e:	f200 8093 	bhi.w	80047b8 <USBH_Process+0x2a0>
 8004692:	e8df f005 	tbb	[pc, r5]
 8004696:	a2aa      	.short	0xa2aa
 8004698:	5a747e87 	.word	0x5a747e87
 800469c:	939a      	.short	0x939a
 800469e:	f8d0 337c 	ldr.w	r3, [r0, #892]	; 0x37c
 80046a2:	2b00      	cmp	r3, #0
 80046a4:	d047      	beq.n	8004736 <USBH_Process+0x21e>
 80046a6:	691b      	ldr	r3, [r3, #16]
 80046a8:	4798      	blx	r3
 80046aa:	f88d 0017 	strb.w	r0, [sp, #23]
 80046ae:	f89d 3017 	ldrb.w	r3, [sp, #23]
 80046b2:	2b00      	cmp	r3, #0
 80046b4:	d13a      	bne.n	800472c <USBH_Process+0x214>
 80046b6:	230b      	movs	r3, #11
 80046b8:	7023      	strb	r3, [r4, #0]
 80046ba:	e77e      	b.n	80045ba <USBH_Process+0xa2>
 80046bc:	f8d0 33d4 	ldr.w	r3, [r0, #980]	; 0x3d4
 80046c0:	2b00      	cmp	r3, #0
 80046c2:	f43f af7a 	beq.w	80045ba <USBH_Process+0xa2>
 80046c6:	2101      	movs	r1, #1
 80046c8:	4798      	blx	r3
 80046ca:	2308      	movs	r3, #8
 80046cc:	7023      	strb	r3, [r4, #0]
 80046ce:	e774      	b.n	80045ba <USBH_Process+0xa2>
 80046d0:	f890 333f 	ldrb.w	r3, [r0, #831]	; 0x33f
 80046d4:	069b      	lsls	r3, r3, #26
 80046d6:	f100 80ae 	bmi.w	8004836 <USBH_Process+0x31e>
 80046da:	230a      	movs	r3, #10
 80046dc:	7023      	strb	r3, [r4, #0]
 80046de:	e76c      	b.n	80045ba <USBH_Process+0xa2>
 80046e0:	f8d0 3380 	ldr.w	r3, [r0, #896]	; 0x380
 80046e4:	2b00      	cmp	r3, #0
 80046e6:	f43f af68 	beq.w	80045ba <USBH_Process+0xa2>
 80046ea:	2200      	movs	r2, #0
 80046ec:	f8d0 3378 	ldr.w	r3, [r0, #888]	; 0x378
 80046f0:	f8c0 237c 	str.w	r2, [r0, #892]	; 0x37c
 80046f4:	7919      	ldrb	r1, [r3, #4]
 80046f6:	f890 2347 	ldrb.w	r2, [r0, #839]	; 0x347
 80046fa:	4291      	cmp	r1, r2
 80046fc:	d11b      	bne.n	8004736 <USBH_Process+0x21e>
 80046fe:	f8c0 337c 	str.w	r3, [r0, #892]	; 0x37c
 8004702:	689b      	ldr	r3, [r3, #8]
 8004704:	4798      	blx	r3
 8004706:	b9b0      	cbnz	r0, 8004736 <USBH_Process+0x21e>
 8004708:	2306      	movs	r3, #6
 800470a:	7023      	strb	r3, [r4, #0]
 800470c:	4620      	mov	r0, r4
 800470e:	f8d4 33d4 	ldr.w	r3, [r4, #980]	; 0x3d4
 8004712:	2103      	movs	r1, #3
 8004714:	4798      	blx	r3
 8004716:	e750      	b.n	80045ba <USBH_Process+0xa2>
 8004718:	f890 133d 	ldrb.w	r1, [r0, #829]	; 0x33d
 800471c:	f000 fdce 	bl	80052bc <USBH_SetCfg>
 8004720:	2800      	cmp	r0, #0
 8004722:	f47f af4a 	bne.w	80045ba <USBH_Process+0xa2>
 8004726:	2309      	movs	r3, #9
 8004728:	7023      	strb	r3, [r4, #0]
 800472a:	e746      	b.n	80045ba <USBH_Process+0xa2>
 800472c:	f89d 3017 	ldrb.w	r3, [sp, #23]
 8004730:	2b02      	cmp	r3, #2
 8004732:	f47f af42 	bne.w	80045ba <USBH_Process+0xa2>
 8004736:	230d      	movs	r3, #13
 8004738:	7023      	strb	r3, [r4, #0]
 800473a:	e73e      	b.n	80045ba <USBH_Process+0xa2>
 800473c:	330a      	adds	r3, #10
 800473e:	f8c0 33c8 	str.w	r3, [r0, #968]	; 0x3c8
 8004742:	200a      	movs	r0, #10
 8004744:	f001 fb32 	bl	8005dac <USBH_Delay>
 8004748:	e737      	b.n	80045ba <USBH_Process+0xa2>
 800474a:	f890 1334 	ldrb.w	r1, [r0, #820]	; 0x334
 800474e:	2900      	cmp	r1, #0
 8004750:	f040 80d1 	bne.w	80048f6 <USBH_Process+0x3de>
 8004754:	2306      	movs	r3, #6
 8004756:	7063      	strb	r3, [r4, #1]
 8004758:	2501      	movs	r5, #1
 800475a:	f88d 5017 	strb.w	r5, [sp, #23]
 800475e:	f89d 3017 	ldrb.w	r3, [sp, #23]
 8004762:	f003 02ff 	and.w	r2, r3, #255	; 0xff
 8004766:	2b00      	cmp	r3, #0
 8004768:	f47f af27 	bne.w	80045ba <USBH_Process+0xa2>
 800476c:	f894 3337 	ldrb.w	r3, [r4, #823]	; 0x337
 8004770:	f884 2324 	strb.w	r2, [r4, #804]	; 0x324
 8004774:	2b01      	cmp	r3, #1
 8004776:	d0a8      	beq.n	80046ca <USBH_Process+0x1b2>
 8004778:	2307      	movs	r3, #7
 800477a:	7023      	strb	r3, [r4, #0]
 800477c:	e71d      	b.n	80045ba <USBH_Process+0xa2>
 800477e:	f8b0 133a 	ldrh.w	r1, [r0, #826]	; 0x33a
 8004782:	f000 faf3 	bl	8004d6c <USBH_Get_CfgDesc>
 8004786:	2800      	cmp	r0, #0
 8004788:	d15c      	bne.n	8004844 <USBH_Process+0x32c>
 800478a:	2305      	movs	r3, #5
 800478c:	7063      	strb	r3, [r4, #1]
 800478e:	2501      	movs	r5, #1
 8004790:	e7e3      	b.n	800475a <USBH_Process+0x242>
 8004792:	2109      	movs	r1, #9
 8004794:	f000 faea 	bl	8004d6c <USBH_Get_CfgDesc>
 8004798:	2800      	cmp	r0, #0
 800479a:	d153      	bne.n	8004844 <USBH_Process+0x32c>
 800479c:	2304      	movs	r3, #4
 800479e:	7063      	strb	r3, [r4, #1]
 80047a0:	2501      	movs	r5, #1
 80047a2:	e7da      	b.n	800475a <USBH_Process+0x242>
 80047a4:	2101      	movs	r1, #1
 80047a6:	f000 fcb3 	bl	8005110 <USBH_SetAddress>
 80047aa:	4606      	mov	r6, r0
 80047ac:	2800      	cmp	r0, #0
 80047ae:	f000 80ae 	beq.w	800490e <USBH_Process+0x3f6>
 80047b2:	2803      	cmp	r0, #3
 80047b4:	f000 80bd 	beq.w	8004932 <USBH_Process+0x41a>
 80047b8:	2501      	movs	r5, #1
 80047ba:	e7ce      	b.n	800475a <USBH_Process+0x242>
 80047bc:	f890 1336 	ldrb.w	r1, [r0, #822]	; 0x336
 80047c0:	2900      	cmp	r1, #0
 80047c2:	f040 808c 	bne.w	80048de <USBH_Process+0x3c6>
 80047c6:	2500      	movs	r5, #0
 80047c8:	e7c7      	b.n	800475a <USBH_Process+0x242>
 80047ca:	f890 1335 	ldrb.w	r1, [r0, #821]	; 0x335
 80047ce:	2900      	cmp	r1, #0
 80047d0:	d15c      	bne.n	800488c <USBH_Process+0x374>
 80047d2:	2307      	movs	r3, #7
 80047d4:	7063      	strb	r3, [r4, #1]
 80047d6:	2501      	movs	r5, #1
 80047d8:	e7bf      	b.n	800475a <USBH_Process+0x242>
 80047da:	2112      	movs	r1, #18
 80047dc:	f000 f9c8 	bl	8004b70 <USBH_Get_DevDesc>
 80047e0:	2800      	cmp	r0, #0
 80047e2:	d146      	bne.n	8004872 <USBH_Process+0x35a>
 80047e4:	2302      	movs	r3, #2
 80047e6:	7063      	strb	r3, [r4, #1]
 80047e8:	e7b7      	b.n	800475a <USBH_Process+0x242>
 80047ea:	2108      	movs	r1, #8
 80047ec:	f000 f9c0 	bl	8004b70 <USBH_Get_DevDesc>
 80047f0:	4606      	mov	r6, r0
 80047f2:	2800      	cmp	r0, #0
 80047f4:	d054      	beq.n	80048a0 <USBH_Process+0x388>
 80047f6:	2803      	cmp	r0, #3
 80047f8:	d1de      	bne.n	80047b8 <USBH_Process+0x2a0>
 80047fa:	f894 331e 	ldrb.w	r3, [r4, #798]	; 0x31e
 80047fe:	3301      	adds	r3, #1
 8004800:	b2db      	uxtb	r3, r3
 8004802:	2b03      	cmp	r3, #3
 8004804:	f884 331e 	strb.w	r3, [r4, #798]	; 0x31e
 8004808:	f240 80a5 	bls.w	8004956 <USBH_Process+0x43e>
 800480c:	230d      	movs	r3, #13
 800480e:	7023      	strb	r3, [r4, #0]
 8004810:	2501      	movs	r5, #1
 8004812:	e7a2      	b.n	800475a <USBH_Process+0x242>
 8004814:	2200      	movs	r2, #0
 8004816:	2302      	movs	r3, #2
 8004818:	f880 231f 	strb.w	r2, [r0, #799]	; 0x31f
 800481c:	7003      	strb	r3, [r0, #0]
 800481e:	e6cc      	b.n	80045ba <USBH_Process+0xa2>
 8004820:	2300      	movs	r3, #0
 8004822:	f884 3322 	strb.w	r3, [r4, #802]	; 0x322
 8004826:	4620      	mov	r0, r4
 8004828:	f001 fa2a 	bl	8005c80 <USBH_LL_Start>
 800482c:	4629      	mov	r1, r5
 800482e:	4620      	mov	r0, r4
 8004830:	f001 faa6 	bl	8005d80 <USBH_LL_DriverVBUS>
 8004834:	e6c1      	b.n	80045ba <USBH_Process+0xa2>
 8004836:	2101      	movs	r1, #1
 8004838:	f000 fe16 	bl	8005468 <USBH_SetFeature>
 800483c:	2800      	cmp	r0, #0
 800483e:	f47f aebc 	bne.w	80045ba <USBH_Process+0xa2>
 8004842:	e74a      	b.n	80046da <USBH_Process+0x1c2>
 8004844:	2803      	cmp	r0, #3
 8004846:	d1b7      	bne.n	80047b8 <USBH_Process+0x2a0>
 8004848:	f894 331e 	ldrb.w	r3, [r4, #798]	; 0x31e
 800484c:	3301      	adds	r3, #1
 800484e:	b2db      	uxtb	r3, r3
 8004850:	2b03      	cmp	r3, #3
 8004852:	f884 331e 	strb.w	r3, [r4, #798]	; 0x31e
 8004856:	d8d9      	bhi.n	800480c <USBH_Process+0x2f4>
 8004858:	7961      	ldrb	r1, [r4, #5]
 800485a:	4620      	mov	r0, r4
 800485c:	f001 f92e 	bl	8005abc <USBH_FreePipe>
 8004860:	7921      	ldrb	r1, [r4, #4]
 8004862:	4620      	mov	r0, r4
 8004864:	f001 f92a 	bl	8005abc <USBH_FreePipe>
 8004868:	2300      	movs	r3, #0
 800486a:	7063      	strb	r3, [r4, #1]
 800486c:	7023      	strb	r3, [r4, #0]
 800486e:	2501      	movs	r5, #1
 8004870:	e773      	b.n	800475a <USBH_Process+0x242>
 8004872:	2803      	cmp	r0, #3
 8004874:	d1a0      	bne.n	80047b8 <USBH_Process+0x2a0>
 8004876:	f894 331e 	ldrb.w	r3, [r4, #798]	; 0x31e
 800487a:	3301      	adds	r3, #1
 800487c:	b2db      	uxtb	r3, r3
 800487e:	2b03      	cmp	r3, #3
 8004880:	f884 331e 	strb.w	r3, [r4, #798]	; 0x31e
 8004884:	d95b      	bls.n	800493e <USBH_Process+0x426>
 8004886:	230d      	movs	r3, #13
 8004888:	7023      	strb	r3, [r4, #0]
 800488a:	e766      	b.n	800475a <USBH_Process+0x242>
 800488c:	23ff      	movs	r3, #255	; 0xff
 800488e:	f500 728e 	add.w	r2, r0, #284	; 0x11c
 8004892:	f000 fb07 	bl	8004ea4 <USBH_Get_StringDesc>
 8004896:	2800      	cmp	r0, #0
 8004898:	d09b      	beq.n	80047d2 <USBH_Process+0x2ba>
 800489a:	2803      	cmp	r0, #3
 800489c:	d18c      	bne.n	80047b8 <USBH_Process+0x2a0>
 800489e:	e798      	b.n	80047d2 <USBH_Process+0x2ba>
 80048a0:	f894 332d 	ldrb.w	r3, [r4, #813]	; 0x32d
 80048a4:	f894 231d 	ldrb.w	r2, [r4, #797]	; 0x31d
 80048a8:	9001      	str	r0, [sp, #4]
 80048aa:	2501      	movs	r5, #1
 80048ac:	71a3      	strb	r3, [r4, #6]
 80048ae:	9302      	str	r3, [sp, #8]
 80048b0:	7065      	strb	r5, [r4, #1]
 80048b2:	9200      	str	r2, [sp, #0]
 80048b4:	f894 331c 	ldrb.w	r3, [r4, #796]	; 0x31c
 80048b8:	7921      	ldrb	r1, [r4, #4]
 80048ba:	2280      	movs	r2, #128	; 0x80
 80048bc:	4620      	mov	r0, r4
 80048be:	f001 f899 	bl	80059f4 <USBH_OpenPipe>
 80048c2:	79a1      	ldrb	r1, [r4, #6]
 80048c4:	f894 331d 	ldrb.w	r3, [r4, #797]	; 0x31d
 80048c8:	9300      	str	r3, [sp, #0]
 80048ca:	9601      	str	r6, [sp, #4]
 80048cc:	9102      	str	r1, [sp, #8]
 80048ce:	f894 331c 	ldrb.w	r3, [r4, #796]	; 0x31c
 80048d2:	7961      	ldrb	r1, [r4, #5]
 80048d4:	4632      	mov	r2, r6
 80048d6:	4620      	mov	r0, r4
 80048d8:	f001 f88c 	bl	80059f4 <USBH_OpenPipe>
 80048dc:	e73d      	b.n	800475a <USBH_Process+0x242>
 80048de:	23ff      	movs	r3, #255	; 0xff
 80048e0:	f500 728e 	add.w	r2, r0, #284	; 0x11c
 80048e4:	f000 fade 	bl	8004ea4 <USBH_Get_StringDesc>
 80048e8:	2800      	cmp	r0, #0
 80048ea:	f43f af6c 	beq.w	80047c6 <USBH_Process+0x2ae>
 80048ee:	1ec5      	subs	r5, r0, #3
 80048f0:	bf18      	it	ne
 80048f2:	2501      	movne	r5, #1
 80048f4:	e731      	b.n	800475a <USBH_Process+0x242>
 80048f6:	23ff      	movs	r3, #255	; 0xff
 80048f8:	f500 728e 	add.w	r2, r0, #284	; 0x11c
 80048fc:	f000 fad2 	bl	8004ea4 <USBH_Get_StringDesc>
 8004900:	2800      	cmp	r0, #0
 8004902:	f43f af27 	beq.w	8004754 <USBH_Process+0x23c>
 8004906:	2803      	cmp	r0, #3
 8004908:	f47f af56 	bne.w	80047b8 <USBH_Process+0x2a0>
 800490c:	e722      	b.n	8004754 <USBH_Process+0x23c>
 800490e:	2002      	movs	r0, #2
 8004910:	f001 fa4c 	bl	8005dac <USBH_Delay>
 8004914:	2501      	movs	r5, #1
 8004916:	79a1      	ldrb	r1, [r4, #6]
 8004918:	f894 231d 	ldrb.w	r2, [r4, #797]	; 0x31d
 800491c:	9601      	str	r6, [sp, #4]
 800491e:	2003      	movs	r0, #3
 8004920:	f884 531c 	strb.w	r5, [r4, #796]	; 0x31c
 8004924:	7060      	strb	r0, [r4, #1]
 8004926:	9200      	str	r2, [sp, #0]
 8004928:	9102      	str	r1, [sp, #8]
 800492a:	7921      	ldrb	r1, [r4, #4]
 800492c:	462b      	mov	r3, r5
 800492e:	2280      	movs	r2, #128	; 0x80
 8004930:	e7c4      	b.n	80048bc <USBH_Process+0x3a4>
 8004932:	220d      	movs	r2, #13
 8004934:	2300      	movs	r3, #0
 8004936:	7022      	strb	r2, [r4, #0]
 8004938:	7063      	strb	r3, [r4, #1]
 800493a:	2501      	movs	r5, #1
 800493c:	e70d      	b.n	800475a <USBH_Process+0x242>
 800493e:	7961      	ldrb	r1, [r4, #5]
 8004940:	4620      	mov	r0, r4
 8004942:	f001 f8bb 	bl	8005abc <USBH_FreePipe>
 8004946:	7921      	ldrb	r1, [r4, #4]
 8004948:	4620      	mov	r0, r4
 800494a:	f001 f8b7 	bl	8005abc <USBH_FreePipe>
 800494e:	2300      	movs	r3, #0
 8004950:	7063      	strb	r3, [r4, #1]
 8004952:	7023      	strb	r3, [r4, #0]
 8004954:	e701      	b.n	800475a <USBH_Process+0x242>
 8004956:	7961      	ldrb	r1, [r4, #5]
 8004958:	4620      	mov	r0, r4
 800495a:	f001 f8af 	bl	8005abc <USBH_FreePipe>
 800495e:	7921      	ldrb	r1, [r4, #4]
 8004960:	4620      	mov	r0, r4
 8004962:	f001 f8ab 	bl	8005abc <USBH_FreePipe>
 8004966:	2300      	movs	r3, #0
 8004968:	7023      	strb	r3, [r4, #0]
 800496a:	2501      	movs	r5, #1
 800496c:	e6f5      	b.n	800475a <USBH_Process+0x242>
 800496e:	bf00      	nop

08004970 <USBH_LL_SetTimer>:
 8004970:	f8c0 13c4 	str.w	r1, [r0, #964]	; 0x3c4
 8004974:	4770      	bx	lr
 8004976:	bf00      	nop

08004978 <USBH_LL_IncTimer>:
 8004978:	f8d0 23c4 	ldr.w	r2, [r0, #964]	; 0x3c4
 800497c:	3201      	adds	r2, #1
 800497e:	f8c0 23c4 	str.w	r2, [r0, #964]	; 0x3c4
 8004982:	7802      	ldrb	r2, [r0, #0]
 8004984:	2a0b      	cmp	r2, #11
 8004986:	d000      	beq.n	800498a <USBH_LL_IncTimer+0x12>
 8004988:	4770      	bx	lr
 800498a:	f8d0 337c 	ldr.w	r3, [r0, #892]	; 0x37c
 800498e:	2b00      	cmp	r3, #0
 8004990:	d0fa      	beq.n	8004988 <USBH_LL_IncTimer+0x10>
 8004992:	699b      	ldr	r3, [r3, #24]
 8004994:	4718      	bx	r3
 8004996:	bf00      	nop

08004998 <USBH_LL_PortEnabled>:
 8004998:	2301      	movs	r3, #1
 800499a:	f880 3323 	strb.w	r3, [r0, #803]	; 0x323
 800499e:	4770      	bx	lr

080049a0 <USBH_LL_PortDisabled>:
 80049a0:	2300      	movs	r3, #0
 80049a2:	f880 3323 	strb.w	r3, [r0, #803]	; 0x323
 80049a6:	4770      	bx	lr

080049a8 <USBH_LL_Connect>:
 80049a8:	4603      	mov	r3, r0
 80049aa:	2201      	movs	r2, #1
 80049ac:	2000      	movs	r0, #0
 80049ae:	f883 2320 	strb.w	r2, [r3, #800]	; 0x320
 80049b2:	f883 0321 	strb.w	r0, [r3, #801]	; 0x321
 80049b6:	f883 0322 	strb.w	r0, [r3, #802]	; 0x322
 80049ba:	4770      	bx	lr

080049bc <USBH_LL_Disconnect>:
 80049bc:	b538      	push	{r3, r4, r5, lr}
 80049be:	4604      	mov	r4, r0
 80049c0:	2301      	movs	r3, #1
 80049c2:	2500      	movs	r5, #0
 80049c4:	f880 3321 	strb.w	r3, [r0, #801]	; 0x321
 80049c8:	f880 5323 	strb.w	r5, [r0, #803]	; 0x323
 80049cc:	f880 5320 	strb.w	r5, [r0, #800]	; 0x320
 80049d0:	f001 f964 	bl	8005c9c <USBH_LL_Stop>
 80049d4:	7921      	ldrb	r1, [r4, #4]
 80049d6:	4620      	mov	r0, r4
 80049d8:	f001 f870 	bl	8005abc <USBH_FreePipe>
 80049dc:	7961      	ldrb	r1, [r4, #5]
 80049de:	4620      	mov	r0, r4
 80049e0:	f001 f86c 	bl	8005abc <USBH_FreePipe>
 80049e4:	4628      	mov	r0, r5
 80049e6:	bd38      	pop	{r3, r4, r5, pc}

080049e8 <USBH_CtlReq.part.0>:
 80049e8:	b530      	push	{r4, r5, lr}
 80049ea:	7e05      	ldrb	r5, [r0, #24]
 80049ec:	1e6b      	subs	r3, r5, #1
 80049ee:	b083      	sub	sp, #12
 80049f0:	4604      	mov	r4, r0
 80049f2:	2b0a      	cmp	r3, #10
 80049f4:	d827      	bhi.n	8004a46 <USBH_CtlReq.part.0+0x5e>
 80049f6:	e8df f003 	tbb	[pc, r3]
 80049fa:	1b13      	.short	0x1b13
 80049fc:	7366842a 	.word	0x7366842a
 8004a00:	5a4d4236 	.word	0x5a4d4236
 8004a04:	06          	.byte	0x06
 8004a05:	00          	.byte	0x00
 8004a06:	7e43      	ldrb	r3, [r0, #25]
 8004a08:	3301      	adds	r3, #1
 8004a0a:	b2db      	uxtb	r3, r3
 8004a0c:	2b02      	cmp	r3, #2
 8004a0e:	7643      	strb	r3, [r0, #25]
 8004a10:	f200 8091 	bhi.w	8004b36 <USBH_CtlReq.part.0+0x14e>
 8004a14:	2501      	movs	r5, #1
 8004a16:	7605      	strb	r5, [r0, #24]
 8004a18:	7085      	strb	r5, [r0, #2]
 8004a1a:	4628      	mov	r0, r5
 8004a1c:	b003      	add	sp, #12
 8004a1e:	bd30      	pop	{r4, r5, pc}
 8004a20:	7942      	ldrb	r2, [r0, #5]
 8004a22:	f100 0110 	add.w	r1, r0, #16
 8004a26:	f000 ff9d 	bl	8005964 <USBH_CtlSendSetup>
 8004a2a:	2302      	movs	r3, #2
 8004a2c:	7623      	strb	r3, [r4, #24]
 8004a2e:	e7f4      	b.n	8004a1a <USBH_CtlReq.part.0+0x32>
 8004a30:	7941      	ldrb	r1, [r0, #5]
 8004a32:	f001 f9a1 	bl	8005d78 <USBH_LL_GetURBState>
 8004a36:	2801      	cmp	r0, #1
 8004a38:	4605      	mov	r5, r0
 8004a3a:	f000 808c 	beq.w	8004b56 <USBH_CtlReq.part.0+0x16e>
 8004a3e:	2804      	cmp	r0, #4
 8004a40:	d03e      	beq.n	8004ac0 <USBH_CtlReq.part.0+0xd8>
 8004a42:	2802      	cmp	r0, #2
 8004a44:	d03c      	beq.n	8004ac0 <USBH_CtlReq.part.0+0xd8>
 8004a46:	2501      	movs	r5, #1
 8004a48:	4628      	mov	r0, r5
 8004a4a:	b003      	add	sp, #12
 8004a4c:	bd30      	pop	{r4, r5, pc}
 8004a4e:	f8d0 33c4 	ldr.w	r3, [r0, #964]	; 0x3c4
 8004a52:	81c3      	strh	r3, [r0, #14]
 8004a54:	8982      	ldrh	r2, [r0, #12]
 8004a56:	7903      	ldrb	r3, [r0, #4]
 8004a58:	6881      	ldr	r1, [r0, #8]
 8004a5a:	f000 ffab 	bl	80059b4 <USBH_CtlReceiveData>
 8004a5e:	2304      	movs	r3, #4
 8004a60:	7623      	strb	r3, [r4, #24]
 8004a62:	2501      	movs	r5, #1
 8004a64:	e7d9      	b.n	8004a1a <USBH_CtlReq.part.0+0x32>
 8004a66:	2200      	movs	r2, #0
 8004a68:	7903      	ldrb	r3, [r0, #4]
 8004a6a:	4611      	mov	r1, r2
 8004a6c:	f000 ffa2 	bl	80059b4 <USBH_CtlReceiveData>
 8004a70:	f8d4 33c4 	ldr.w	r3, [r4, #964]	; 0x3c4
 8004a74:	81e3      	strh	r3, [r4, #14]
 8004a76:	2308      	movs	r3, #8
 8004a78:	7623      	strb	r3, [r4, #24]
 8004a7a:	2501      	movs	r5, #1
 8004a7c:	e7cd      	b.n	8004a1a <USBH_CtlReq.part.0+0x32>
 8004a7e:	7901      	ldrb	r1, [r0, #4]
 8004a80:	f001 f97a 	bl	8005d78 <USBH_LL_GetURBState>
 8004a84:	2801      	cmp	r0, #1
 8004a86:	d04a      	beq.n	8004b1e <USBH_CtlReq.part.0+0x136>
 8004a88:	2804      	cmp	r0, #4
 8004a8a:	d019      	beq.n	8004ac0 <USBH_CtlReq.part.0+0xd8>
 8004a8c:	2805      	cmp	r0, #5
 8004a8e:	d1da      	bne.n	8004a46 <USBH_CtlReq.part.0+0x5e>
 8004a90:	2503      	movs	r5, #3
 8004a92:	e045      	b.n	8004b20 <USBH_CtlReq.part.0+0x138>
 8004a94:	2501      	movs	r5, #1
 8004a96:	2200      	movs	r2, #0
 8004a98:	9500      	str	r5, [sp, #0]
 8004a9a:	7943      	ldrb	r3, [r0, #5]
 8004a9c:	4611      	mov	r1, r2
 8004a9e:	f000 ff71 	bl	8005984 <USBH_CtlSendData>
 8004aa2:	f8d4 33c4 	ldr.w	r3, [r4, #964]	; 0x3c4
 8004aa6:	81e3      	strh	r3, [r4, #14]
 8004aa8:	230a      	movs	r3, #10
 8004aaa:	7623      	strb	r3, [r4, #24]
 8004aac:	e7b5      	b.n	8004a1a <USBH_CtlReq.part.0+0x32>
 8004aae:	7941      	ldrb	r1, [r0, #5]
 8004ab0:	f001 f962 	bl	8005d78 <USBH_LL_GetURBState>
 8004ab4:	2801      	cmp	r0, #1
 8004ab6:	d032      	beq.n	8004b1e <USBH_CtlReq.part.0+0x136>
 8004ab8:	2802      	cmp	r0, #2
 8004aba:	d02c      	beq.n	8004b16 <USBH_CtlReq.part.0+0x12e>
 8004abc:	2804      	cmp	r0, #4
 8004abe:	d1c2      	bne.n	8004a46 <USBH_CtlReq.part.0+0x5e>
 8004ac0:	230b      	movs	r3, #11
 8004ac2:	7623      	strb	r3, [r4, #24]
 8004ac4:	e7bf      	b.n	8004a46 <USBH_CtlReq.part.0+0x5e>
 8004ac6:	2501      	movs	r5, #1
 8004ac8:	9500      	str	r5, [sp, #0]
 8004aca:	7943      	ldrb	r3, [r0, #5]
 8004acc:	8982      	ldrh	r2, [r0, #12]
 8004ace:	6881      	ldr	r1, [r0, #8]
 8004ad0:	f000 ff58 	bl	8005984 <USBH_CtlSendData>
 8004ad4:	f8d4 33c4 	ldr.w	r3, [r4, #964]	; 0x3c4
 8004ad8:	81e3      	strh	r3, [r4, #14]
 8004ada:	2306      	movs	r3, #6
 8004adc:	7623      	strb	r3, [r4, #24]
 8004ade:	e79c      	b.n	8004a1a <USBH_CtlReq.part.0+0x32>
 8004ae0:	7941      	ldrb	r1, [r0, #5]
 8004ae2:	f001 f949 	bl	8005d78 <USBH_LL_GetURBState>
 8004ae6:	2801      	cmp	r0, #1
 8004ae8:	d021      	beq.n	8004b2e <USBH_CtlReq.part.0+0x146>
 8004aea:	2805      	cmp	r0, #5
 8004aec:	d0d0      	beq.n	8004a90 <USBH_CtlReq.part.0+0xa8>
 8004aee:	2802      	cmp	r0, #2
 8004af0:	d037      	beq.n	8004b62 <USBH_CtlReq.part.0+0x17a>
 8004af2:	2804      	cmp	r0, #4
 8004af4:	d1a7      	bne.n	8004a46 <USBH_CtlReq.part.0+0x5e>
 8004af6:	230b      	movs	r3, #11
 8004af8:	7623      	strb	r3, [r4, #24]
 8004afa:	2301      	movs	r3, #1
 8004afc:	70a3      	strb	r3, [r4, #2]
 8004afe:	2502      	movs	r5, #2
 8004b00:	e78b      	b.n	8004a1a <USBH_CtlReq.part.0+0x32>
 8004b02:	7901      	ldrb	r1, [r0, #4]
 8004b04:	f001 f938 	bl	8005d78 <USBH_LL_GetURBState>
 8004b08:	2801      	cmp	r0, #1
 8004b0a:	d004      	beq.n	8004b16 <USBH_CtlReq.part.0+0x12e>
 8004b0c:	2805      	cmp	r0, #5
 8004b0e:	d1d5      	bne.n	8004abc <USBH_CtlReq.part.0+0xd4>
 8004b10:	e7be      	b.n	8004a90 <USBH_CtlReq.part.0+0xa8>
 8004b12:	061b      	lsls	r3, r3, #24
 8004b14:	d50b      	bpl.n	8004b2e <USBH_CtlReq.part.0+0x146>
 8004b16:	2309      	movs	r3, #9
 8004b18:	7623      	strb	r3, [r4, #24]
 8004b1a:	2501      	movs	r5, #1
 8004b1c:	e77d      	b.n	8004a1a <USBH_CtlReq.part.0+0x32>
 8004b1e:	2500      	movs	r5, #0
 8004b20:	2201      	movs	r2, #1
 8004b22:	2300      	movs	r3, #0
 8004b24:	4628      	mov	r0, r5
 8004b26:	70a2      	strb	r2, [r4, #2]
 8004b28:	7623      	strb	r3, [r4, #24]
 8004b2a:	b003      	add	sp, #12
 8004b2c:	bd30      	pop	{r4, r5, pc}
 8004b2e:	2307      	movs	r3, #7
 8004b30:	7623      	strb	r3, [r4, #24]
 8004b32:	2501      	movs	r5, #1
 8004b34:	e771      	b.n	8004a1a <USBH_CtlReq.part.0+0x32>
 8004b36:	f8d0 33d4 	ldr.w	r3, [r0, #980]	; 0x3d4
 8004b3a:	2106      	movs	r1, #6
 8004b3c:	2500      	movs	r5, #0
 8004b3e:	4798      	blx	r3
 8004b40:	7961      	ldrb	r1, [r4, #5]
 8004b42:	7665      	strb	r5, [r4, #25]
 8004b44:	4620      	mov	r0, r4
 8004b46:	f000 ffb9 	bl	8005abc <USBH_FreePipe>
 8004b4a:	7921      	ldrb	r1, [r4, #4]
 8004b4c:	4620      	mov	r0, r4
 8004b4e:	f000 ffb5 	bl	8005abc <USBH_FreePipe>
 8004b52:	7025      	strb	r5, [r4, #0]
 8004b54:	e7d1      	b.n	8004afa <USBH_CtlReq.part.0+0x112>
 8004b56:	8ae2      	ldrh	r2, [r4, #22]
 8004b58:	7c23      	ldrb	r3, [r4, #16]
 8004b5a:	2a00      	cmp	r2, #0
 8004b5c:	d0d9      	beq.n	8004b12 <USBH_CtlReq.part.0+0x12a>
 8004b5e:	061a      	lsls	r2, r3, #24
 8004b60:	d403      	bmi.n	8004b6a <USBH_CtlReq.part.0+0x182>
 8004b62:	2305      	movs	r3, #5
 8004b64:	7623      	strb	r3, [r4, #24]
 8004b66:	2501      	movs	r5, #1
 8004b68:	e757      	b.n	8004a1a <USBH_CtlReq.part.0+0x32>
 8004b6a:	2303      	movs	r3, #3
 8004b6c:	7623      	strb	r3, [r4, #24]
 8004b6e:	e754      	b.n	8004a1a <USBH_CtlReq.part.0+0x32>

08004b70 <USBH_Get_DevDesc>:
 8004b70:	b5f0      	push	{r4, r5, r6, r7, lr}
 8004b72:	7885      	ldrb	r5, [r0, #2]
 8004b74:	2d01      	cmp	r5, #1
 8004b76:	b083      	sub	sp, #12
 8004b78:	4604      	mov	r4, r0
 8004b7a:	460e      	mov	r6, r1
 8004b7c:	d01b      	beq.n	8004bb6 <USBH_Get_DevDesc+0x46>
 8004b7e:	2d02      	cmp	r5, #2
 8004b80:	d115      	bne.n	8004bae <USBH_Get_DevDesc+0x3e>
 8004b82:	7e07      	ldrb	r7, [r0, #24]
 8004b84:	1e7b      	subs	r3, r7, #1
 8004b86:	2b0a      	cmp	r3, #10
 8004b88:	d811      	bhi.n	8004bae <USBH_Get_DevDesc+0x3e>
 8004b8a:	e8df f003 	tbb	[pc, r3]
 8004b8e:	3a31      	.short	0x3a31
 8004b90:	62550649 	.word	0x62550649
 8004b94:	9a8d7e72 	.word	0x9a8d7e72
 8004b98:	26          	.byte	0x26
 8004b99:	00          	.byte	0x00
 8004b9a:	7901      	ldrb	r1, [r0, #4]
 8004b9c:	f001 f8ec 	bl	8005d78 <USBH_LL_GetURBState>
 8004ba0:	2801      	cmp	r0, #1
 8004ba2:	f000 8096 	beq.w	8004cd2 <USBH_Get_DevDesc+0x162>
 8004ba6:	2805      	cmp	r0, #5
 8004ba8:	d078      	beq.n	8004c9c <USBH_Get_DevDesc+0x12c>
 8004baa:	2804      	cmp	r0, #4
 8004bac:	d034      	beq.n	8004c18 <USBH_Get_DevDesc+0xa8>
 8004bae:	2501      	movs	r5, #1
 8004bb0:	4628      	mov	r0, r5
 8004bb2:	b003      	add	sp, #12
 8004bb4:	bdf0      	pop	{r4, r5, r6, r7, pc}
 8004bb6:	2000      	movs	r0, #0
 8004bb8:	f44f 63d0 	mov.w	r3, #1664	; 0x680
 8004bbc:	f2c0 1300 	movt	r3, #256	; 0x100
 8004bc0:	f504 718e 	add.w	r1, r4, #284	; 0x11c
 8004bc4:	2202      	movs	r2, #2
 8004bc6:	82a0      	strh	r0, [r4, #20]
 8004bc8:	4628      	mov	r0, r5
 8004bca:	82e6      	strh	r6, [r4, #22]
 8004bcc:	81a6      	strh	r6, [r4, #12]
 8004bce:	7625      	strb	r5, [r4, #24]
 8004bd0:	6123      	str	r3, [r4, #16]
 8004bd2:	60a1      	str	r1, [r4, #8]
 8004bd4:	70a2      	strb	r2, [r4, #2]
 8004bd6:	b003      	add	sp, #12
 8004bd8:	bdf0      	pop	{r4, r5, r6, r7, pc}
 8004bda:	7e43      	ldrb	r3, [r0, #25]
 8004bdc:	3301      	adds	r3, #1
 8004bde:	b2db      	uxtb	r3, r3
 8004be0:	2b02      	cmp	r3, #2
 8004be2:	7643      	strb	r3, [r0, #25]
 8004be4:	f200 80a5 	bhi.w	8004d32 <USBH_Get_DevDesc+0x1c2>
 8004be8:	2501      	movs	r5, #1
 8004bea:	7605      	strb	r5, [r0, #24]
 8004bec:	7085      	strb	r5, [r0, #2]
 8004bee:	e7df      	b.n	8004bb0 <USBH_Get_DevDesc+0x40>
 8004bf0:	7942      	ldrb	r2, [r0, #5]
 8004bf2:	f100 0110 	add.w	r1, r0, #16
 8004bf6:	f000 feb5 	bl	8005964 <USBH_CtlSendSetup>
 8004bfa:	2302      	movs	r3, #2
 8004bfc:	463d      	mov	r5, r7
 8004bfe:	7623      	strb	r3, [r4, #24]
 8004c00:	e7d6      	b.n	8004bb0 <USBH_Get_DevDesc+0x40>
 8004c02:	7941      	ldrb	r1, [r0, #5]
 8004c04:	f001 f8b8 	bl	8005d78 <USBH_LL_GetURBState>
 8004c08:	2801      	cmp	r0, #1
 8004c0a:	4605      	mov	r5, r0
 8004c0c:	f000 80a1 	beq.w	8004d52 <USBH_Get_DevDesc+0x1e2>
 8004c10:	2804      	cmp	r0, #4
 8004c12:	d001      	beq.n	8004c18 <USBH_Get_DevDesc+0xa8>
 8004c14:	2802      	cmp	r0, #2
 8004c16:	d1ca      	bne.n	8004bae <USBH_Get_DevDesc+0x3e>
 8004c18:	230b      	movs	r3, #11
 8004c1a:	7623      	strb	r3, [r4, #24]
 8004c1c:	2501      	movs	r5, #1
 8004c1e:	e7c7      	b.n	8004bb0 <USBH_Get_DevDesc+0x40>
 8004c20:	f8d0 33c4 	ldr.w	r3, [r0, #964]	; 0x3c4
 8004c24:	81c3      	strh	r3, [r0, #14]
 8004c26:	8982      	ldrh	r2, [r0, #12]
 8004c28:	7903      	ldrb	r3, [r0, #4]
 8004c2a:	6881      	ldr	r1, [r0, #8]
 8004c2c:	f000 fec2 	bl	80059b4 <USBH_CtlReceiveData>
 8004c30:	2304      	movs	r3, #4
 8004c32:	7623      	strb	r3, [r4, #24]
 8004c34:	2501      	movs	r5, #1
 8004c36:	e7bb      	b.n	8004bb0 <USBH_Get_DevDesc+0x40>
 8004c38:	2501      	movs	r5, #1
 8004c3a:	9500      	str	r5, [sp, #0]
 8004c3c:	7943      	ldrb	r3, [r0, #5]
 8004c3e:	8982      	ldrh	r2, [r0, #12]
 8004c40:	6881      	ldr	r1, [r0, #8]
 8004c42:	f000 fe9f 	bl	8005984 <USBH_CtlSendData>
 8004c46:	f8d4 33c4 	ldr.w	r3, [r4, #964]	; 0x3c4
 8004c4a:	81e3      	strh	r3, [r4, #14]
 8004c4c:	2306      	movs	r3, #6
 8004c4e:	7623      	strb	r3, [r4, #24]
 8004c50:	e7ae      	b.n	8004bb0 <USBH_Get_DevDesc+0x40>
 8004c52:	7941      	ldrb	r1, [r0, #5]
 8004c54:	f001 f890 	bl	8005d78 <USBH_LL_GetURBState>
 8004c58:	2801      	cmp	r0, #1
 8004c5a:	d066      	beq.n	8004d2a <USBH_Get_DevDesc+0x1ba>
 8004c5c:	2805      	cmp	r0, #5
 8004c5e:	d01d      	beq.n	8004c9c <USBH_Get_DevDesc+0x12c>
 8004c60:	2802      	cmp	r0, #2
 8004c62:	d07c      	beq.n	8004d5e <USBH_Get_DevDesc+0x1ee>
 8004c64:	2804      	cmp	r0, #4
 8004c66:	d1a2      	bne.n	8004bae <USBH_Get_DevDesc+0x3e>
 8004c68:	230b      	movs	r3, #11
 8004c6a:	7623      	strb	r3, [r4, #24]
 8004c6c:	2301      	movs	r3, #1
 8004c6e:	70a3      	strb	r3, [r4, #2]
 8004c70:	e79e      	b.n	8004bb0 <USBH_Get_DevDesc+0x40>
 8004c72:	2200      	movs	r2, #0
 8004c74:	7903      	ldrb	r3, [r0, #4]
 8004c76:	4611      	mov	r1, r2
 8004c78:	f000 fe9c 	bl	80059b4 <USBH_CtlReceiveData>
 8004c7c:	f8d4 33c4 	ldr.w	r3, [r4, #964]	; 0x3c4
 8004c80:	81e3      	strh	r3, [r4, #14]
 8004c82:	2308      	movs	r3, #8
 8004c84:	7623      	strb	r3, [r4, #24]
 8004c86:	2501      	movs	r5, #1
 8004c88:	e792      	b.n	8004bb0 <USBH_Get_DevDesc+0x40>
 8004c8a:	7901      	ldrb	r1, [r0, #4]
 8004c8c:	f001 f874 	bl	8005d78 <USBH_LL_GetURBState>
 8004c90:	2801      	cmp	r0, #1
 8004c92:	d022      	beq.n	8004cda <USBH_Get_DevDesc+0x16a>
 8004c94:	2804      	cmp	r0, #4
 8004c96:	d0bf      	beq.n	8004c18 <USBH_Get_DevDesc+0xa8>
 8004c98:	2805      	cmp	r0, #5
 8004c9a:	d188      	bne.n	8004bae <USBH_Get_DevDesc+0x3e>
 8004c9c:	2201      	movs	r2, #1
 8004c9e:	2300      	movs	r3, #0
 8004ca0:	70a2      	strb	r2, [r4, #2]
 8004ca2:	7623      	strb	r3, [r4, #24]
 8004ca4:	2503      	movs	r5, #3
 8004ca6:	e783      	b.n	8004bb0 <USBH_Get_DevDesc+0x40>
 8004ca8:	2501      	movs	r5, #1
 8004caa:	2200      	movs	r2, #0
 8004cac:	9500      	str	r5, [sp, #0]
 8004cae:	7943      	ldrb	r3, [r0, #5]
 8004cb0:	4611      	mov	r1, r2
 8004cb2:	f000 fe67 	bl	8005984 <USBH_CtlSendData>
 8004cb6:	f8d4 33c4 	ldr.w	r3, [r4, #964]	; 0x3c4
 8004cba:	81e3      	strh	r3, [r4, #14]
 8004cbc:	230a      	movs	r3, #10
 8004cbe:	7623      	strb	r3, [r4, #24]
 8004cc0:	e776      	b.n	8004bb0 <USBH_Get_DevDesc+0x40>
 8004cc2:	7941      	ldrb	r1, [r0, #5]
 8004cc4:	f001 f858 	bl	8005d78 <USBH_LL_GetURBState>
 8004cc8:	2801      	cmp	r0, #1
 8004cca:	d006      	beq.n	8004cda <USBH_Get_DevDesc+0x16a>
 8004ccc:	2802      	cmp	r0, #2
 8004cce:	f47f af6c 	bne.w	8004baa <USBH_Get_DevDesc+0x3a>
 8004cd2:	2309      	movs	r3, #9
 8004cd4:	7623      	strb	r3, [r4, #24]
 8004cd6:	2501      	movs	r5, #1
 8004cd8:	e76a      	b.n	8004bb0 <USBH_Get_DevDesc+0x40>
 8004cda:	f894 311c 	ldrb.w	r3, [r4, #284]	; 0x11c
 8004cde:	f894 111d 	ldrb.w	r1, [r4, #285]	; 0x11d
 8004ce2:	f884 3326 	strb.w	r3, [r4, #806]	; 0x326
 8004ce6:	2201      	movs	r2, #1
 8004ce8:	f8d4 3120 	ldr.w	r3, [r4, #288]	; 0x120
 8004cec:	70a2      	strb	r2, [r4, #2]
 8004cee:	2500      	movs	r5, #0
 8004cf0:	f8b4 211e 	ldrh.w	r2, [r4, #286]	; 0x11e
 8004cf4:	7625      	strb	r5, [r4, #24]
 8004cf6:	2e08      	cmp	r6, #8
 8004cf8:	f884 1327 	strb.w	r1, [r4, #807]	; 0x327
 8004cfc:	f8a4 2328 	strh.w	r2, [r4, #808]	; 0x328
 8004d00:	f8c4 332a 	str.w	r3, [r4, #810]	; 0x32a
 8004d04:	f67f af54 	bls.w	8004bb0 <USBH_Get_DevDesc+0x40>
 8004d08:	f8d4 1124 	ldr.w	r1, [r4, #292]	; 0x124
 8004d0c:	f8b4 2128 	ldrh.w	r2, [r4, #296]	; 0x128
 8004d10:	f8d4 312a 	ldr.w	r3, [r4, #298]	; 0x12a
 8004d14:	f8c4 132e 	str.w	r1, [r4, #814]	; 0x32e
 8004d18:	4628      	mov	r0, r5
 8004d1a:	f8a4 2332 	strh.w	r2, [r4, #818]	; 0x332
 8004d1e:	f8c4 3334 	str.w	r3, [r4, #820]	; 0x334
 8004d22:	b003      	add	sp, #12
 8004d24:	bdf0      	pop	{r4, r5, r6, r7, pc}
 8004d26:	0613      	lsls	r3, r2, #24
 8004d28:	d4d3      	bmi.n	8004cd2 <USBH_Get_DevDesc+0x162>
 8004d2a:	2307      	movs	r3, #7
 8004d2c:	7623      	strb	r3, [r4, #24]
 8004d2e:	2501      	movs	r5, #1
 8004d30:	e73e      	b.n	8004bb0 <USBH_Get_DevDesc+0x40>
 8004d32:	f8d0 33d4 	ldr.w	r3, [r0, #980]	; 0x3d4
 8004d36:	2106      	movs	r1, #6
 8004d38:	2600      	movs	r6, #0
 8004d3a:	4798      	blx	r3
 8004d3c:	7961      	ldrb	r1, [r4, #5]
 8004d3e:	7666      	strb	r6, [r4, #25]
 8004d40:	4620      	mov	r0, r4
 8004d42:	f000 febb 	bl	8005abc <USBH_FreePipe>
 8004d46:	7921      	ldrb	r1, [r4, #4]
 8004d48:	4620      	mov	r0, r4
 8004d4a:	f000 feb7 	bl	8005abc <USBH_FreePipe>
 8004d4e:	7026      	strb	r6, [r4, #0]
 8004d50:	e78c      	b.n	8004c6c <USBH_Get_DevDesc+0xfc>
 8004d52:	8ae3      	ldrh	r3, [r4, #22]
 8004d54:	7c22      	ldrb	r2, [r4, #16]
 8004d56:	2b00      	cmp	r3, #0
 8004d58:	d0e5      	beq.n	8004d26 <USBH_Get_DevDesc+0x1b6>
 8004d5a:	0612      	lsls	r2, r2, #24
 8004d5c:	d403      	bmi.n	8004d66 <USBH_Get_DevDesc+0x1f6>
 8004d5e:	2305      	movs	r3, #5
 8004d60:	7623      	strb	r3, [r4, #24]
 8004d62:	2501      	movs	r5, #1
 8004d64:	e724      	b.n	8004bb0 <USBH_Get_DevDesc+0x40>
 8004d66:	2303      	movs	r3, #3
 8004d68:	7623      	strb	r3, [r4, #24]
 8004d6a:	e721      	b.n	8004bb0 <USBH_Get_DevDesc+0x40>

08004d6c <USBH_Get_CfgDesc>:
 8004d6c:	e92d 43f8 	stmdb	sp!, {r3, r4, r5, r6, r7, r8, r9, lr}
 8004d70:	7883      	ldrb	r3, [r0, #2]
 8004d72:	2b01      	cmp	r3, #1
 8004d74:	4604      	mov	r4, r0
 8004d76:	460e      	mov	r6, r1
 8004d78:	f100 051c 	add.w	r5, r0, #28
 8004d7c:	f000 8081 	beq.w	8004e82 <USBH_Get_CfgDesc+0x116>
 8004d80:	2b02      	cmp	r3, #2
 8004d82:	d17a      	bne.n	8004e7a <USBH_Get_CfgDesc+0x10e>
 8004d84:	f7ff fe30 	bl	80049e8 <USBH_CtlReq.part.0>
 8004d88:	4603      	mov	r3, r0
 8004d8a:	2800      	cmp	r0, #0
 8004d8c:	d176      	bne.n	8004e7c <USBH_Get_CfgDesc+0x110>
 8004d8e:	7f21      	ldrb	r1, [r4, #28]
 8004d90:	7f62      	ldrb	r2, [r4, #29]
 8004d92:	8be0      	ldrh	r0, [r4, #30]
 8004d94:	f884 1338 	strb.w	r1, [r4, #824]	; 0x338
 8004d98:	f884 2339 	strb.w	r2, [r4, #825]	; 0x339
 8004d9c:	6a21      	ldr	r1, [r4, #32]
 8004d9e:	f894 2024 	ldrb.w	r2, [r4, #36]	; 0x24
 8004da2:	f8a4 033a 	strh.w	r0, [r4, #826]	; 0x33a
 8004da6:	2e09      	cmp	r6, #9
 8004da8:	f8c4 133c 	str.w	r1, [r4, #828]	; 0x33c
 8004dac:	f884 2340 	strb.w	r2, [r4, #832]	; 0x340
 8004db0:	d964      	bls.n	8004e7c <USBH_Get_CfgDesc+0x110>
 8004db2:	4626      	mov	r6, r4
 8004db4:	461f      	mov	r7, r3
 8004db6:	2209      	movs	r2, #9
 8004db8:	f04f 0c1a 	mov.w	ip, #26
 8004dbc:	4290      	cmp	r0, r2
 8004dbe:	d95d      	bls.n	8004e7c <USBH_Get_CfgDesc+0x110>
 8004dc0:	7829      	ldrb	r1, [r5, #0]
 8004dc2:	440d      	add	r5, r1
 8004dc4:	440a      	add	r2, r1
 8004dc6:	7869      	ldrb	r1, [r5, #1]
 8004dc8:	2904      	cmp	r1, #4
 8004dca:	b292      	uxth	r2, r2
 8004dcc:	d1f6      	bne.n	8004dbc <USBH_Get_CfgDesc+0x50>
 8004dce:	7829      	ldrb	r1, [r5, #0]
 8004dd0:	f886 1342 	strb.w	r1, [r6, #834]	; 0x342
 8004dd4:	7869      	ldrb	r1, [r5, #1]
 8004dd6:	f886 1343 	strb.w	r1, [r6, #835]	; 0x343
 8004dda:	78a9      	ldrb	r1, [r5, #2]
 8004ddc:	f886 1344 	strb.w	r1, [r6, #836]	; 0x344
 8004de0:	78e9      	ldrb	r1, [r5, #3]
 8004de2:	f886 1345 	strb.w	r1, [r6, #837]	; 0x345
 8004de6:	f895 9004 	ldrb.w	r9, [r5, #4]
 8004dea:	f886 9346 	strb.w	r9, [r6, #838]	; 0x346
 8004dee:	7969      	ldrb	r1, [r5, #5]
 8004df0:	f886 1347 	strb.w	r1, [r6, #839]	; 0x347
 8004df4:	79a9      	ldrb	r1, [r5, #6]
 8004df6:	f886 1348 	strb.w	r1, [r6, #840]	; 0x348
 8004dfa:	79e9      	ldrb	r1, [r5, #7]
 8004dfc:	f886 1349 	strb.w	r1, [r6, #841]	; 0x349
 8004e00:	7a29      	ldrb	r1, [r5, #8]
 8004e02:	f886 134a 	strb.w	r1, [r6, #842]	; 0x34a
 8004e06:	f1b9 0f00 	cmp.w	r9, #0
 8004e0a:	d032      	beq.n	8004e72 <USBH_Get_CfgDesc+0x106>
 8004e0c:	4290      	cmp	r0, r2
 8004e0e:	d930      	bls.n	8004e72 <USBH_Get_CfgDesc+0x106>
 8004e10:	f04f 0e00 	mov.w	lr, #0
 8004e14:	fb0c f807 	mul.w	r8, ip, r7
 8004e18:	e001      	b.n	8004e1e <USBH_Get_CfgDesc+0xb2>
 8004e1a:	4290      	cmp	r0, r2
 8004e1c:	d929      	bls.n	8004e72 <USBH_Get_CfgDesc+0x106>
 8004e1e:	7829      	ldrb	r1, [r5, #0]
 8004e20:	440d      	add	r5, r1
 8004e22:	440a      	add	r2, r1
 8004e24:	7869      	ldrb	r1, [r5, #1]
 8004e26:	2905      	cmp	r1, #5
 8004e28:	b292      	uxth	r2, r2
 8004e2a:	d120      	bne.n	8004e6e <USBH_Get_CfgDesc+0x102>
 8004e2c:	f10e 0e01 	add.w	lr, lr, #1
 8004e30:	eb08 01ce 	add.w	r1, r8, lr, lsl #3
 8004e34:	4421      	add	r1, r4
 8004e36:	f895 9000 	ldrb.w	r9, [r5]
 8004e3a:	f881 9344 	strb.w	r9, [r1, #836]	; 0x344
 8004e3e:	f895 9001 	ldrb.w	r9, [r5, #1]
 8004e42:	f881 9345 	strb.w	r9, [r1, #837]	; 0x345
 8004e46:	f895 9002 	ldrb.w	r9, [r5, #2]
 8004e4a:	f881 9346 	strb.w	r9, [r1, #838]	; 0x346
 8004e4e:	f895 9003 	ldrb.w	r9, [r5, #3]
 8004e52:	f881 9347 	strb.w	r9, [r1, #839]	; 0x347
 8004e56:	f8b5 9004 	ldrh.w	r9, [r5, #4]
 8004e5a:	f8a1 9348 	strh.w	r9, [r1, #840]	; 0x348
 8004e5e:	f895 9006 	ldrb.w	r9, [r5, #6]
 8004e62:	f881 934a 	strb.w	r9, [r1, #842]	; 0x34a
 8004e66:	f896 9346 	ldrb.w	r9, [r6, #838]	; 0x346
 8004e6a:	fa5f fe8e 	uxtb.w	lr, lr
 8004e6e:	45ce      	cmp	lr, r9
 8004e70:	d3d3      	bcc.n	8004e1a <USBH_Get_CfgDesc+0xae>
 8004e72:	361a      	adds	r6, #26
 8004e74:	b917      	cbnz	r7, 8004e7c <USBH_Get_CfgDesc+0x110>
 8004e76:	2701      	movs	r7, #1
 8004e78:	e7a0      	b.n	8004dbc <USBH_Get_CfgDesc+0x50>
 8004e7a:	2301      	movs	r3, #1
 8004e7c:	4618      	mov	r0, r3
 8004e7e:	e8bd 83f8 	ldmia.w	sp!, {r3, r4, r5, r6, r7, r8, r9, pc}
 8004e82:	82e1      	strh	r1, [r4, #22]
 8004e84:	f44f 62d0 	mov.w	r2, #1664	; 0x680
 8004e88:	2102      	movs	r1, #2
 8004e8a:	f2c0 2200 	movt	r2, #512	; 0x200
 8004e8e:	2000      	movs	r0, #0
 8004e90:	7623      	strb	r3, [r4, #24]
 8004e92:	70a1      	strb	r1, [r4, #2]
 8004e94:	82a0      	strh	r0, [r4, #20]
 8004e96:	60a5      	str	r5, [r4, #8]
 8004e98:	81a6      	strh	r6, [r4, #12]
 8004e9a:	6122      	str	r2, [r4, #16]
 8004e9c:	4618      	mov	r0, r3
 8004e9e:	e8bd 83f8 	ldmia.w	sp!, {r3, r4, r5, r6, r7, r8, r9, pc}
 8004ea2:	bf00      	nop

08004ea4 <USBH_Get_StringDesc>:
 8004ea4:	e92d 41f0 	stmdb	sp!, {r4, r5, r6, r7, r8, lr}
 8004ea8:	7886      	ldrb	r6, [r0, #2]
 8004eaa:	2e01      	cmp	r6, #1
 8004eac:	4604      	mov	r4, r0
 8004eae:	461f      	mov	r7, r3
 8004eb0:	f500 788e 	add.w	r8, r0, #284	; 0x11c
 8004eb4:	d011      	beq.n	8004eda <USBH_Get_StringDesc+0x36>
 8004eb6:	2e02      	cmp	r6, #2
 8004eb8:	d10b      	bne.n	8004ed2 <USBH_Get_StringDesc+0x2e>
 8004eba:	4615      	mov	r5, r2
 8004ebc:	f7ff fd94 	bl	80049e8 <USBH_CtlReq.part.0>
 8004ec0:	4606      	mov	r6, r0
 8004ec2:	b918      	cbnz	r0, 8004ecc <USBH_Get_StringDesc+0x28>
 8004ec4:	f894 311d 	ldrb.w	r3, [r4, #285]	; 0x11d
 8004ec8:	2b03      	cmp	r3, #3
 8004eca:	d019      	beq.n	8004f00 <USBH_Get_StringDesc+0x5c>
 8004ecc:	4630      	mov	r0, r6
 8004ece:	e8bd 81f0 	ldmia.w	sp!, {r4, r5, r6, r7, r8, pc}
 8004ed2:	2601      	movs	r6, #1
 8004ed4:	4630      	mov	r0, r6
 8004ed6:	e8bd 81f0 	ldmia.w	sp!, {r4, r5, r6, r7, r8, pc}
 8004eda:	82e3      	strh	r3, [r4, #22]
 8004edc:	2302      	movs	r3, #2
 8004ede:	f441 7140 	orr.w	r1, r1, #768	; 0x300
 8004ee2:	f44f 60d0 	mov.w	r0, #1664	; 0x680
 8004ee6:	f240 4209 	movw	r2, #1033	; 0x409
 8004eea:	7626      	strb	r6, [r4, #24]
 8004eec:	70a3      	strb	r3, [r4, #2]
 8004eee:	8220      	strh	r0, [r4, #16]
 8004ef0:	8261      	strh	r1, [r4, #18]
 8004ef2:	f8c4 8008 	str.w	r8, [r4, #8]
 8004ef6:	81a7      	strh	r7, [r4, #12]
 8004ef8:	82a2      	strh	r2, [r4, #20]
 8004efa:	4630      	mov	r0, r6
 8004efc:	e8bd 81f0 	ldmia.w	sp!, {r4, r5, r6, r7, r8, pc}
 8004f00:	f894 311c 	ldrb.w	r3, [r4, #284]	; 0x11c
 8004f04:	3b02      	subs	r3, #2
 8004f06:	42bb      	cmp	r3, r7
 8004f08:	bf28      	it	cs
 8004f0a:	463b      	movcs	r3, r7
 8004f0c:	b299      	uxth	r1, r3
 8004f0e:	b14b      	cbz	r3, 8004f24 <USBH_Get_StringDesc+0x80>
 8004f10:	4603      	mov	r3, r0
 8004f12:	eb08 0203 	add.w	r2, r8, r3
 8004f16:	3302      	adds	r3, #2
 8004f18:	b29b      	uxth	r3, r3
 8004f1a:	7892      	ldrb	r2, [r2, #2]
 8004f1c:	f805 2b01 	strb.w	r2, [r5], #1
 8004f20:	4299      	cmp	r1, r3
 8004f22:	d8f6      	bhi.n	8004f12 <USBH_Get_StringDesc+0x6e>
 8004f24:	2300      	movs	r3, #0
 8004f26:	702b      	strb	r3, [r5, #0]
 8004f28:	4630      	mov	r0, r6
 8004f2a:	e8bd 81f0 	ldmia.w	sp!, {r4, r5, r6, r7, r8, pc}
 8004f2e:	bf00      	nop

08004f30 <USBH_GetDescriptor>:
 8004f30:	b570      	push	{r4, r5, r6, lr}
 8004f32:	7885      	ldrb	r5, [r0, #2]
 8004f34:	b082      	sub	sp, #8
 8004f36:	2d01      	cmp	r5, #1
 8004f38:	4604      	mov	r4, r0
 8004f3a:	f8bd 0018 	ldrh.w	r0, [sp, #24]
 8004f3e:	d01d      	beq.n	8004f7c <USBH_GetDescriptor+0x4c>
 8004f40:	2d02      	cmp	r5, #2
 8004f42:	d117      	bne.n	8004f74 <USBH_GetDescriptor+0x44>
 8004f44:	7e26      	ldrb	r6, [r4, #24]
 8004f46:	1e73      	subs	r3, r6, #1
 8004f48:	2b0a      	cmp	r3, #10
 8004f4a:	d813      	bhi.n	8004f74 <USBH_GetDescriptor+0x44>
 8004f4c:	e8df f003 	tbb	[pc, r3]
 8004f50:	06534339 	.word	0x06534339
 8004f54:	8c7f6e60 	.word	0x8c7f6e60
 8004f58:	ad9f      	.short	0xad9f
 8004f5a:	2e          	.byte	0x2e
 8004f5b:	00          	.byte	0x00
 8004f5c:	7921      	ldrb	r1, [r4, #4]
 8004f5e:	4620      	mov	r0, r4
 8004f60:	f000 ff0a 	bl	8005d78 <USBH_LL_GetURBState>
 8004f64:	2801      	cmp	r0, #1
 8004f66:	f000 80a9 	beq.w	80050bc <USBH_GetDescriptor+0x18c>
 8004f6a:	2805      	cmp	r0, #5
 8004f6c:	f000 8087 	beq.w	800507e <USBH_GetDescriptor+0x14e>
 8004f70:	2804      	cmp	r0, #4
 8004f72:	d03c      	beq.n	8004fee <USBH_GetDescriptor+0xbe>
 8004f74:	2501      	movs	r5, #1
 8004f76:	4628      	mov	r0, r5
 8004f78:	b002      	add	sp, #8
 8004f7a:	bd70      	pop	{r4, r5, r6, pc}
 8004f7c:	f402 467f 	and.w	r6, r2, #65280	; 0xff00
 8004f80:	f5b6 7f40 	cmp.w	r6, #768	; 0x300
 8004f84:	f061 017f 	orn	r1, r1, #127	; 0x7f
 8004f88:	f240 4609 	movw	r6, #1033	; 0x409
 8004f8c:	7421      	strb	r1, [r4, #16]
 8004f8e:	bf18      	it	ne
 8004f90:	2600      	movne	r6, #0
 8004f92:	2106      	movs	r1, #6
 8004f94:	8262      	strh	r2, [r4, #18]
 8004f96:	82e0      	strh	r0, [r4, #22]
 8004f98:	2202      	movs	r2, #2
 8004f9a:	81a0      	strh	r0, [r4, #12]
 8004f9c:	4628      	mov	r0, r5
 8004f9e:	60a3      	str	r3, [r4, #8]
 8004fa0:	7625      	strb	r5, [r4, #24]
 8004fa2:	82a6      	strh	r6, [r4, #20]
 8004fa4:	7461      	strb	r1, [r4, #17]
 8004fa6:	70a2      	strb	r2, [r4, #2]
 8004fa8:	b002      	add	sp, #8
 8004faa:	bd70      	pop	{r4, r5, r6, pc}
 8004fac:	7e63      	ldrb	r3, [r4, #25]
 8004fae:	3301      	adds	r3, #1
 8004fb0:	b2db      	uxtb	r3, r3
 8004fb2:	2b02      	cmp	r3, #2
 8004fb4:	7663      	strb	r3, [r4, #25]
 8004fb6:	f200 808d 	bhi.w	80050d4 <USBH_GetDescriptor+0x1a4>
 8004fba:	2501      	movs	r5, #1
 8004fbc:	7625      	strb	r5, [r4, #24]
 8004fbe:	70a5      	strb	r5, [r4, #2]
 8004fc0:	e7d9      	b.n	8004f76 <USBH_GetDescriptor+0x46>
 8004fc2:	7962      	ldrb	r2, [r4, #5]
 8004fc4:	f104 0110 	add.w	r1, r4, #16
 8004fc8:	4620      	mov	r0, r4
 8004fca:	f000 fccb 	bl	8005964 <USBH_CtlSendSetup>
 8004fce:	2302      	movs	r3, #2
 8004fd0:	4635      	mov	r5, r6
 8004fd2:	7623      	strb	r3, [r4, #24]
 8004fd4:	e7cf      	b.n	8004f76 <USBH_GetDescriptor+0x46>
 8004fd6:	7961      	ldrb	r1, [r4, #5]
 8004fd8:	4620      	mov	r0, r4
 8004fda:	f000 fecd 	bl	8005d78 <USBH_LL_GetURBState>
 8004fde:	2801      	cmp	r0, #1
 8004fe0:	4605      	mov	r5, r0
 8004fe2:	f000 8088 	beq.w	80050f6 <USBH_GetDescriptor+0x1c6>
 8004fe6:	2804      	cmp	r0, #4
 8004fe8:	d001      	beq.n	8004fee <USBH_GetDescriptor+0xbe>
 8004fea:	2802      	cmp	r0, #2
 8004fec:	d1c2      	bne.n	8004f74 <USBH_GetDescriptor+0x44>
 8004fee:	230b      	movs	r3, #11
 8004ff0:	7623      	strb	r3, [r4, #24]
 8004ff2:	2501      	movs	r5, #1
 8004ff4:	e7bf      	b.n	8004f76 <USBH_GetDescriptor+0x46>
 8004ff6:	f8d4 33c4 	ldr.w	r3, [r4, #964]	; 0x3c4
 8004ffa:	81e3      	strh	r3, [r4, #14]
 8004ffc:	89a2      	ldrh	r2, [r4, #12]
 8004ffe:	7923      	ldrb	r3, [r4, #4]
 8005000:	68a1      	ldr	r1, [r4, #8]
 8005002:	4620      	mov	r0, r4
 8005004:	f000 fcd6 	bl	80059b4 <USBH_CtlReceiveData>
 8005008:	2304      	movs	r3, #4
 800500a:	7623      	strb	r3, [r4, #24]
 800500c:	2501      	movs	r5, #1
 800500e:	e7b2      	b.n	8004f76 <USBH_GetDescriptor+0x46>
 8005010:	2501      	movs	r5, #1
 8005012:	9500      	str	r5, [sp, #0]
 8005014:	7963      	ldrb	r3, [r4, #5]
 8005016:	89a2      	ldrh	r2, [r4, #12]
 8005018:	68a1      	ldr	r1, [r4, #8]
 800501a:	4620      	mov	r0, r4
 800501c:	f000 fcb2 	bl	8005984 <USBH_CtlSendData>
 8005020:	f8d4 33c4 	ldr.w	r3, [r4, #964]	; 0x3c4
 8005024:	81e3      	strh	r3, [r4, #14]
 8005026:	2306      	movs	r3, #6
 8005028:	7623      	strb	r3, [r4, #24]
 800502a:	e7a4      	b.n	8004f76 <USBH_GetDescriptor+0x46>
 800502c:	7961      	ldrb	r1, [r4, #5]
 800502e:	4620      	mov	r0, r4
 8005030:	f000 fea2 	bl	8005d78 <USBH_LL_GetURBState>
 8005034:	2801      	cmp	r0, #1
 8005036:	d049      	beq.n	80050cc <USBH_GetDescriptor+0x19c>
 8005038:	2805      	cmp	r0, #5
 800503a:	d020      	beq.n	800507e <USBH_GetDescriptor+0x14e>
 800503c:	2802      	cmp	r0, #2
 800503e:	d060      	beq.n	8005102 <USBH_GetDescriptor+0x1d2>
 8005040:	2804      	cmp	r0, #4
 8005042:	d197      	bne.n	8004f74 <USBH_GetDescriptor+0x44>
 8005044:	230b      	movs	r3, #11
 8005046:	7623      	strb	r3, [r4, #24]
 8005048:	2301      	movs	r3, #1
 800504a:	70a3      	strb	r3, [r4, #2]
 800504c:	e793      	b.n	8004f76 <USBH_GetDescriptor+0x46>
 800504e:	2200      	movs	r2, #0
 8005050:	7923      	ldrb	r3, [r4, #4]
 8005052:	4611      	mov	r1, r2
 8005054:	4620      	mov	r0, r4
 8005056:	f000 fcad 	bl	80059b4 <USBH_CtlReceiveData>
 800505a:	f8d4 33c4 	ldr.w	r3, [r4, #964]	; 0x3c4
 800505e:	81e3      	strh	r3, [r4, #14]
 8005060:	2308      	movs	r3, #8
 8005062:	7623      	strb	r3, [r4, #24]
 8005064:	2501      	movs	r5, #1
 8005066:	e786      	b.n	8004f76 <USBH_GetDescriptor+0x46>
 8005068:	7921      	ldrb	r1, [r4, #4]
 800506a:	4620      	mov	r0, r4
 800506c:	f000 fe84 	bl	8005d78 <USBH_LL_GetURBState>
 8005070:	2801      	cmp	r0, #1
 8005072:	d027      	beq.n	80050c4 <USBH_GetDescriptor+0x194>
 8005074:	2804      	cmp	r0, #4
 8005076:	d0ba      	beq.n	8004fee <USBH_GetDescriptor+0xbe>
 8005078:	2805      	cmp	r0, #5
 800507a:	f47f af7b 	bne.w	8004f74 <USBH_GetDescriptor+0x44>
 800507e:	2503      	movs	r5, #3
 8005080:	2201      	movs	r2, #1
 8005082:	2300      	movs	r3, #0
 8005084:	4628      	mov	r0, r5
 8005086:	70a2      	strb	r2, [r4, #2]
 8005088:	7623      	strb	r3, [r4, #24]
 800508a:	b002      	add	sp, #8
 800508c:	bd70      	pop	{r4, r5, r6, pc}
 800508e:	2501      	movs	r5, #1
 8005090:	2200      	movs	r2, #0
 8005092:	9500      	str	r5, [sp, #0]
 8005094:	7963      	ldrb	r3, [r4, #5]
 8005096:	4611      	mov	r1, r2
 8005098:	4620      	mov	r0, r4
 800509a:	f000 fc73 	bl	8005984 <USBH_CtlSendData>
 800509e:	f8d4 33c4 	ldr.w	r3, [r4, #964]	; 0x3c4
 80050a2:	81e3      	strh	r3, [r4, #14]
 80050a4:	230a      	movs	r3, #10
 80050a6:	7623      	strb	r3, [r4, #24]
 80050a8:	e765      	b.n	8004f76 <USBH_GetDescriptor+0x46>
 80050aa:	7961      	ldrb	r1, [r4, #5]
 80050ac:	4620      	mov	r0, r4
 80050ae:	f000 fe63 	bl	8005d78 <USBH_LL_GetURBState>
 80050b2:	2801      	cmp	r0, #1
 80050b4:	d006      	beq.n	80050c4 <USBH_GetDescriptor+0x194>
 80050b6:	2802      	cmp	r0, #2
 80050b8:	f47f af5a 	bne.w	8004f70 <USBH_GetDescriptor+0x40>
 80050bc:	2309      	movs	r3, #9
 80050be:	7623      	strb	r3, [r4, #24]
 80050c0:	2501      	movs	r5, #1
 80050c2:	e758      	b.n	8004f76 <USBH_GetDescriptor+0x46>
 80050c4:	2500      	movs	r5, #0
 80050c6:	e7db      	b.n	8005080 <USBH_GetDescriptor+0x150>
 80050c8:	0613      	lsls	r3, r2, #24
 80050ca:	d4f7      	bmi.n	80050bc <USBH_GetDescriptor+0x18c>
 80050cc:	2307      	movs	r3, #7
 80050ce:	7623      	strb	r3, [r4, #24]
 80050d0:	2501      	movs	r5, #1
 80050d2:	e750      	b.n	8004f76 <USBH_GetDescriptor+0x46>
 80050d4:	f8d4 33d4 	ldr.w	r3, [r4, #980]	; 0x3d4
 80050d8:	2106      	movs	r1, #6
 80050da:	4620      	mov	r0, r4
 80050dc:	2600      	movs	r6, #0
 80050de:	4798      	blx	r3
 80050e0:	7961      	ldrb	r1, [r4, #5]
 80050e2:	7666      	strb	r6, [r4, #25]
 80050e4:	4620      	mov	r0, r4
 80050e6:	f000 fce9 	bl	8005abc <USBH_FreePipe>
 80050ea:	7921      	ldrb	r1, [r4, #4]
 80050ec:	4620      	mov	r0, r4
 80050ee:	f000 fce5 	bl	8005abc <USBH_FreePipe>
 80050f2:	7026      	strb	r6, [r4, #0]
 80050f4:	e7a8      	b.n	8005048 <USBH_GetDescriptor+0x118>
 80050f6:	8ae3      	ldrh	r3, [r4, #22]
 80050f8:	7c22      	ldrb	r2, [r4, #16]
 80050fa:	2b00      	cmp	r3, #0
 80050fc:	d0e4      	beq.n	80050c8 <USBH_GetDescriptor+0x198>
 80050fe:	0612      	lsls	r2, r2, #24
 8005100:	d403      	bmi.n	800510a <USBH_GetDescriptor+0x1da>
 8005102:	2305      	movs	r3, #5
 8005104:	7623      	strb	r3, [r4, #24]
 8005106:	2501      	movs	r5, #1
 8005108:	e735      	b.n	8004f76 <USBH_GetDescriptor+0x46>
 800510a:	2303      	movs	r3, #3
 800510c:	7623      	strb	r3, [r4, #24]
 800510e:	e732      	b.n	8004f76 <USBH_GetDescriptor+0x46>

08005110 <USBH_SetAddress>:
 8005110:	b570      	push	{r4, r5, r6, lr}
 8005112:	7885      	ldrb	r5, [r0, #2]
 8005114:	2d01      	cmp	r5, #1
 8005116:	b082      	sub	sp, #8
 8005118:	4604      	mov	r4, r0
 800511a:	d01b      	beq.n	8005154 <USBH_SetAddress+0x44>
 800511c:	2d02      	cmp	r5, #2
 800511e:	d115      	bne.n	800514c <USBH_SetAddress+0x3c>
 8005120:	7e06      	ldrb	r6, [r0, #24]
 8005122:	1e73      	subs	r3, r6, #1
 8005124:	2b0a      	cmp	r3, #10
 8005126:	d811      	bhi.n	800514c <USBH_SetAddress+0x3c>
 8005128:	e8df f003 	tbb	[pc, r3]
 800512c:	0644362d 	.word	0x0644362d
 8005130:	796d5d50 	.word	0x796d5d50
 8005134:	978a      	.short	0x978a
 8005136:	22          	.byte	0x22
 8005137:	00          	.byte	0x00
 8005138:	7901      	ldrb	r1, [r0, #4]
 800513a:	f000 fe1d 	bl	8005d78 <USBH_LL_GetURBState>
 800513e:	2801      	cmp	r0, #1
 8005140:	f000 8093 	beq.w	800526a <USBH_SetAddress+0x15a>
 8005144:	2805      	cmp	r0, #5
 8005146:	d073      	beq.n	8005230 <USBH_SetAddress+0x120>
 8005148:	2804      	cmp	r0, #4
 800514a:	d02f      	beq.n	80051ac <USBH_SetAddress+0x9c>
 800514c:	2501      	movs	r5, #1
 800514e:	4628      	mov	r0, r5
 8005150:	b002      	add	sp, #8
 8005152:	bd70      	pop	{r4, r5, r6, pc}
 8005154:	f44f 60a0 	mov.w	r0, #1280	; 0x500
 8005158:	2300      	movs	r3, #0
 800515a:	2202      	movs	r2, #2
 800515c:	8220      	strh	r0, [r4, #16]
 800515e:	4628      	mov	r0, r5
 8005160:	8261      	strh	r1, [r4, #18]
 8005162:	7625      	strb	r5, [r4, #24]
 8005164:	60a3      	str	r3, [r4, #8]
 8005166:	81a3      	strh	r3, [r4, #12]
 8005168:	6163      	str	r3, [r4, #20]
 800516a:	70a2      	strb	r2, [r4, #2]
 800516c:	b002      	add	sp, #8
 800516e:	bd70      	pop	{r4, r5, r6, pc}
 8005170:	7e43      	ldrb	r3, [r0, #25]
 8005172:	3301      	adds	r3, #1
 8005174:	b2db      	uxtb	r3, r3
 8005176:	2b02      	cmp	r3, #2
 8005178:	7643      	strb	r3, [r0, #25]
 800517a:	f200 8082 	bhi.w	8005282 <USBH_SetAddress+0x172>
 800517e:	2501      	movs	r5, #1
 8005180:	7605      	strb	r5, [r0, #24]
 8005182:	7085      	strb	r5, [r0, #2]
 8005184:	e7e3      	b.n	800514e <USBH_SetAddress+0x3e>
 8005186:	7942      	ldrb	r2, [r0, #5]
 8005188:	f100 0110 	add.w	r1, r0, #16
 800518c:	f000 fbea 	bl	8005964 <USBH_CtlSendSetup>
 8005190:	2302      	movs	r3, #2
 8005192:	4635      	mov	r5, r6
 8005194:	7623      	strb	r3, [r4, #24]
 8005196:	e7da      	b.n	800514e <USBH_SetAddress+0x3e>
 8005198:	7941      	ldrb	r1, [r0, #5]
 800519a:	f000 fded 	bl	8005d78 <USBH_LL_GetURBState>
 800519e:	2801      	cmp	r0, #1
 80051a0:	4605      	mov	r5, r0
 80051a2:	d07e      	beq.n	80052a2 <USBH_SetAddress+0x192>
 80051a4:	2804      	cmp	r0, #4
 80051a6:	d001      	beq.n	80051ac <USBH_SetAddress+0x9c>
 80051a8:	2802      	cmp	r0, #2
 80051aa:	d1cf      	bne.n	800514c <USBH_SetAddress+0x3c>
 80051ac:	230b      	movs	r3, #11
 80051ae:	7623      	strb	r3, [r4, #24]
 80051b0:	2501      	movs	r5, #1
 80051b2:	e7cc      	b.n	800514e <USBH_SetAddress+0x3e>
 80051b4:	f8d0 33c4 	ldr.w	r3, [r0, #964]	; 0x3c4
 80051b8:	81c3      	strh	r3, [r0, #14]
 80051ba:	8982      	ldrh	r2, [r0, #12]
 80051bc:	7903      	ldrb	r3, [r0, #4]
 80051be:	6881      	ldr	r1, [r0, #8]
 80051c0:	f000 fbf8 	bl	80059b4 <USBH_CtlReceiveData>
 80051c4:	2304      	movs	r3, #4
 80051c6:	7623      	strb	r3, [r4, #24]
 80051c8:	2501      	movs	r5, #1
 80051ca:	e7c0      	b.n	800514e <USBH_SetAddress+0x3e>
 80051cc:	2501      	movs	r5, #1
 80051ce:	9500      	str	r5, [sp, #0]
 80051d0:	7943      	ldrb	r3, [r0, #5]
 80051d2:	8982      	ldrh	r2, [r0, #12]
 80051d4:	6881      	ldr	r1, [r0, #8]
 80051d6:	f000 fbd5 	bl	8005984 <USBH_CtlSendData>
 80051da:	f8d4 33c4 	ldr.w	r3, [r4, #964]	; 0x3c4
 80051de:	81e3      	strh	r3, [r4, #14]
 80051e0:	2306      	movs	r3, #6
 80051e2:	7623      	strb	r3, [r4, #24]
 80051e4:	e7b3      	b.n	800514e <USBH_SetAddress+0x3e>
 80051e6:	7941      	ldrb	r1, [r0, #5]
 80051e8:	f000 fdc6 	bl	8005d78 <USBH_LL_GetURBState>
 80051ec:	2801      	cmp	r0, #1
 80051ee:	d044      	beq.n	800527a <USBH_SetAddress+0x16a>
 80051f0:	2805      	cmp	r0, #5
 80051f2:	d01d      	beq.n	8005230 <USBH_SetAddress+0x120>
 80051f4:	2802      	cmp	r0, #2
 80051f6:	d05a      	beq.n	80052ae <USBH_SetAddress+0x19e>
 80051f8:	2804      	cmp	r0, #4
 80051fa:	d1a7      	bne.n	800514c <USBH_SetAddress+0x3c>
 80051fc:	230b      	movs	r3, #11
 80051fe:	7623      	strb	r3, [r4, #24]
 8005200:	2301      	movs	r3, #1
 8005202:	70a3      	strb	r3, [r4, #2]
 8005204:	e7a3      	b.n	800514e <USBH_SetAddress+0x3e>
 8005206:	2200      	movs	r2, #0
 8005208:	7903      	ldrb	r3, [r0, #4]
 800520a:	4611      	mov	r1, r2
 800520c:	f000 fbd2 	bl	80059b4 <USBH_CtlReceiveData>
 8005210:	f8d4 33c4 	ldr.w	r3, [r4, #964]	; 0x3c4
 8005214:	81e3      	strh	r3, [r4, #14]
 8005216:	2308      	movs	r3, #8
 8005218:	7623      	strb	r3, [r4, #24]
 800521a:	2501      	movs	r5, #1
 800521c:	e797      	b.n	800514e <USBH_SetAddress+0x3e>
 800521e:	7901      	ldrb	r1, [r0, #4]
 8005220:	f000 fdaa 	bl	8005d78 <USBH_LL_GetURBState>
 8005224:	2801      	cmp	r0, #1
 8005226:	d024      	beq.n	8005272 <USBH_SetAddress+0x162>
 8005228:	2804      	cmp	r0, #4
 800522a:	d0bf      	beq.n	80051ac <USBH_SetAddress+0x9c>
 800522c:	2805      	cmp	r0, #5
 800522e:	d18d      	bne.n	800514c <USBH_SetAddress+0x3c>
 8005230:	2503      	movs	r5, #3
 8005232:	2201      	movs	r2, #1
 8005234:	2300      	movs	r3, #0
 8005236:	4628      	mov	r0, r5
 8005238:	70a2      	strb	r2, [r4, #2]
 800523a:	7623      	strb	r3, [r4, #24]
 800523c:	b002      	add	sp, #8
 800523e:	bd70      	pop	{r4, r5, r6, pc}
 8005240:	2501      	movs	r5, #1
 8005242:	2200      	movs	r2, #0
 8005244:	9500      	str	r5, [sp, #0]
 8005246:	7943      	ldrb	r3, [r0, #5]
 8005248:	4611      	mov	r1, r2
 800524a:	f000 fb9b 	bl	8005984 <USBH_CtlSendData>
 800524e:	f8d4 33c4 	ldr.w	r3, [r4, #964]	; 0x3c4
 8005252:	81e3      	strh	r3, [r4, #14]
 8005254:	230a      	movs	r3, #10
 8005256:	7623      	strb	r3, [r4, #24]
 8005258:	e779      	b.n	800514e <USBH_SetAddress+0x3e>
 800525a:	7941      	ldrb	r1, [r0, #5]
 800525c:	f000 fd8c 	bl	8005d78 <USBH_LL_GetURBState>
 8005260:	2801      	cmp	r0, #1
 8005262:	d006      	beq.n	8005272 <USBH_SetAddress+0x162>
 8005264:	2802      	cmp	r0, #2
 8005266:	f47f af6f 	bne.w	8005148 <USBH_SetAddress+0x38>
 800526a:	2309      	movs	r3, #9
 800526c:	7623      	strb	r3, [r4, #24]
 800526e:	2501      	movs	r5, #1
 8005270:	e76d      	b.n	800514e <USBH_SetAddress+0x3e>
 8005272:	2500      	movs	r5, #0
 8005274:	e7dd      	b.n	8005232 <USBH_SetAddress+0x122>
 8005276:	0613      	lsls	r3, r2, #24
 8005278:	d4f7      	bmi.n	800526a <USBH_SetAddress+0x15a>
 800527a:	2307      	movs	r3, #7
 800527c:	7623      	strb	r3, [r4, #24]
 800527e:	2501      	movs	r5, #1
 8005280:	e765      	b.n	800514e <USBH_SetAddress+0x3e>
 8005282:	f8d0 33d4 	ldr.w	r3, [r0, #980]	; 0x3d4
 8005286:	2106      	movs	r1, #6
 8005288:	2600      	movs	r6, #0
 800528a:	4798      	blx	r3
 800528c:	7961      	ldrb	r1, [r4, #5]
 800528e:	7666      	strb	r6, [r4, #25]
 8005290:	4620      	mov	r0, r4
 8005292:	f000 fc13 	bl	8005abc <USBH_FreePipe>
 8005296:	7921      	ldrb	r1, [r4, #4]
 8005298:	4620      	mov	r0, r4
 800529a:	f000 fc0f 	bl	8005abc <USBH_FreePipe>
 800529e:	7026      	strb	r6, [r4, #0]
 80052a0:	e7ae      	b.n	8005200 <USBH_SetAddress+0xf0>
 80052a2:	8ae3      	ldrh	r3, [r4, #22]
 80052a4:	7c22      	ldrb	r2, [r4, #16]
 80052a6:	2b00      	cmp	r3, #0
 80052a8:	d0e5      	beq.n	8005276 <USBH_SetAddress+0x166>
 80052aa:	0612      	lsls	r2, r2, #24
 80052ac:	d403      	bmi.n	80052b6 <USBH_SetAddress+0x1a6>
 80052ae:	2305      	movs	r3, #5
 80052b0:	7623      	strb	r3, [r4, #24]
 80052b2:	2501      	movs	r5, #1
 80052b4:	e74b      	b.n	800514e <USBH_SetAddress+0x3e>
 80052b6:	2303      	movs	r3, #3
 80052b8:	7623      	strb	r3, [r4, #24]
 80052ba:	e748      	b.n	800514e <USBH_SetAddress+0x3e>

080052bc <USBH_SetCfg>:
 80052bc:	b570      	push	{r4, r5, r6, lr}
 80052be:	7885      	ldrb	r5, [r0, #2]
 80052c0:	2d01      	cmp	r5, #1
 80052c2:	b082      	sub	sp, #8
 80052c4:	4604      	mov	r4, r0
 80052c6:	d01b      	beq.n	8005300 <USBH_SetCfg+0x44>
 80052c8:	2d02      	cmp	r5, #2
 80052ca:	d115      	bne.n	80052f8 <USBH_SetCfg+0x3c>
 80052cc:	7e06      	ldrb	r6, [r0, #24]
 80052ce:	1e73      	subs	r3, r6, #1
 80052d0:	2b0a      	cmp	r3, #10
 80052d2:	d811      	bhi.n	80052f8 <USBH_SetCfg+0x3c>
 80052d4:	e8df f003 	tbb	[pc, r3]
 80052d8:	0644362d 	.word	0x0644362d
 80052dc:	796d5d50 	.word	0x796d5d50
 80052e0:	978a      	.short	0x978a
 80052e2:	22          	.byte	0x22
 80052e3:	00          	.byte	0x00
 80052e4:	7901      	ldrb	r1, [r0, #4]
 80052e6:	f000 fd47 	bl	8005d78 <USBH_LL_GetURBState>
 80052ea:	2801      	cmp	r0, #1
 80052ec:	f000 8093 	beq.w	8005416 <USBH_SetCfg+0x15a>
 80052f0:	2805      	cmp	r0, #5
 80052f2:	d073      	beq.n	80053dc <USBH_SetCfg+0x120>
 80052f4:	2804      	cmp	r0, #4
 80052f6:	d02f      	beq.n	8005358 <USBH_SetCfg+0x9c>
 80052f8:	2501      	movs	r5, #1
 80052fa:	4628      	mov	r0, r5
 80052fc:	b002      	add	sp, #8
 80052fe:	bd70      	pop	{r4, r5, r6, pc}
 8005300:	f44f 6010 	mov.w	r0, #2304	; 0x900
 8005304:	2300      	movs	r3, #0
 8005306:	2202      	movs	r2, #2
 8005308:	8220      	strh	r0, [r4, #16]
 800530a:	4628      	mov	r0, r5
 800530c:	8261      	strh	r1, [r4, #18]
 800530e:	7625      	strb	r5, [r4, #24]
 8005310:	60a3      	str	r3, [r4, #8]
 8005312:	81a3      	strh	r3, [r4, #12]
 8005314:	6163      	str	r3, [r4, #20]
 8005316:	70a2      	strb	r2, [r4, #2]
 8005318:	b002      	add	sp, #8
 800531a:	bd70      	pop	{r4, r5, r6, pc}
 800531c:	7e43      	ldrb	r3, [r0, #25]
 800531e:	3301      	adds	r3, #1
 8005320:	b2db      	uxtb	r3, r3
 8005322:	2b02      	cmp	r3, #2
 8005324:	7643      	strb	r3, [r0, #25]
 8005326:	f200 8082 	bhi.w	800542e <USBH_SetCfg+0x172>
 800532a:	2501      	movs	r5, #1
 800532c:	7605      	strb	r5, [r0, #24]
 800532e:	7085      	strb	r5, [r0, #2]
 8005330:	e7e3      	b.n	80052fa <USBH_SetCfg+0x3e>
 8005332:	7942      	ldrb	r2, [r0, #5]
 8005334:	f100 0110 	add.w	r1, r0, #16
 8005338:	f000 fb14 	bl	8005964 <USBH_CtlSendSetup>
 800533c:	2302      	movs	r3, #2
 800533e:	4635      	mov	r5, r6
 8005340:	7623      	strb	r3, [r4, #24]
 8005342:	e7da      	b.n	80052fa <USBH_SetCfg+0x3e>
 8005344:	7941      	ldrb	r1, [r0, #5]
 8005346:	f000 fd17 	bl	8005d78 <USBH_LL_GetURBState>
 800534a:	2801      	cmp	r0, #1
 800534c:	4605      	mov	r5, r0
 800534e:	d07e      	beq.n	800544e <USBH_SetCfg+0x192>
 8005350:	2804      	cmp	r0, #4
 8005352:	d001      	beq.n	8005358 <USBH_SetCfg+0x9c>
 8005354:	2802      	cmp	r0, #2
 8005356:	d1cf      	bne.n	80052f8 <USBH_SetCfg+0x3c>
 8005358:	230b      	movs	r3, #11
 800535a:	7623      	strb	r3, [r4, #24]
 800535c:	2501      	movs	r5, #1
 800535e:	e7cc      	b.n	80052fa <USBH_SetCfg+0x3e>
 8005360:	f8d0 33c4 	ldr.w	r3, [r0, #964]	; 0x3c4
 8005364:	81c3      	strh	r3, [r0, #14]
 8005366:	8982      	ldrh	r2, [r0, #12]
 8005368:	7903      	ldrb	r3, [r0, #4]
 800536a:	6881      	ldr	r1, [r0, #8]
 800536c:	f000 fb22 	bl	80059b4 <USBH_CtlReceiveData>
 8005370:	2304      	movs	r3, #4
 8005372:	7623      	strb	r3, [r4, #24]
 8005374:	2501      	movs	r5, #1
 8005376:	e7c0      	b.n	80052fa <USBH_SetCfg+0x3e>
 8005378:	2501      	movs	r5, #1
 800537a:	9500      	str	r5, [sp, #0]
 800537c:	7943      	ldrb	r3, [r0, #5]
 800537e:	8982      	ldrh	r2, [r0, #12]
 8005380:	6881      	ldr	r1, [r0, #8]
 8005382:	f000 faff 	bl	8005984 <USBH_CtlSendData>
 8005386:	f8d4 33c4 	ldr.w	r3, [r4, #964]	; 0x3c4
 800538a:	81e3      	strh	r3, [r4, #14]
 800538c:	2306      	movs	r3, #6
 800538e:	7623      	strb	r3, [r4, #24]
 8005390:	e7b3      	b.n	80052fa <USBH_SetCfg+0x3e>
 8005392:	7941      	ldrb	r1, [r0, #5]
 8005394:	f000 fcf0 	bl	8005d78 <USBH_LL_GetURBState>
 8005398:	2801      	cmp	r0, #1
 800539a:	d044      	beq.n	8005426 <USBH_SetCfg+0x16a>
 800539c:	2805      	cmp	r0, #5
 800539e:	d01d      	beq.n	80053dc <USBH_SetCfg+0x120>
 80053a0:	2802      	cmp	r0, #2
 80053a2:	d05a      	beq.n	800545a <USBH_SetCfg+0x19e>
 80053a4:	2804      	cmp	r0, #4
 80053a6:	d1a7      	bne.n	80052f8 <USBH_SetCfg+0x3c>
 80053a8:	230b      	movs	r3, #11
 80053aa:	7623      	strb	r3, [r4, #24]
 80053ac:	2301      	movs	r3, #1
 80053ae:	70a3      	strb	r3, [r4, #2]
 80053b0:	e7a3      	b.n	80052fa <USBH_SetCfg+0x3e>
 80053b2:	2200      	movs	r2, #0
 80053b4:	7903      	ldrb	r3, [r0, #4]
 80053b6:	4611      	mov	r1, r2
 80053b8:	f000 fafc 	bl	80059b4 <USBH_CtlReceiveData>
 80053bc:	f8d4 33c4 	ldr.w	r3, [r4, #964]	; 0x3c4
 80053c0:	81e3      	strh	r3, [r4, #14]
 80053c2:	2308      	movs	r3, #8
 80053c4:	7623      	strb	r3, [r4, #24]
 80053c6:	2501      	movs	r5, #1
 80053c8:	e797      	b.n	80052fa <USBH_SetCfg+0x3e>
 80053ca:	7901      	ldrb	r1, [r0, #4]
 80053cc:	f000 fcd4 	bl	8005d78 <USBH_LL_GetURBState>
 80053d0:	2801      	cmp	r0, #1
 80053d2:	d024      	beq.n	800541e <USBH_SetCfg+0x162>
 80053d4:	2804      	cmp	r0, #4
 80053d6:	d0bf      	beq.n	8005358 <USBH_SetCfg+0x9c>
 80053d8:	2805      	cmp	r0, #5
 80053da:	d18d      	bne.n	80052f8 <USBH_SetCfg+0x3c>
 80053dc:	2503      	movs	r5, #3
 80053de:	2201      	movs	r2, #1
 80053e0:	2300      	movs	r3, #0
 80053e2:	4628      	mov	r0, r5
 80053e4:	70a2      	strb	r2, [r4, #2]
 80053e6:	7623      	strb	r3, [r4, #24]
 80053e8:	b002      	add	sp, #8
 80053ea:	bd70      	pop	{r4, r5, r6, pc}
 80053ec:	2501      	movs	r5, #1
 80053ee:	2200      	movs	r2, #0
 80053f0:	9500      	str	r5, [sp, #0]
 80053f2:	7943      	ldrb	r3, [r0, #5]
 80053f4:	4611      	mov	r1, r2
 80053f6:	f000 fac5 	bl	8005984 <USBH_CtlSendData>
 80053fa:	f8d4 33c4 	ldr.w	r3, [r4, #964]	; 0x3c4
 80053fe:	81e3      	strh	r3, [r4, #14]
 8005400:	230a      	movs	r3, #10
 8005402:	7623      	strb	r3, [r4, #24]
 8005404:	e779      	b.n	80052fa <USBH_SetCfg+0x3e>
 8005406:	7941      	ldrb	r1, [r0, #5]
 8005408:	f000 fcb6 	bl	8005d78 <USBH_LL_GetURBState>
 800540c:	2801      	cmp	r0, #1
 800540e:	d006      	beq.n	800541e <USBH_SetCfg+0x162>
 8005410:	2802      	cmp	r0, #2
 8005412:	f47f af6f 	bne.w	80052f4 <USBH_SetCfg+0x38>
 8005416:	2309      	movs	r3, #9
 8005418:	7623      	strb	r3, [r4, #24]
 800541a:	2501      	movs	r5, #1
 800541c:	e76d      	b.n	80052fa <USBH_SetCfg+0x3e>
 800541e:	2500      	movs	r5, #0
 8005420:	e7dd      	b.n	80053de <USBH_SetCfg+0x122>
 8005422:	0613      	lsls	r3, r2, #24
 8005424:	d4f7      	bmi.n	8005416 <USBH_SetCfg+0x15a>
 8005426:	2307      	movs	r3, #7
 8005428:	7623      	strb	r3, [r4, #24]
 800542a:	2501      	movs	r5, #1
 800542c:	e765      	b.n	80052fa <USBH_SetCfg+0x3e>
 800542e:	f8d0 33d4 	ldr.w	r3, [r0, #980]	; 0x3d4
 8005432:	2106      	movs	r1, #6
 8005434:	2600      	movs	r6, #0
 8005436:	4798      	blx	r3
 8005438:	7961      	ldrb	r1, [r4, #5]
 800543a:	7666      	strb	r6, [r4, #25]
 800543c:	4620      	mov	r0, r4
 800543e:	f000 fb3d 	bl	8005abc <USBH_FreePipe>
 8005442:	7921      	ldrb	r1, [r4, #4]
 8005444:	4620      	mov	r0, r4
 8005446:	f000 fb39 	bl	8005abc <USBH_FreePipe>
 800544a:	7026      	strb	r6, [r4, #0]
 800544c:	e7ae      	b.n	80053ac <USBH_SetCfg+0xf0>
 800544e:	8ae3      	ldrh	r3, [r4, #22]
 8005450:	7c22      	ldrb	r2, [r4, #16]
 8005452:	2b00      	cmp	r3, #0
 8005454:	d0e5      	beq.n	8005422 <USBH_SetCfg+0x166>
 8005456:	0612      	lsls	r2, r2, #24
 8005458:	d403      	bmi.n	8005462 <USBH_SetCfg+0x1a6>
 800545a:	2305      	movs	r3, #5
 800545c:	7623      	strb	r3, [r4, #24]
 800545e:	2501      	movs	r5, #1
 8005460:	e74b      	b.n	80052fa <USBH_SetCfg+0x3e>
 8005462:	2303      	movs	r3, #3
 8005464:	7623      	strb	r3, [r4, #24]
 8005466:	e748      	b.n	80052fa <USBH_SetCfg+0x3e>

08005468 <USBH_SetFeature>:
 8005468:	b570      	push	{r4, r5, r6, lr}
 800546a:	7885      	ldrb	r5, [r0, #2]
 800546c:	2d01      	cmp	r5, #1
 800546e:	b082      	sub	sp, #8
 8005470:	4604      	mov	r4, r0
 8005472:	d01b      	beq.n	80054ac <USBH_SetFeature+0x44>
 8005474:	2d02      	cmp	r5, #2
 8005476:	d115      	bne.n	80054a4 <USBH_SetFeature+0x3c>
 8005478:	7e06      	ldrb	r6, [r0, #24]
 800547a:	1e73      	subs	r3, r6, #1
 800547c:	2b0a      	cmp	r3, #10
 800547e:	d811      	bhi.n	80054a4 <USBH_SetFeature+0x3c>
 8005480:	e8df f003 	tbb	[pc, r3]
 8005484:	0644362d 	.word	0x0644362d
 8005488:	796d5d50 	.word	0x796d5d50
 800548c:	978a      	.short	0x978a
 800548e:	22          	.byte	0x22
 800548f:	00          	.byte	0x00
 8005490:	7901      	ldrb	r1, [r0, #4]
 8005492:	f000 fc71 	bl	8005d78 <USBH_LL_GetURBState>
 8005496:	2801      	cmp	r0, #1
 8005498:	f000 8093 	beq.w	80055c2 <USBH_SetFeature+0x15a>
 800549c:	2805      	cmp	r0, #5
 800549e:	d073      	beq.n	8005588 <USBH_SetFeature+0x120>
 80054a0:	2804      	cmp	r0, #4
 80054a2:	d02f      	beq.n	8005504 <USBH_SetFeature+0x9c>
 80054a4:	2501      	movs	r5, #1
 80054a6:	4628      	mov	r0, r5
 80054a8:	b002      	add	sp, #8
 80054aa:	bd70      	pop	{r4, r5, r6, pc}
 80054ac:	f44f 7040 	mov.w	r0, #768	; 0x300
 80054b0:	2300      	movs	r3, #0
 80054b2:	2202      	movs	r2, #2
 80054b4:	8220      	strh	r0, [r4, #16]
 80054b6:	4628      	mov	r0, r5
 80054b8:	8261      	strh	r1, [r4, #18]
 80054ba:	7625      	strb	r5, [r4, #24]
 80054bc:	60a3      	str	r3, [r4, #8]
 80054be:	81a3      	strh	r3, [r4, #12]
 80054c0:	6163      	str	r3, [r4, #20]
 80054c2:	70a2      	strb	r2, [r4, #2]
 80054c4:	b002      	add	sp, #8
 80054c6:	bd70      	pop	{r4, r5, r6, pc}
 80054c8:	7e43      	ldrb	r3, [r0, #25]
 80054ca:	3301      	adds	r3, #1
 80054cc:	b2db      	uxtb	r3, r3
 80054ce:	2b02      	cmp	r3, #2
 80054d0:	7643      	strb	r3, [r0, #25]
 80054d2:	f200 8082 	bhi.w	80055da <USBH_SetFeature+0x172>
 80054d6:	2501      	movs	r5, #1
 80054d8:	7605      	strb	r5, [r0, #24]
 80054da:	7085      	strb	r5, [r0, #2]
 80054dc:	e7e3      	b.n	80054a6 <USBH_SetFeature+0x3e>
 80054de:	7942      	ldrb	r2, [r0, #5]
 80054e0:	f100 0110 	add.w	r1, r0, #16
 80054e4:	f000 fa3e 	bl	8005964 <USBH_CtlSendSetup>
 80054e8:	2302      	movs	r3, #2
 80054ea:	4635      	mov	r5, r6
 80054ec:	7623      	strb	r3, [r4, #24]
 80054ee:	e7da      	b.n	80054a6 <USBH_SetFeature+0x3e>
 80054f0:	7941      	ldrb	r1, [r0, #5]
 80054f2:	f000 fc41 	bl	8005d78 <USBH_LL_GetURBState>
 80054f6:	2801      	cmp	r0, #1
 80054f8:	4605      	mov	r5, r0
 80054fa:	d07e      	beq.n	80055fa <USBH_SetFeature+0x192>
 80054fc:	2804      	cmp	r0, #4
 80054fe:	d001      	beq.n	8005504 <USBH_SetFeature+0x9c>
 8005500:	2802      	cmp	r0, #2
 8005502:	d1cf      	bne.n	80054a4 <USBH_SetFeature+0x3c>
 8005504:	230b      	movs	r3, #11
 8005506:	7623      	strb	r3, [r4, #24]
 8005508:	2501      	movs	r5, #1
 800550a:	e7cc      	b.n	80054a6 <USBH_SetFeature+0x3e>
 800550c:	f8d0 33c4 	ldr.w	r3, [r0, #964]	; 0x3c4
 8005510:	81c3      	strh	r3, [r0, #14]
 8005512:	8982      	ldrh	r2, [r0, #12]
 8005514:	7903      	ldrb	r3, [r0, #4]
 8005516:	6881      	ldr	r1, [r0, #8]
 8005518:	f000 fa4c 	bl	80059b4 <USBH_CtlReceiveData>
 800551c:	2304      	movs	r3, #4
 800551e:	7623      	strb	r3, [r4, #24]
 8005520:	2501      	movs	r5, #1
 8005522:	e7c0      	b.n	80054a6 <USBH_SetFeature+0x3e>
 8005524:	2501      	movs	r5, #1
 8005526:	9500      	str	r5, [sp, #0]
 8005528:	7943      	ldrb	r3, [r0, #5]
 800552a:	8982      	ldrh	r2, [r0, #12]
 800552c:	6881      	ldr	r1, [r0, #8]
 800552e:	f000 fa29 	bl	8005984 <USBH_CtlSendData>
 8005532:	f8d4 33c4 	ldr.w	r3, [r4, #964]	; 0x3c4
 8005536:	81e3      	strh	r3, [r4, #14]
 8005538:	2306      	movs	r3, #6
 800553a:	7623      	strb	r3, [r4, #24]
 800553c:	e7b3      	b.n	80054a6 <USBH_SetFeature+0x3e>
 800553e:	7941      	ldrb	r1, [r0, #5]
 8005540:	f000 fc1a 	bl	8005d78 <USBH_LL_GetURBState>
 8005544:	2801      	cmp	r0, #1
 8005546:	d044      	beq.n	80055d2 <USBH_SetFeature+0x16a>
 8005548:	2805      	cmp	r0, #5
 800554a:	d01d      	beq.n	8005588 <USBH_SetFeature+0x120>
 800554c:	2802      	cmp	r0, #2
 800554e:	d05a      	beq.n	8005606 <USBH_SetFeature+0x19e>
 8005550:	2804      	cmp	r0, #4
 8005552:	d1a7      	bne.n	80054a4 <USBH_SetFeature+0x3c>
 8005554:	230b      	movs	r3, #11
 8005556:	7623      	strb	r3, [r4, #24]
 8005558:	2301      	movs	r3, #1
 800555a:	70a3      	strb	r3, [r4, #2]
 800555c:	e7a3      	b.n	80054a6 <USBH_SetFeature+0x3e>
 800555e:	2200      	movs	r2, #0
 8005560:	7903      	ldrb	r3, [r0, #4]
 8005562:	4611      	mov	r1, r2
 8005564:	f000 fa26 	bl	80059b4 <USBH_CtlReceiveData>
 8005568:	f8d4 33c4 	ldr.w	r3, [r4, #964]	; 0x3c4
 800556c:	81e3      	strh	r3, [r4, #14]
 800556e:	2308      	movs	r3, #8
 8005570:	7623      	strb	r3, [r4, #24]
 8005572:	2501      	movs	r5, #1
 8005574:	e797      	b.n	80054a6 <USBH_SetFeature+0x3e>
 8005576:	7901      	ldrb	r1, [r0, #4]
 8005578:	f000 fbfe 	bl	8005d78 <USBH_LL_GetURBState>
 800557c:	2801      	cmp	r0, #1
 800557e:	d024      	beq.n	80055ca <USBH_SetFeature+0x162>
 8005580:	2804      	cmp	r0, #4
 8005582:	d0bf      	beq.n	8005504 <USBH_SetFeature+0x9c>
 8005584:	2805      	cmp	r0, #5
 8005586:	d18d      	bne.n	80054a4 <USBH_SetFeature+0x3c>
 8005588:	2503      	movs	r5, #3
 800558a:	2201      	movs	r2, #1
 800558c:	2300      	movs	r3, #0
 800558e:	4628      	mov	r0, r5
 8005590:	70a2      	strb	r2, [r4, #2]
 8005592:	7623      	strb	r3, [r4, #24]
 8005594:	b002      	add	sp, #8
 8005596:	bd70      	pop	{r4, r5, r6, pc}
 8005598:	2501      	movs	r5, #1
 800559a:	2200      	movs	r2, #0
 800559c:	9500      	str	r5, [sp, #0]
 800559e:	7943      	ldrb	r3, [r0, #5]
 80055a0:	4611      	mov	r1, r2
 80055a2:	f000 f9ef 	bl	8005984 <USBH_CtlSendData>
 80055a6:	f8d4 33c4 	ldr.w	r3, [r4, #964]	; 0x3c4
 80055aa:	81e3      	strh	r3, [r4, #14]
 80055ac:	230a      	movs	r3, #10
 80055ae:	7623      	strb	r3, [r4, #24]
 80055b0:	e779      	b.n	80054a6 <USBH_SetFeature+0x3e>
 80055b2:	7941      	ldrb	r1, [r0, #5]
 80055b4:	f000 fbe0 	bl	8005d78 <USBH_LL_GetURBState>
 80055b8:	2801      	cmp	r0, #1
 80055ba:	d006      	beq.n	80055ca <USBH_SetFeature+0x162>
 80055bc:	2802      	cmp	r0, #2
 80055be:	f47f af6f 	bne.w	80054a0 <USBH_SetFeature+0x38>
 80055c2:	2309      	movs	r3, #9
 80055c4:	7623      	strb	r3, [r4, #24]
 80055c6:	2501      	movs	r5, #1
 80055c8:	e76d      	b.n	80054a6 <USBH_SetFeature+0x3e>
 80055ca:	2500      	movs	r5, #0
 80055cc:	e7dd      	b.n	800558a <USBH_SetFeature+0x122>
 80055ce:	0613      	lsls	r3, r2, #24
 80055d0:	d4f7      	bmi.n	80055c2 <USBH_SetFeature+0x15a>
 80055d2:	2307      	movs	r3, #7
 80055d4:	7623      	strb	r3, [r4, #24]
 80055d6:	2501      	movs	r5, #1
 80055d8:	e765      	b.n	80054a6 <USBH_SetFeature+0x3e>
 80055da:	f8d0 33d4 	ldr.w	r3, [r0, #980]	; 0x3d4
 80055de:	2106      	movs	r1, #6
 80055e0:	2600      	movs	r6, #0
 80055e2:	4798      	blx	r3
 80055e4:	7961      	ldrb	r1, [r4, #5]
 80055e6:	7666      	strb	r6, [r4, #25]
 80055e8:	4620      	mov	r0, r4
 80055ea:	f000 fa67 	bl	8005abc <USBH_FreePipe>
 80055ee:	7921      	ldrb	r1, [r4, #4]
 80055f0:	4620      	mov	r0, r4
 80055f2:	f000 fa63 	bl	8005abc <USBH_FreePipe>
 80055f6:	7026      	strb	r6, [r4, #0]
 80055f8:	e7ae      	b.n	8005558 <USBH_SetFeature+0xf0>
 80055fa:	8ae3      	ldrh	r3, [r4, #22]
 80055fc:	7c22      	ldrb	r2, [r4, #16]
 80055fe:	2b00      	cmp	r3, #0
 8005600:	d0e5      	beq.n	80055ce <USBH_SetFeature+0x166>
 8005602:	0612      	lsls	r2, r2, #24
 8005604:	d403      	bmi.n	800560e <USBH_SetFeature+0x1a6>
 8005606:	2305      	movs	r3, #5
 8005608:	7623      	strb	r3, [r4, #24]
 800560a:	2501      	movs	r5, #1
 800560c:	e74b      	b.n	80054a6 <USBH_SetFeature+0x3e>
 800560e:	2303      	movs	r3, #3
 8005610:	7623      	strb	r3, [r4, #24]
 8005612:	e748      	b.n	80054a6 <USBH_SetFeature+0x3e>

08005614 <USBH_ClrFeature>:
 8005614:	b570      	push	{r4, r5, r6, lr}
 8005616:	7885      	ldrb	r5, [r0, #2]
 8005618:	2d01      	cmp	r5, #1
 800561a:	b082      	sub	sp, #8
 800561c:	4604      	mov	r4, r0
 800561e:	d01b      	beq.n	8005658 <USBH_ClrFeature+0x44>
 8005620:	2d02      	cmp	r5, #2
 8005622:	d115      	bne.n	8005650 <USBH_ClrFeature+0x3c>
 8005624:	7e06      	ldrb	r6, [r0, #24]
 8005626:	1e73      	subs	r3, r6, #1
 8005628:	2b0a      	cmp	r3, #10
 800562a:	d811      	bhi.n	8005650 <USBH_ClrFeature+0x3c>
 800562c:	e8df f003 	tbb	[pc, r3]
 8005630:	0644362d 	.word	0x0644362d
 8005634:	796d5d50 	.word	0x796d5d50
 8005638:	978a      	.short	0x978a
 800563a:	22          	.byte	0x22
 800563b:	00          	.byte	0x00
 800563c:	7901      	ldrb	r1, [r0, #4]
 800563e:	f000 fb9b 	bl	8005d78 <USBH_LL_GetURBState>
 8005642:	2801      	cmp	r0, #1
 8005644:	f000 8093 	beq.w	800576e <USBH_ClrFeature+0x15a>
 8005648:	2805      	cmp	r0, #5
 800564a:	d073      	beq.n	8005734 <USBH_ClrFeature+0x120>
 800564c:	2804      	cmp	r0, #4
 800564e:	d02f      	beq.n	80056b0 <USBH_ClrFeature+0x9c>
 8005650:	2501      	movs	r5, #1
 8005652:	4628      	mov	r0, r5
 8005654:	b002      	add	sp, #8
 8005656:	bd70      	pop	{r4, r5, r6, pc}
 8005658:	f44f 7081 	mov.w	r0, #258	; 0x102
 800565c:	2300      	movs	r3, #0
 800565e:	2202      	movs	r2, #2
 8005660:	6120      	str	r0, [r4, #16]
 8005662:	4628      	mov	r0, r5
 8005664:	82a1      	strh	r1, [r4, #20]
 8005666:	7625      	strb	r5, [r4, #24]
 8005668:	82e3      	strh	r3, [r4, #22]
 800566a:	60a3      	str	r3, [r4, #8]
 800566c:	81a3      	strh	r3, [r4, #12]
 800566e:	70a2      	strb	r2, [r4, #2]
 8005670:	b002      	add	sp, #8
 8005672:	bd70      	pop	{r4, r5, r6, pc}
 8005674:	7e43      	ldrb	r3, [r0, #25]
 8005676:	3301      	adds	r3, #1
 8005678:	b2db      	uxtb	r3, r3
 800567a:	2b02      	cmp	r3, #2
 800567c:	7643      	strb	r3, [r0, #25]
 800567e:	f200 8082 	bhi.w	8005786 <USBH_ClrFeature+0x172>
 8005682:	2501      	movs	r5, #1
 8005684:	7605      	strb	r5, [r0, #24]
 8005686:	7085      	strb	r5, [r0, #2]
 8005688:	e7e3      	b.n	8005652 <USBH_ClrFeature+0x3e>
 800568a:	7942      	ldrb	r2, [r0, #5]
 800568c:	f100 0110 	add.w	r1, r0, #16
 8005690:	f000 f968 	bl	8005964 <USBH_CtlSendSetup>
 8005694:	2302      	movs	r3, #2
 8005696:	4635      	mov	r5, r6
 8005698:	7623      	strb	r3, [r4, #24]
 800569a:	e7da      	b.n	8005652 <USBH_ClrFeature+0x3e>
 800569c:	7941      	ldrb	r1, [r0, #5]
 800569e:	f000 fb6b 	bl	8005d78 <USBH_LL_GetURBState>
 80056a2:	2801      	cmp	r0, #1
 80056a4:	4605      	mov	r5, r0
 80056a6:	d07e      	beq.n	80057a6 <USBH_ClrFeature+0x192>
 80056a8:	2804      	cmp	r0, #4
 80056aa:	d001      	beq.n	80056b0 <USBH_ClrFeature+0x9c>
 80056ac:	2802      	cmp	r0, #2
 80056ae:	d1cf      	bne.n	8005650 <USBH_ClrFeature+0x3c>
 80056b0:	230b      	movs	r3, #11
 80056b2:	7623      	strb	r3, [r4, #24]
 80056b4:	2501      	movs	r5, #1
 80056b6:	e7cc      	b.n	8005652 <USBH_ClrFeature+0x3e>
 80056b8:	f8d0 33c4 	ldr.w	r3, [r0, #964]	; 0x3c4
 80056bc:	81c3      	strh	r3, [r0, #14]
 80056be:	8982      	ldrh	r2, [r0, #12]
 80056c0:	7903      	ldrb	r3, [r0, #4]
 80056c2:	6881      	ldr	r1, [r0, #8]
 80056c4:	f000 f976 	bl	80059b4 <USBH_CtlReceiveData>
 80056c8:	2304      	movs	r3, #4
 80056ca:	7623      	strb	r3, [r4, #24]
 80056cc:	2501      	movs	r5, #1
 80056ce:	e7c0      	b.n	8005652 <USBH_ClrFeature+0x3e>
 80056d0:	2501      	movs	r5, #1
 80056d2:	9500      	str	r5, [sp, #0]
 80056d4:	7943      	ldrb	r3, [r0, #5]
 80056d6:	8982      	ldrh	r2, [r0, #12]
 80056d8:	6881      	ldr	r1, [r0, #8]
 80056da:	f000 f953 	bl	8005984 <USBH_CtlSendData>
 80056de:	f8d4 33c4 	ldr.w	r3, [r4, #964]	; 0x3c4
 80056e2:	81e3      	strh	r3, [r4, #14]
 80056e4:	2306      	movs	r3, #6
 80056e6:	7623      	strb	r3, [r4, #24]
 80056e8:	e7b3      	b.n	8005652 <USBH_ClrFeature+0x3e>
 80056ea:	7941      	ldrb	r1, [r0, #5]
 80056ec:	f000 fb44 	bl	8005d78 <USBH_LL_GetURBState>
 80056f0:	2801      	cmp	r0, #1
 80056f2:	d044      	beq.n	800577e <USBH_ClrFeature+0x16a>
 80056f4:	2805      	cmp	r0, #5
 80056f6:	d01d      	beq.n	8005734 <USBH_ClrFeature+0x120>
 80056f8:	2802      	cmp	r0, #2
 80056fa:	d05a      	beq.n	80057b2 <USBH_ClrFeature+0x19e>
 80056fc:	2804      	cmp	r0, #4
 80056fe:	d1a7      	bne.n	8005650 <USBH_ClrFeature+0x3c>
 8005700:	230b      	movs	r3, #11
 8005702:	7623      	strb	r3, [r4, #24]
 8005704:	2301      	movs	r3, #1
 8005706:	70a3      	strb	r3, [r4, #2]
 8005708:	e7a3      	b.n	8005652 <USBH_ClrFeature+0x3e>
 800570a:	2200      	movs	r2, #0
 800570c:	7903      	ldrb	r3, [r0, #4]
 800570e:	4611      	mov	r1, r2
 8005710:	f000 f950 	bl	80059b4 <USBH_CtlReceiveData>
 8005714:	f8d4 33c4 	ldr.w	r3, [r4, #964]	; 0x3c4
 8005718:	81e3      	strh	r3, [r4, #14]
 800571a:	2308      	movs	r3, #8
 800571c:	7623      	strb	r3, [r4, #24]
 800571e:	2501      	movs	r5, #1
 8005720:	e797      	b.n	8005652 <USBH_ClrFeature+0x3e>
 8005722:	7901      	ldrb	r1, [r0, #4]
 8005724:	f000 fb28 	bl	8005d78 <USBH_LL_GetURBState>
 8005728:	2801      	cmp	r0, #1
 800572a:	d024      	beq.n	8005776 <USBH_ClrFeature+0x162>
 800572c:	2804      	cmp	r0, #4
 800572e:	d0bf      	beq.n	80056b0 <USBH_ClrFeature+0x9c>
 8005730:	2805      	cmp	r0, #5
 8005732:	d18d      	bne.n	8005650 <USBH_ClrFeature+0x3c>
 8005734:	2503      	movs	r5, #3
 8005736:	2201      	movs	r2, #1
 8005738:	2300      	movs	r3, #0
 800573a:	4628      	mov	r0, r5
 800573c:	70a2      	strb	r2, [r4, #2]
 800573e:	7623      	strb	r3, [r4, #24]
 8005740:	b002      	add	sp, #8
 8005742:	bd70      	pop	{r4, r5, r6, pc}
 8005744:	2501      	movs	r5, #1
 8005746:	2200      	movs	r2, #0
 8005748:	9500      	str	r5, [sp, #0]
 800574a:	7943      	ldrb	r3, [r0, #5]
 800574c:	4611      	mov	r1, r2
 800574e:	f000 f919 	bl	8005984 <USBH_CtlSendData>
 8005752:	f8d4 33c4 	ldr.w	r3, [r4, #964]	; 0x3c4
 8005756:	81e3      	strh	r3, [r4, #14]
 8005758:	230a      	movs	r3, #10
 800575a:	7623      	strb	r3, [r4, #24]
 800575c:	e779      	b.n	8005652 <USBH_ClrFeature+0x3e>
 800575e:	7941      	ldrb	r1, [r0, #5]
 8005760:	f000 fb0a 	bl	8005d78 <USBH_LL_GetURBState>
 8005764:	2801      	cmp	r0, #1
 8005766:	d006      	beq.n	8005776 <USBH_ClrFeature+0x162>
 8005768:	2802      	cmp	r0, #2
 800576a:	f47f af6f 	bne.w	800564c <USBH_ClrFeature+0x38>
 800576e:	2309      	movs	r3, #9
 8005770:	7623      	strb	r3, [r4, #24]
 8005772:	2501      	movs	r5, #1
 8005774:	e76d      	b.n	8005652 <USBH_ClrFeature+0x3e>
 8005776:	2500      	movs	r5, #0
 8005778:	e7dd      	b.n	8005736 <USBH_ClrFeature+0x122>
 800577a:	0613      	lsls	r3, r2, #24
 800577c:	d4f7      	bmi.n	800576e <USBH_ClrFeature+0x15a>
 800577e:	2307      	movs	r3, #7
 8005780:	7623      	strb	r3, [r4, #24]
 8005782:	2501      	movs	r5, #1
 8005784:	e765      	b.n	8005652 <USBH_ClrFeature+0x3e>
 8005786:	f8d0 33d4 	ldr.w	r3, [r0, #980]	; 0x3d4
 800578a:	2106      	movs	r1, #6
 800578c:	2600      	movs	r6, #0
 800578e:	4798      	blx	r3
 8005790:	7961      	ldrb	r1, [r4, #5]
 8005792:	7666      	strb	r6, [r4, #25]
 8005794:	4620      	mov	r0, r4
 8005796:	f000 f991 	bl	8005abc <USBH_FreePipe>
 800579a:	7921      	ldrb	r1, [r4, #4]
 800579c:	4620      	mov	r0, r4
 800579e:	f000 f98d 	bl	8005abc <USBH_FreePipe>
 80057a2:	7026      	strb	r6, [r4, #0]
 80057a4:	e7ae      	b.n	8005704 <USBH_ClrFeature+0xf0>
 80057a6:	8ae3      	ldrh	r3, [r4, #22]
 80057a8:	7c22      	ldrb	r2, [r4, #16]
 80057aa:	2b00      	cmp	r3, #0
 80057ac:	d0e5      	beq.n	800577a <USBH_ClrFeature+0x166>
 80057ae:	0612      	lsls	r2, r2, #24
 80057b0:	d403      	bmi.n	80057ba <USBH_ClrFeature+0x1a6>
 80057b2:	2305      	movs	r3, #5
 80057b4:	7623      	strb	r3, [r4, #24]
 80057b6:	2501      	movs	r5, #1
 80057b8:	e74b      	b.n	8005652 <USBH_ClrFeature+0x3e>
 80057ba:	2303      	movs	r3, #3
 80057bc:	7623      	strb	r3, [r4, #24]
 80057be:	e748      	b.n	8005652 <USBH_ClrFeature+0x3e>

080057c0 <USBH_CtlReq>:
 80057c0:	b570      	push	{r4, r5, r6, lr}
 80057c2:	7885      	ldrb	r5, [r0, #2]
 80057c4:	2d01      	cmp	r5, #1
 80057c6:	b082      	sub	sp, #8
 80057c8:	4604      	mov	r4, r0
 80057ca:	d01b      	beq.n	8005804 <USBH_CtlReq+0x44>
 80057cc:	2d02      	cmp	r5, #2
 80057ce:	d115      	bne.n	80057fc <USBH_CtlReq+0x3c>
 80057d0:	7e06      	ldrb	r6, [r0, #24]
 80057d2:	1e73      	subs	r3, r6, #1
 80057d4:	2b0a      	cmp	r3, #10
 80057d6:	d811      	bhi.n	80057fc <USBH_CtlReq+0x3c>
 80057d8:	e8df f003 	tbb	[pc, r3]
 80057dc:	7b838f9c 	.word	0x7b838f9c
 80057e0:	41525e6e 	.word	0x41525e6e
 80057e4:	2734      	.short	0x2734
 80057e6:	1c          	.byte	0x1c
 80057e7:	00          	.byte	0x00
 80057e8:	8ae3      	ldrh	r3, [r4, #22]
 80057ea:	7c22      	ldrb	r2, [r4, #16]
 80057ec:	2b00      	cmp	r3, #0
 80057ee:	f000 809c 	beq.w	800592a <USBH_CtlReq+0x16a>
 80057f2:	0612      	lsls	r2, r2, #24
 80057f4:	f100 80b3 	bmi.w	800595e <USBH_CtlReq+0x19e>
 80057f8:	2305      	movs	r3, #5
 80057fa:	7623      	strb	r3, [r4, #24]
 80057fc:	2501      	movs	r5, #1
 80057fe:	4628      	mov	r0, r5
 8005800:	b002      	add	sp, #8
 8005802:	bd70      	pop	{r4, r5, r6, pc}
 8005804:	2302      	movs	r3, #2
 8005806:	6081      	str	r1, [r0, #8]
 8005808:	8182      	strh	r2, [r0, #12]
 800580a:	7605      	strb	r5, [r0, #24]
 800580c:	7083      	strb	r3, [r0, #2]
 800580e:	4628      	mov	r0, r5
 8005810:	b002      	add	sp, #8
 8005812:	bd70      	pop	{r4, r5, r6, pc}
 8005814:	7e43      	ldrb	r3, [r0, #25]
 8005816:	3301      	adds	r3, #1
 8005818:	b2db      	uxtb	r3, r3
 800581a:	2b02      	cmp	r3, #2
 800581c:	7643      	strb	r3, [r0, #25]
 800581e:	f200 808e 	bhi.w	800593e <USBH_CtlReq+0x17e>
 8005822:	2501      	movs	r5, #1
 8005824:	7605      	strb	r5, [r0, #24]
 8005826:	7085      	strb	r5, [r0, #2]
 8005828:	e7e9      	b.n	80057fe <USBH_CtlReq+0x3e>
 800582a:	7941      	ldrb	r1, [r0, #5]
 800582c:	f000 faa4 	bl	8005d78 <USBH_LL_GetURBState>
 8005830:	2801      	cmp	r0, #1
 8005832:	d078      	beq.n	8005926 <USBH_CtlReq+0x166>
 8005834:	2802      	cmp	r0, #2
 8005836:	d07a      	beq.n	800592e <USBH_CtlReq+0x16e>
 8005838:	2804      	cmp	r0, #4
 800583a:	d1df      	bne.n	80057fc <USBH_CtlReq+0x3c>
 800583c:	230b      	movs	r3, #11
 800583e:	7623      	strb	r3, [r4, #24]
 8005840:	2501      	movs	r5, #1
 8005842:	e7dc      	b.n	80057fe <USBH_CtlReq+0x3e>
 8005844:	2501      	movs	r5, #1
 8005846:	2200      	movs	r2, #0
 8005848:	9500      	str	r5, [sp, #0]
 800584a:	7943      	ldrb	r3, [r0, #5]
 800584c:	4611      	mov	r1, r2
 800584e:	f000 f899 	bl	8005984 <USBH_CtlSendData>
 8005852:	f8d4 33c4 	ldr.w	r3, [r4, #964]	; 0x3c4
 8005856:	81e3      	strh	r3, [r4, #14]
 8005858:	230a      	movs	r3, #10
 800585a:	7623      	strb	r3, [r4, #24]
 800585c:	e7cf      	b.n	80057fe <USBH_CtlReq+0x3e>
 800585e:	7901      	ldrb	r1, [r0, #4]
 8005860:	f000 fa8a 	bl	8005d78 <USBH_LL_GetURBState>
 8005864:	2801      	cmp	r0, #1
 8005866:	d05e      	beq.n	8005926 <USBH_CtlReq+0x166>
 8005868:	2804      	cmp	r0, #4
 800586a:	d0e7      	beq.n	800583c <USBH_CtlReq+0x7c>
 800586c:	2805      	cmp	r0, #5
 800586e:	d1c5      	bne.n	80057fc <USBH_CtlReq+0x3c>
 8005870:	2503      	movs	r5, #3
 8005872:	2201      	movs	r2, #1
 8005874:	2300      	movs	r3, #0
 8005876:	4628      	mov	r0, r5
 8005878:	70a2      	strb	r2, [r4, #2]
 800587a:	7623      	strb	r3, [r4, #24]
 800587c:	b002      	add	sp, #8
 800587e:	bd70      	pop	{r4, r5, r6, pc}
 8005880:	2200      	movs	r2, #0
 8005882:	7903      	ldrb	r3, [r0, #4]
 8005884:	4611      	mov	r1, r2
 8005886:	f000 f895 	bl	80059b4 <USBH_CtlReceiveData>
 800588a:	f8d4 33c4 	ldr.w	r3, [r4, #964]	; 0x3c4
 800588e:	81e3      	strh	r3, [r4, #14]
 8005890:	2308      	movs	r3, #8
 8005892:	7623      	strb	r3, [r4, #24]
 8005894:	2501      	movs	r5, #1
 8005896:	e7b2      	b.n	80057fe <USBH_CtlReq+0x3e>
 8005898:	7941      	ldrb	r1, [r0, #5]
 800589a:	f000 fa6d 	bl	8005d78 <USBH_LL_GetURBState>
 800589e:	2801      	cmp	r0, #1
 80058a0:	d049      	beq.n	8005936 <USBH_CtlReq+0x176>
 80058a2:	2805      	cmp	r0, #5
 80058a4:	d0e4      	beq.n	8005870 <USBH_CtlReq+0xb0>
 80058a6:	2802      	cmp	r0, #2
 80058a8:	d0a6      	beq.n	80057f8 <USBH_CtlReq+0x38>
 80058aa:	2804      	cmp	r0, #4
 80058ac:	d1a6      	bne.n	80057fc <USBH_CtlReq+0x3c>
 80058ae:	230b      	movs	r3, #11
 80058b0:	7623      	strb	r3, [r4, #24]
 80058b2:	2301      	movs	r3, #1
 80058b4:	70a3      	strb	r3, [r4, #2]
 80058b6:	e7a2      	b.n	80057fe <USBH_CtlReq+0x3e>
 80058b8:	2501      	movs	r5, #1
 80058ba:	9500      	str	r5, [sp, #0]
 80058bc:	7943      	ldrb	r3, [r0, #5]
 80058be:	8982      	ldrh	r2, [r0, #12]
 80058c0:	6881      	ldr	r1, [r0, #8]
 80058c2:	f000 f85f 	bl	8005984 <USBH_CtlSendData>
 80058c6:	f8d4 33c4 	ldr.w	r3, [r4, #964]	; 0x3c4
 80058ca:	81e3      	strh	r3, [r4, #14]
 80058cc:	2306      	movs	r3, #6
 80058ce:	7623      	strb	r3, [r4, #24]
 80058d0:	e795      	b.n	80057fe <USBH_CtlReq+0x3e>
 80058d2:	7901      	ldrb	r1, [r0, #4]
 80058d4:	f000 fa50 	bl	8005d78 <USBH_LL_GetURBState>
 80058d8:	2801      	cmp	r0, #1
 80058da:	d028      	beq.n	800592e <USBH_CtlReq+0x16e>
 80058dc:	2805      	cmp	r0, #5
 80058de:	d1ab      	bne.n	8005838 <USBH_CtlReq+0x78>
 80058e0:	e7c6      	b.n	8005870 <USBH_CtlReq+0xb0>
 80058e2:	f8d0 33c4 	ldr.w	r3, [r0, #964]	; 0x3c4
 80058e6:	81c3      	strh	r3, [r0, #14]
 80058e8:	8982      	ldrh	r2, [r0, #12]
 80058ea:	7903      	ldrb	r3, [r0, #4]
 80058ec:	6881      	ldr	r1, [r0, #8]
 80058ee:	f000 f861 	bl	80059b4 <USBH_CtlReceiveData>
 80058f2:	2304      	movs	r3, #4
 80058f4:	7623      	strb	r3, [r4, #24]
 80058f6:	2501      	movs	r5, #1
 80058f8:	e781      	b.n	80057fe <USBH_CtlReq+0x3e>
 80058fa:	7941      	ldrb	r1, [r0, #5]
 80058fc:	f000 fa3c 	bl	8005d78 <USBH_LL_GetURBState>
 8005900:	2801      	cmp	r0, #1
 8005902:	4605      	mov	r5, r0
 8005904:	f43f af70 	beq.w	80057e8 <USBH_CtlReq+0x28>
 8005908:	2804      	cmp	r0, #4
 800590a:	d097      	beq.n	800583c <USBH_CtlReq+0x7c>
 800590c:	2802      	cmp	r0, #2
 800590e:	f47f af75 	bne.w	80057fc <USBH_CtlReq+0x3c>
 8005912:	e793      	b.n	800583c <USBH_CtlReq+0x7c>
 8005914:	7942      	ldrb	r2, [r0, #5]
 8005916:	f100 0110 	add.w	r1, r0, #16
 800591a:	f000 f823 	bl	8005964 <USBH_CtlSendSetup>
 800591e:	2302      	movs	r3, #2
 8005920:	4635      	mov	r5, r6
 8005922:	7623      	strb	r3, [r4, #24]
 8005924:	e76b      	b.n	80057fe <USBH_CtlReq+0x3e>
 8005926:	2500      	movs	r5, #0
 8005928:	e7a3      	b.n	8005872 <USBH_CtlReq+0xb2>
 800592a:	0613      	lsls	r3, r2, #24
 800592c:	d503      	bpl.n	8005936 <USBH_CtlReq+0x176>
 800592e:	2309      	movs	r3, #9
 8005930:	7623      	strb	r3, [r4, #24]
 8005932:	2501      	movs	r5, #1
 8005934:	e763      	b.n	80057fe <USBH_CtlReq+0x3e>
 8005936:	2307      	movs	r3, #7
 8005938:	7623      	strb	r3, [r4, #24]
 800593a:	2501      	movs	r5, #1
 800593c:	e75f      	b.n	80057fe <USBH_CtlReq+0x3e>
 800593e:	f8d0 33d4 	ldr.w	r3, [r0, #980]	; 0x3d4
 8005942:	2106      	movs	r1, #6
 8005944:	2600      	movs	r6, #0
 8005946:	4798      	blx	r3
 8005948:	7961      	ldrb	r1, [r4, #5]
 800594a:	7666      	strb	r6, [r4, #25]
 800594c:	4620      	mov	r0, r4
 800594e:	f000 f8b5 	bl	8005abc <USBH_FreePipe>
 8005952:	7921      	ldrb	r1, [r4, #4]
 8005954:	4620      	mov	r0, r4
 8005956:	f000 f8b1 	bl	8005abc <USBH_FreePipe>
 800595a:	7026      	strb	r6, [r4, #0]
 800595c:	e7a9      	b.n	80058b2 <USBH_CtlReq+0xf2>
 800595e:	2303      	movs	r3, #3
 8005960:	7623      	strb	r3, [r4, #24]
 8005962:	e74c      	b.n	80057fe <USBH_CtlReq+0x3e>

08005964 <USBH_CtlSendSetup>:
 8005964:	b530      	push	{r4, r5, lr}
 8005966:	b085      	sub	sp, #20
 8005968:	2400      	movs	r4, #0
 800596a:	2508      	movs	r5, #8
 800596c:	9101      	str	r1, [sp, #4]
 800596e:	9403      	str	r4, [sp, #12]
 8005970:	4611      	mov	r1, r2
 8005972:	9400      	str	r4, [sp, #0]
 8005974:	4623      	mov	r3, r4
 8005976:	4622      	mov	r2, r4
 8005978:	9502      	str	r5, [sp, #8]
 800597a:	f000 f9e1 	bl	8005d40 <USBH_LL_SubmitURB>
 800597e:	4620      	mov	r0, r4
 8005980:	b005      	add	sp, #20
 8005982:	bd30      	pop	{r4, r5, pc}

08005984 <USBH_CtlSendData>:
 8005984:	b570      	push	{r4, r5, r6, lr}
 8005986:	f890 531d 	ldrb.w	r5, [r0, #797]	; 0x31d
 800598a:	b084      	sub	sp, #16
 800598c:	2d00      	cmp	r5, #0
 800598e:	f89d 4020 	ldrb.w	r4, [sp, #32]
 8005992:	9202      	str	r2, [sp, #8]
 8005994:	460e      	mov	r6, r1
 8005996:	bf18      	it	ne
 8005998:	2400      	movne	r4, #0
 800599a:	4619      	mov	r1, r3
 800599c:	2501      	movs	r5, #1
 800599e:	2300      	movs	r3, #0
 80059a0:	9601      	str	r6, [sp, #4]
 80059a2:	9403      	str	r4, [sp, #12]
 80059a4:	9500      	str	r5, [sp, #0]
 80059a6:	461a      	mov	r2, r3
 80059a8:	f000 f9ca 	bl	8005d40 <USBH_LL_SubmitURB>
 80059ac:	2000      	movs	r0, #0
 80059ae:	b004      	add	sp, #16
 80059b0:	bd70      	pop	{r4, r5, r6, pc}
 80059b2:	bf00      	nop

080059b4 <USBH_CtlReceiveData>:
 80059b4:	b530      	push	{r4, r5, lr}
 80059b6:	b085      	sub	sp, #20
 80059b8:	2400      	movs	r4, #0
 80059ba:	2501      	movs	r5, #1
 80059bc:	e9cd 1201 	strd	r1, r2, [sp, #4]
 80059c0:	9403      	str	r4, [sp, #12]
 80059c2:	4619      	mov	r1, r3
 80059c4:	9500      	str	r5, [sp, #0]
 80059c6:	4623      	mov	r3, r4
 80059c8:	462a      	mov	r2, r5
 80059ca:	f000 f9b9 	bl	8005d40 <USBH_LL_SubmitURB>
 80059ce:	4620      	mov	r0, r4
 80059d0:	b005      	add	sp, #20
 80059d2:	bd30      	pop	{r4, r5, pc}

080059d4 <USBH_InterruptReceiveData>:
 80059d4:	b530      	push	{r4, r5, lr}
 80059d6:	b085      	sub	sp, #20
 80059d8:	2400      	movs	r4, #0
 80059da:	2501      	movs	r5, #1
 80059dc:	e9cd 1201 	strd	r1, r2, [sp, #4]
 80059e0:	9403      	str	r4, [sp, #12]
 80059e2:	4619      	mov	r1, r3
 80059e4:	9500      	str	r5, [sp, #0]
 80059e6:	462a      	mov	r2, r5
 80059e8:	2303      	movs	r3, #3
 80059ea:	f000 f9a9 	bl	8005d40 <USBH_LL_SubmitURB>
 80059ee:	4620      	mov	r0, r4
 80059f0:	b005      	add	sp, #20
 80059f2:	bd30      	pop	{r4, r5, pc}

080059f4 <USBH_OpenPipe>:
 80059f4:	b530      	push	{r4, r5, lr}
 80059f6:	b085      	sub	sp, #20
 80059f8:	f89d 4020 	ldrb.w	r4, [sp, #32]
 80059fc:	f89d 5024 	ldrb.w	r5, [sp, #36]	; 0x24
 8005a00:	9400      	str	r4, [sp, #0]
 8005a02:	f8bd 4028 	ldrh.w	r4, [sp, #40]	; 0x28
 8005a06:	e9cd 5401 	strd	r5, r4, [sp, #4]
 8005a0a:	f000 f971 	bl	8005cf0 <USBH_LL_OpenPipe>
 8005a0e:	2000      	movs	r0, #0
 8005a10:	b005      	add	sp, #20
 8005a12:	bd30      	pop	{r4, r5, pc}

08005a14 <USBH_ClosePipe>:
 8005a14:	b508      	push	{r3, lr}
 8005a16:	f000 f985 	bl	8005d24 <USBH_LL_ClosePipe>
 8005a1a:	2000      	movs	r0, #0
 8005a1c:	bd08      	pop	{r3, pc}
 8005a1e:	bf00      	nop

08005a20 <USBH_AllocPipe>:
 8005a20:	f8d0 3384 	ldr.w	r3, [r0, #900]	; 0x384
 8005a24:	f413 4300 	ands.w	r3, r3, #32768	; 0x8000
 8005a28:	d035      	beq.n	8005a96 <USBH_AllocPipe+0x76>
 8005a2a:	f8d0 3388 	ldr.w	r3, [r0, #904]	; 0x388
 8005a2e:	041a      	lsls	r2, r3, #16
 8005a30:	d533      	bpl.n	8005a9a <USBH_AllocPipe+0x7a>
 8005a32:	f8d0 338c 	ldr.w	r3, [r0, #908]	; 0x38c
 8005a36:	041b      	lsls	r3, r3, #16
 8005a38:	d531      	bpl.n	8005a9e <USBH_AllocPipe+0x7e>
 8005a3a:	f8d0 3390 	ldr.w	r3, [r0, #912]	; 0x390
 8005a3e:	041a      	lsls	r2, r3, #16
 8005a40:	d52f      	bpl.n	8005aa2 <USBH_AllocPipe+0x82>
 8005a42:	f8d0 3394 	ldr.w	r3, [r0, #916]	; 0x394
 8005a46:	041b      	lsls	r3, r3, #16
 8005a48:	d52d      	bpl.n	8005aa6 <USBH_AllocPipe+0x86>
 8005a4a:	f8d0 3398 	ldr.w	r3, [r0, #920]	; 0x398
 8005a4e:	041a      	lsls	r2, r3, #16
 8005a50:	d52b      	bpl.n	8005aaa <USBH_AllocPipe+0x8a>
 8005a52:	f8d0 339c 	ldr.w	r3, [r0, #924]	; 0x39c
 8005a56:	041b      	lsls	r3, r3, #16
 8005a58:	d529      	bpl.n	8005aae <USBH_AllocPipe+0x8e>
 8005a5a:	f8d0 33a0 	ldr.w	r3, [r0, #928]	; 0x3a0
 8005a5e:	041a      	lsls	r2, r3, #16
 8005a60:	d527      	bpl.n	8005ab2 <USBH_AllocPipe+0x92>
 8005a62:	f8d0 33a4 	ldr.w	r3, [r0, #932]	; 0x3a4
 8005a66:	041b      	lsls	r3, r3, #16
 8005a68:	d525      	bpl.n	8005ab6 <USBH_AllocPipe+0x96>
 8005a6a:	f8d0 33a8 	ldr.w	r3, [r0, #936]	; 0x3a8
 8005a6e:	041a      	lsls	r2, r3, #16
 8005a70:	d508      	bpl.n	8005a84 <USBH_AllocPipe+0x64>
 8005a72:	f8d0 33ac 	ldr.w	r3, [r0, #940]	; 0x3ac
 8005a76:	041b      	lsls	r3, r3, #16
 8005a78:	bf58      	it	pl
 8005a7a:	220a      	movpl	r2, #10
 8005a7c:	d503      	bpl.n	8005a86 <USBH_AllocPipe+0x66>
 8005a7e:	22ff      	movs	r2, #255	; 0xff
 8005a80:	4610      	mov	r0, r2
 8005a82:	4770      	bx	lr
 8005a84:	2209      	movs	r2, #9
 8005a86:	eb00 0382 	add.w	r3, r0, r2, lsl #2
 8005a8a:	f441 4100 	orr.w	r1, r1, #32768	; 0x8000
 8005a8e:	f8c3 1384 	str.w	r1, [r3, #900]	; 0x384
 8005a92:	4610      	mov	r0, r2
 8005a94:	4770      	bx	lr
 8005a96:	461a      	mov	r2, r3
 8005a98:	e7f5      	b.n	8005a86 <USBH_AllocPipe+0x66>
 8005a9a:	2201      	movs	r2, #1
 8005a9c:	e7f3      	b.n	8005a86 <USBH_AllocPipe+0x66>
 8005a9e:	2202      	movs	r2, #2
 8005aa0:	e7f1      	b.n	8005a86 <USBH_AllocPipe+0x66>
 8005aa2:	2203      	movs	r2, #3
 8005aa4:	e7ef      	b.n	8005a86 <USBH_AllocPipe+0x66>
 8005aa6:	2204      	movs	r2, #4
 8005aa8:	e7ed      	b.n	8005a86 <USBH_AllocPipe+0x66>
 8005aaa:	2205      	movs	r2, #5
 8005aac:	e7eb      	b.n	8005a86 <USBH_AllocPipe+0x66>
 8005aae:	2206      	movs	r2, #6
 8005ab0:	e7e9      	b.n	8005a86 <USBH_AllocPipe+0x66>
 8005ab2:	2207      	movs	r2, #7
 8005ab4:	e7e7      	b.n	8005a86 <USBH_AllocPipe+0x66>
 8005ab6:	2208      	movs	r2, #8
 8005ab8:	e7e5      	b.n	8005a86 <USBH_AllocPipe+0x66>
 8005aba:	bf00      	nop

08005abc <USBH_FreePipe>:
 8005abc:	290a      	cmp	r1, #10
 8005abe:	d807      	bhi.n	8005ad0 <USBH_FreePipe+0x14>
 8005ac0:	eb00 0081 	add.w	r0, r0, r1, lsl #2
 8005ac4:	f8d0 3384 	ldr.w	r3, [r0, #900]	; 0x384
 8005ac8:	f3c3 030e 	ubfx	r3, r3, #0, #15
 8005acc:	f8c0 3384 	str.w	r3, [r0, #900]	; 0x384
 8005ad0:	2000      	movs	r0, #0
 8005ad2:	4770      	bx	lr

08005ad4 <USBH_UserProcess>:
 8005ad4:	2904      	cmp	r1, #4
 8005ad6:	d004      	beq.n	8005ae2 <USBH_UserProcess+0xe>
 8005ad8:	2905      	cmp	r1, #5
 8005ada:	d00f      	beq.n	8005afc <USBH_UserProcess+0x28>
 8005adc:	2902      	cmp	r1, #2
 8005ade:	d007      	beq.n	8005af0 <USBH_UserProcess+0x1c>
 8005ae0:	4770      	bx	lr
 8005ae2:	f240 03c8 	movw	r3, #200	; 0xc8
 8005ae6:	f2c2 0300 	movt	r3, #8192	; 0x2000
 8005aea:	2201      	movs	r2, #1
 8005aec:	701a      	strb	r2, [r3, #0]
 8005aee:	4770      	bx	lr
 8005af0:	f240 03c8 	movw	r3, #200	; 0xc8
 8005af4:	f2c2 0300 	movt	r3, #8192	; 0x2000
 8005af8:	7019      	strb	r1, [r3, #0]
 8005afa:	4770      	bx	lr
 8005afc:	f240 03c8 	movw	r3, #200	; 0xc8
 8005b00:	f2c2 0300 	movt	r3, #8192	; 0x2000
 8005b04:	2203      	movs	r2, #3
 8005b06:	701a      	strb	r2, [r3, #0]
 8005b08:	4770      	bx	lr
 8005b0a:	bf00      	nop

08005b0c <MX_USB_HOST_Init>:
 8005b0c:	f645 21d5 	movw	r1, #23253	; 0x5ad5
 8005b10:	f240 10f8 	movw	r0, #504	; 0x1f8
 8005b14:	b508      	push	{r3, lr}
 8005b16:	f6c0 0100 	movt	r1, #2048	; 0x800
 8005b1a:	f2c2 0000 	movt	r0, #8192	; 0x2000
 8005b1e:	2201      	movs	r2, #1
 8005b20:	f7fe fca2 	bl	8004468 <USBH_Init>
 8005b24:	b990      	cbnz	r0, 8005b4c <MX_USB_HOST_Init+0x40>
 8005b26:	f240 0110 	movw	r1, #16
 8005b2a:	f240 10f8 	movw	r0, #504	; 0x1f8
 8005b2e:	f2c2 0100 	movt	r1, #8192	; 0x2000
 8005b32:	f2c2 0000 	movt	r0, #8192	; 0x2000
 8005b36:	f7fe fccd 	bl	80044d4 <USBH_RegisterClass>
 8005b3a:	b970      	cbnz	r0, 8005b5a <MX_USB_HOST_Init+0x4e>
 8005b3c:	f240 10f8 	movw	r0, #504	; 0x1f8
 8005b40:	f2c2 0000 	movt	r0, #8192	; 0x2000
 8005b44:	f7fe fcde 	bl	8004504 <USBH_Start>
 8005b48:	b918      	cbnz	r0, 8005b52 <MX_USB_HOST_Init+0x46>
 8005b4a:	bd08      	pop	{r3, pc}
 8005b4c:	f7fa fe36 	bl	80007bc <Error_Handler>
 8005b50:	e7e9      	b.n	8005b26 <MX_USB_HOST_Init+0x1a>
 8005b52:	e8bd 4008 	ldmia.w	sp!, {r3, lr}
 8005b56:	f7fa be31 	b.w	80007bc <Error_Handler>
 8005b5a:	f7fa fe2f 	bl	80007bc <Error_Handler>
 8005b5e:	e7ed      	b.n	8005b3c <MX_USB_HOST_Init+0x30>

08005b60 <MX_USB_HOST_Process>:
 8005b60:	f240 10f8 	movw	r0, #504	; 0x1f8
 8005b64:	f2c2 0000 	movt	r0, #8192	; 0x2000
 8005b68:	f7fe bcd6 	b.w	8004518 <USBH_Process>

08005b6c <HAL_HCD_MspInit>:
 8005b6c:	b5f0      	push	{r4, r5, r6, r7, lr}
 8005b6e:	6803      	ldr	r3, [r0, #0]
 8005b70:	b089      	sub	sp, #36	; 0x24
 8005b72:	2400      	movs	r4, #0
 8005b74:	f1b3 4fa0 	cmp.w	r3, #1342177280	; 0x50000000
 8005b78:	e9cd 4402 	strd	r4, r4, [sp, #8]
 8005b7c:	e9cd 4404 	strd	r4, r4, [sp, #16]
 8005b80:	9406      	str	r4, [sp, #24]
 8005b82:	d001      	beq.n	8005b88 <HAL_HCD_MspInit+0x1c>
 8005b84:	b009      	add	sp, #36	; 0x24
 8005b86:	bdf0      	pop	{r4, r5, r6, r7, pc}
 8005b88:	f44f 5560 	mov.w	r5, #14336	; 0x3800
 8005b8c:	f2c4 0502 	movt	r5, #16386	; 0x4002
 8005b90:	9400      	str	r4, [sp, #0]
 8005b92:	6b2b      	ldr	r3, [r5, #48]	; 0x30
 8005b94:	f043 0301 	orr.w	r3, r3, #1
 8005b98:	632b      	str	r3, [r5, #48]	; 0x30
 8005b9a:	6b2b      	ldr	r3, [r5, #48]	; 0x30
 8005b9c:	f003 0301 	and.w	r3, r3, #1
 8005ba0:	9300      	str	r3, [sp, #0]
 8005ba2:	4620      	mov	r0, r4
 8005ba4:	f44f 52c0 	mov.w	r2, #6144	; 0x1800
 8005ba8:	2302      	movs	r3, #2
 8005baa:	e9cd 2302 	strd	r2, r3, [sp, #8]
 8005bae:	a902      	add	r1, sp, #8
 8005bb0:	2200      	movs	r2, #0
 8005bb2:	2303      	movs	r3, #3
 8005bb4:	f2c4 0002 	movt	r0, #16386	; 0x4002
 8005bb8:	260a      	movs	r6, #10
 8005bba:	e9cd 2304 	strd	r2, r3, [sp, #16]
 8005bbe:	9f00      	ldr	r7, [sp, #0]
 8005bc0:	9606      	str	r6, [sp, #24]
 8005bc2:	f7fb fa67 	bl	8001094 <HAL_GPIO_Init>
 8005bc6:	6b6b      	ldr	r3, [r5, #52]	; 0x34
 8005bc8:	f043 0380 	orr.w	r3, r3, #128	; 0x80
 8005bcc:	636b      	str	r3, [r5, #52]	; 0x34
 8005bce:	9401      	str	r4, [sp, #4]
 8005bd0:	6c6b      	ldr	r3, [r5, #68]	; 0x44
 8005bd2:	f443 4380 	orr.w	r3, r3, #16384	; 0x4000
 8005bd6:	646b      	str	r3, [r5, #68]	; 0x44
 8005bd8:	6c6b      	ldr	r3, [r5, #68]	; 0x44
 8005bda:	f403 4380 	and.w	r3, r3, #16384	; 0x4000
 8005bde:	9301      	str	r3, [sp, #4]
 8005be0:	4622      	mov	r2, r4
 8005be2:	4621      	mov	r1, r4
 8005be4:	2043      	movs	r0, #67	; 0x43
 8005be6:	9b01      	ldr	r3, [sp, #4]
 8005be8:	f7fb fa0c 	bl	8001004 <HAL_NVIC_SetPriority>
 8005bec:	2043      	movs	r0, #67	; 0x43
 8005bee:	f7fb fa43 	bl	8001078 <HAL_NVIC_EnableIRQ>
 8005bf2:	b009      	add	sp, #36	; 0x24
 8005bf4:	bdf0      	pop	{r4, r5, r6, r7, pc}
 8005bf6:	bf00      	nop

08005bf8 <HAL_HCD_SOF_Callback>:
 8005bf8:	f8d0 0300 	ldr.w	r0, [r0, #768]	; 0x300
 8005bfc:	f7fe bebc 	b.w	8004978 <USBH_LL_IncTimer>

08005c00 <HAL_HCD_Connect_Callback>:
 8005c00:	f8d0 0300 	ldr.w	r0, [r0, #768]	; 0x300
 8005c04:	f7fe bed0 	b.w	80049a8 <USBH_LL_Connect>

08005c08 <HAL_HCD_Disconnect_Callback>:
 8005c08:	f8d0 0300 	ldr.w	r0, [r0, #768]	; 0x300
 8005c0c:	f7fe bed6 	b.w	80049bc <USBH_LL_Disconnect>

08005c10 <HAL_HCD_HC_NotifyURBChange_Callback>:
 8005c10:	4770      	bx	lr
 8005c12:	bf00      	nop

08005c14 <HAL_HCD_PortEnabled_Callback>:
 8005c14:	f8d0 0300 	ldr.w	r0, [r0, #768]	; 0x300
 8005c18:	f7fe bebe 	b.w	8004998 <USBH_LL_PortEnabled>

08005c1c <HAL_HCD_PortDisabled_Callback>:
 8005c1c:	f8d0 0300 	ldr.w	r0, [r0, #768]	; 0x300
 8005c20:	f7fe bebe 	b.w	80049a0 <USBH_LL_PortDisabled>

08005c24 <USBH_LL_Init>:
 8005c24:	b538      	push	{r3, r4, r5, lr}
 8005c26:	f890 33cc 	ldrb.w	r3, [r0, #972]	; 0x3cc
 8005c2a:	2b01      	cmp	r3, #1
 8005c2c:	d001      	beq.n	8005c32 <USBH_LL_Init+0xe>
 8005c2e:	2000      	movs	r0, #0
 8005c30:	bd38      	pop	{r3, r4, r5, pc}
 8005c32:	4604      	mov	r4, r0
 8005c34:	f240 50d4 	movw	r0, #1492	; 0x5d4
 8005c38:	f2c2 0000 	movt	r0, #8192	; 0x2000
 8005c3c:	f04f 45a0 	mov.w	r5, #1342177280	; 0x50000000
 8005c40:	2108      	movs	r1, #8
 8005c42:	2202      	movs	r2, #2
 8005c44:	60c3      	str	r3, [r0, #12]
 8005c46:	f8c4 03d0 	str.w	r0, [r4, #976]	; 0x3d0
 8005c4a:	2300      	movs	r3, #0
 8005c4c:	f8c0 4300 	str.w	r4, [r0, #768]	; 0x300
 8005c50:	6005      	str	r5, [r0, #0]
 8005c52:	6081      	str	r1, [r0, #8]
 8005c54:	6182      	str	r2, [r0, #24]
 8005c56:	6103      	str	r3, [r0, #16]
 8005c58:	61c3      	str	r3, [r0, #28]
 8005c5a:	f7fb fb71 	bl	8001340 <HAL_HCD_Init>
 8005c5e:	b958      	cbnz	r0, 8005c78 <USBH_LL_Init+0x54>
 8005c60:	f240 50d4 	movw	r0, #1492	; 0x5d4
 8005c64:	f2c2 0000 	movt	r0, #8192	; 0x2000
 8005c68:	f7fc f84a 	bl	8001d00 <HAL_HCD_GetCurrentFrame>
 8005c6c:	4601      	mov	r1, r0
 8005c6e:	4620      	mov	r0, r4
 8005c70:	f7fe fe7e 	bl	8004970 <USBH_LL_SetTimer>
 8005c74:	2000      	movs	r0, #0
 8005c76:	bd38      	pop	{r3, r4, r5, pc}
 8005c78:	f7fa fda0 	bl	80007bc <Error_Handler>
 8005c7c:	e7f0      	b.n	8005c60 <USBH_LL_Init+0x3c>
 8005c7e:	bf00      	nop

08005c80 <USBH_LL_Start>:
 8005c80:	b508      	push	{r3, lr}
 8005c82:	f8d0 03d0 	ldr.w	r0, [r0, #976]	; 0x3d0
 8005c86:	f7fc f803 	bl	8001c90 <HAL_HCD_Start>
 8005c8a:	2803      	cmp	r0, #3
 8005c8c:	bf9b      	ittet	ls
 8005c8e:	f645 73f8 	movwls	r3, #24568	; 0x5ff8
 8005c92:	f6c0 0300 	movtls	r3, #2048	; 0x800
 8005c96:	2002      	movhi	r0, #2
 8005c98:	5c18      	ldrbls	r0, [r3, r0]
 8005c9a:	bd08      	pop	{r3, pc}

08005c9c <USBH_LL_Stop>:
 8005c9c:	b508      	push	{r3, lr}
 8005c9e:	f8d0 03d0 	ldr.w	r0, [r0, #976]	; 0x3d0
 8005ca2:	f7fc f80b 	bl	8001cbc <HAL_HCD_Stop>
 8005ca6:	2803      	cmp	r0, #3
 8005ca8:	bf9b      	ittet	ls
 8005caa:	f645 73f8 	movwls	r3, #24568	; 0x5ff8
 8005cae:	f6c0 0300 	movtls	r3, #2048	; 0x800
 8005cb2:	2002      	movhi	r0, #2
 8005cb4:	5c18      	ldrbls	r0, [r3, r0]
 8005cb6:	bd08      	pop	{r3, pc}

08005cb8 <USBH_LL_GetSpeed>:
 8005cb8:	b508      	push	{r3, lr}
 8005cba:	f8d0 03d0 	ldr.w	r0, [r0, #976]	; 0x3d0
 8005cbe:	f7fc f823 	bl	8001d08 <HAL_HCD_GetCurrentSpeed>
 8005cc2:	2802      	cmp	r0, #2
 8005cc4:	bf88      	it	hi
 8005cc6:	2001      	movhi	r0, #1
 8005cc8:	b2c0      	uxtb	r0, r0
 8005cca:	bd08      	pop	{r3, pc}

08005ccc <USBH_LL_ResetPort>:
 8005ccc:	b508      	push	{r3, lr}
 8005cce:	f8d0 03d0 	ldr.w	r0, [r0, #976]	; 0x3d0
 8005cd2:	f7fc f805 	bl	8001ce0 <HAL_HCD_ResetPort>
 8005cd6:	2803      	cmp	r0, #3
 8005cd8:	bf9b      	ittet	ls
 8005cda:	f645 73f8 	movwls	r3, #24568	; 0x5ff8
 8005cde:	f6c0 0300 	movtls	r3, #2048	; 0x800
 8005ce2:	2002      	movhi	r0, #2
 8005ce4:	5c18      	ldrbls	r0, [r3, r0]
 8005ce6:	bd08      	pop	{r3, pc}

08005ce8 <USBH_LL_GetLastXferSize>:
 8005ce8:	f8d0 03d0 	ldr.w	r0, [r0, #976]	; 0x3d0
 8005cec:	f7fc b802 	b.w	8001cf4 <HAL_HCD_HC_GetXferCount>

08005cf0 <USBH_LL_OpenPipe>:
 8005cf0:	b530      	push	{r4, r5, lr}
 8005cf2:	b085      	sub	sp, #20
 8005cf4:	f8d0 03d0 	ldr.w	r0, [r0, #976]	; 0x3d0
 8005cf8:	f89d 4020 	ldrb.w	r4, [sp, #32]
 8005cfc:	f89d 5024 	ldrb.w	r5, [sp, #36]	; 0x24
 8005d00:	9400      	str	r4, [sp, #0]
 8005d02:	f8bd 4028 	ldrh.w	r4, [sp, #40]	; 0x28
 8005d06:	e9cd 5401 	strd	r5, r4, [sp, #4]
 8005d0a:	f7fb facd 	bl	80012a8 <HAL_HCD_HC_Init>
 8005d0e:	2803      	cmp	r0, #3
 8005d10:	bf9b      	ittet	ls
 8005d12:	f645 73f8 	movwls	r3, #24568	; 0x5ff8
 8005d16:	f6c0 0300 	movtls	r3, #2048	; 0x800
 8005d1a:	2002      	movhi	r0, #2
 8005d1c:	5c18      	ldrbls	r0, [r3, r0]
 8005d1e:	b005      	add	sp, #20
 8005d20:	bd30      	pop	{r4, r5, pc}
 8005d22:	bf00      	nop

08005d24 <USBH_LL_ClosePipe>:
 8005d24:	b508      	push	{r3, lr}
 8005d26:	f8d0 03d0 	ldr.w	r0, [r0, #976]	; 0x3d0
 8005d2a:	f7fb faf7 	bl	800131c <HAL_HCD_HC_Halt>
 8005d2e:	2803      	cmp	r0, #3
 8005d30:	bf9b      	ittet	ls
 8005d32:	f645 73f8 	movwls	r3, #24568	; 0x5ff8
 8005d36:	f6c0 0300 	movtls	r3, #2048	; 0x800
 8005d3a:	2002      	movhi	r0, #2
 8005d3c:	5c18      	ldrbls	r0, [r3, r0]
 8005d3e:	bd08      	pop	{r3, pc}

08005d40 <USBH_LL_SubmitURB>:
 8005d40:	b530      	push	{r4, r5, lr}
 8005d42:	b085      	sub	sp, #20
 8005d44:	f8d0 03d0 	ldr.w	r0, [r0, #976]	; 0x3d0
 8005d48:	f89d 5020 	ldrb.w	r5, [sp, #32]
 8005d4c:	9c09      	ldr	r4, [sp, #36]	; 0x24
 8005d4e:	9500      	str	r5, [sp, #0]
 8005d50:	9401      	str	r4, [sp, #4]
 8005d52:	f8bd 5028 	ldrh.w	r5, [sp, #40]	; 0x28
 8005d56:	f89d 402c 	ldrb.w	r4, [sp, #44]	; 0x2c
 8005d5a:	e9cd 5402 	strd	r5, r4, [sp, #8]
 8005d5e:	f7fb fb3f 	bl	80013e0 <HAL_HCD_HC_SubmitRequest>
 8005d62:	2803      	cmp	r0, #3
 8005d64:	bf9b      	ittet	ls
 8005d66:	f645 73f8 	movwls	r3, #24568	; 0x5ff8
 8005d6a:	f6c0 0300 	movtls	r3, #2048	; 0x800
 8005d6e:	2002      	movhi	r0, #2
 8005d70:	5c18      	ldrbls	r0, [r3, r0]
 8005d72:	b005      	add	sp, #20
 8005d74:	bd30      	pop	{r4, r5, pc}
 8005d76:	bf00      	nop

08005d78 <USBH_LL_GetURBState>:
 8005d78:	f8d0 03d0 	ldr.w	r0, [r0, #976]	; 0x3d0
 8005d7c:	f7fb bfb4 	b.w	8001ce8 <HAL_HCD_HC_GetURBState>

08005d80 <USBH_LL_DriverVBUS>:
 8005d80:	b508      	push	{r3, lr}
 8005d82:	20c8      	movs	r0, #200	; 0xc8
 8005d84:	f7fb f914 	bl	8000fb0 <HAL_Delay>
 8005d88:	2000      	movs	r0, #0
 8005d8a:	bd08      	pop	{r3, pc}

08005d8c <USBH_LL_SetToggle>:
 8005d8c:	f8d0 33d0 	ldr.w	r3, [r0, #976]	; 0x3d0
 8005d90:	202c      	movs	r0, #44	; 0x2c
 8005d92:	fb00 3101 	mla	r1, r0, r1, r3
 8005d96:	f891 303b 	ldrb.w	r3, [r1, #59]	; 0x3b
 8005d9a:	b11b      	cbz	r3, 8005da4 <USBH_LL_SetToggle+0x18>
 8005d9c:	f881 2054 	strb.w	r2, [r1, #84]	; 0x54
 8005da0:	2000      	movs	r0, #0
 8005da2:	4770      	bx	lr
 8005da4:	f881 2055 	strb.w	r2, [r1, #85]	; 0x55
 8005da8:	2000      	movs	r0, #0
 8005daa:	4770      	bx	lr

08005dac <USBH_Delay>:
 8005dac:	f7fb b900 	b.w	8000fb0 <HAL_Delay>

08005db0 <__errno>:
 8005db0:	4b01      	ldr	r3, [pc, #4]	; (8005db8 <__errno+0x8>)
 8005db2:	6818      	ldr	r0, [r3, #0]
 8005db4:	4770      	bx	lr
 8005db6:	bf00      	nop
 8005db8:	20000038 	.word	0x20000038

08005dbc <__libc_init_array>:
 8005dbc:	b570      	push	{r4, r5, r6, lr}
 8005dbe:	4d0d      	ldr	r5, [pc, #52]	; (8005df4 <__libc_init_array+0x38>)
 8005dc0:	4c0d      	ldr	r4, [pc, #52]	; (8005df8 <__libc_init_array+0x3c>)
 8005dc2:	1b64      	subs	r4, r4, r5
 8005dc4:	10a4      	asrs	r4, r4, #2
 8005dc6:	2600      	movs	r6, #0
 8005dc8:	42a6      	cmp	r6, r4
 8005dca:	d109      	bne.n	8005de0 <__libc_init_array+0x24>
 8005dcc:	4d0b      	ldr	r5, [pc, #44]	; (8005dfc <__libc_init_array+0x40>)
 8005dce:	4c0c      	ldr	r4, [pc, #48]	; (8005e00 <__libc_init_array+0x44>)
 8005dd0:	f000 f8f8 	bl	8005fc4 <_init>
 8005dd4:	1b64      	subs	r4, r4, r5
 8005dd6:	10a4      	asrs	r4, r4, #2
 8005dd8:	2600      	movs	r6, #0
 8005dda:	42a6      	cmp	r6, r4
 8005ddc:	d105      	bne.n	8005dea <__libc_init_array+0x2e>
 8005dde:	bd70      	pop	{r4, r5, r6, pc}
 8005de0:	f855 3b04 	ldr.w	r3, [r5], #4
 8005de4:	4798      	blx	r3
 8005de6:	3601      	adds	r6, #1
 8005de8:	e7ee      	b.n	8005dc8 <__libc_init_array+0xc>
 8005dea:	f855 3b04 	ldr.w	r3, [r5], #4
 8005dee:	4798      	blx	r3
 8005df0:	3601      	adds	r6, #1
 8005df2:	e7f2      	b.n	8005dda <__libc_init_array+0x1e>
 8005df4:	08006004 	.word	0x08006004
 8005df8:	08006004 	.word	0x08006004
 8005dfc:	08006004 	.word	0x08006004
 8005e00:	08006008 	.word	0x08006008

08005e04 <malloc>:
 8005e04:	4b02      	ldr	r3, [pc, #8]	; (8005e10 <malloc+0xc>)
 8005e06:	4601      	mov	r1, r0
 8005e08:	6818      	ldr	r0, [r3, #0]
 8005e0a:	f000 b863 	b.w	8005ed4 <_malloc_r>
 8005e0e:	bf00      	nop
 8005e10:	20000038 	.word	0x20000038

08005e14 <free>:
 8005e14:	4b02      	ldr	r3, [pc, #8]	; (8005e20 <free+0xc>)
 8005e16:	4601      	mov	r1, r0
 8005e18:	6818      	ldr	r0, [r3, #0]
 8005e1a:	f000 b80b 	b.w	8005e34 <_free_r>
 8005e1e:	bf00      	nop
 8005e20:	20000038 	.word	0x20000038

08005e24 <memset>:
 8005e24:	4402      	add	r2, r0
 8005e26:	4603      	mov	r3, r0
 8005e28:	4293      	cmp	r3, r2
 8005e2a:	d100      	bne.n	8005e2e <memset+0xa>
 8005e2c:	4770      	bx	lr
 8005e2e:	f803 1b01 	strb.w	r1, [r3], #1
 8005e32:	e7f9      	b.n	8005e28 <memset+0x4>

08005e34 <_free_r>:
 8005e34:	b537      	push	{r0, r1, r2, r4, r5, lr}
 8005e36:	2900      	cmp	r1, #0
 8005e38:	d048      	beq.n	8005ecc <_free_r+0x98>
 8005e3a:	f851 3c04 	ldr.w	r3, [r1, #-4]
 8005e3e:	9001      	str	r0, [sp, #4]
 8005e40:	2b00      	cmp	r3, #0
 8005e42:	f1a1 0404 	sub.w	r4, r1, #4
 8005e46:	bfb8      	it	lt
 8005e48:	18e4      	addlt	r4, r4, r3
 8005e4a:	f000 f8ad 	bl	8005fa8 <__malloc_lock>
 8005e4e:	4a20      	ldr	r2, [pc, #128]	; (8005ed0 <_free_r+0x9c>)
 8005e50:	9801      	ldr	r0, [sp, #4]
 8005e52:	6813      	ldr	r3, [r2, #0]
 8005e54:	4615      	mov	r5, r2
 8005e56:	b933      	cbnz	r3, 8005e66 <_free_r+0x32>
 8005e58:	6063      	str	r3, [r4, #4]
 8005e5a:	6014      	str	r4, [r2, #0]
 8005e5c:	b003      	add	sp, #12
 8005e5e:	e8bd 4030 	ldmia.w	sp!, {r4, r5, lr}
 8005e62:	f000 b8a7 	b.w	8005fb4 <__malloc_unlock>
 8005e66:	42a3      	cmp	r3, r4
 8005e68:	d90b      	bls.n	8005e82 <_free_r+0x4e>
 8005e6a:	6821      	ldr	r1, [r4, #0]
 8005e6c:	1862      	adds	r2, r4, r1
 8005e6e:	4293      	cmp	r3, r2
 8005e70:	bf04      	itt	eq
 8005e72:	681a      	ldreq	r2, [r3, #0]
 8005e74:	685b      	ldreq	r3, [r3, #4]
 8005e76:	6063      	str	r3, [r4, #4]
 8005e78:	bf04      	itt	eq
 8005e7a:	1852      	addeq	r2, r2, r1
 8005e7c:	6022      	streq	r2, [r4, #0]
 8005e7e:	602c      	str	r4, [r5, #0]
 8005e80:	e7ec      	b.n	8005e5c <_free_r+0x28>
 8005e82:	461a      	mov	r2, r3
 8005e84:	685b      	ldr	r3, [r3, #4]
 8005e86:	b10b      	cbz	r3, 8005e8c <_free_r+0x58>
 8005e88:	42a3      	cmp	r3, r4
 8005e8a:	d9fa      	bls.n	8005e82 <_free_r+0x4e>
 8005e8c:	6811      	ldr	r1, [r2, #0]
 8005e8e:	1855      	adds	r5, r2, r1
 8005e90:	42a5      	cmp	r5, r4
 8005e92:	d10b      	bne.n	8005eac <_free_r+0x78>
 8005e94:	6824      	ldr	r4, [r4, #0]
 8005e96:	4421      	add	r1, r4
 8005e98:	1854      	adds	r4, r2, r1
 8005e9a:	42a3      	cmp	r3, r4
 8005e9c:	6011      	str	r1, [r2, #0]
 8005e9e:	d1dd      	bne.n	8005e5c <_free_r+0x28>
 8005ea0:	681c      	ldr	r4, [r3, #0]
 8005ea2:	685b      	ldr	r3, [r3, #4]
 8005ea4:	6053      	str	r3, [r2, #4]
 8005ea6:	4421      	add	r1, r4
 8005ea8:	6011      	str	r1, [r2, #0]
 8005eaa:	e7d7      	b.n	8005e5c <_free_r+0x28>
 8005eac:	d902      	bls.n	8005eb4 <_free_r+0x80>
 8005eae:	230c      	movs	r3, #12
 8005eb0:	6003      	str	r3, [r0, #0]
 8005eb2:	e7d3      	b.n	8005e5c <_free_r+0x28>
 8005eb4:	6825      	ldr	r5, [r4, #0]
 8005eb6:	1961      	adds	r1, r4, r5
 8005eb8:	428b      	cmp	r3, r1
 8005eba:	bf04      	itt	eq
 8005ebc:	6819      	ldreq	r1, [r3, #0]
 8005ebe:	685b      	ldreq	r3, [r3, #4]
 8005ec0:	6063      	str	r3, [r4, #4]
 8005ec2:	bf04      	itt	eq
 8005ec4:	1949      	addeq	r1, r1, r5
 8005ec6:	6021      	streq	r1, [r4, #0]
 8005ec8:	6054      	str	r4, [r2, #4]
 8005eca:	e7c7      	b.n	8005e5c <_free_r+0x28>
 8005ecc:	b003      	add	sp, #12
 8005ece:	bd30      	pop	{r4, r5, pc}
 8005ed0:	200000cc 	.word	0x200000cc

08005ed4 <_malloc_r>:
 8005ed4:	b5f8      	push	{r3, r4, r5, r6, r7, lr}
 8005ed6:	1ccd      	adds	r5, r1, #3
 8005ed8:	f025 0503 	bic.w	r5, r5, #3
 8005edc:	3508      	adds	r5, #8
 8005ede:	2d0c      	cmp	r5, #12
 8005ee0:	bf38      	it	cc
 8005ee2:	250c      	movcc	r5, #12
 8005ee4:	2d00      	cmp	r5, #0
 8005ee6:	4606      	mov	r6, r0
 8005ee8:	db01      	blt.n	8005eee <_malloc_r+0x1a>
 8005eea:	42a9      	cmp	r1, r5
 8005eec:	d903      	bls.n	8005ef6 <_malloc_r+0x22>
 8005eee:	230c      	movs	r3, #12
 8005ef0:	6033      	str	r3, [r6, #0]
 8005ef2:	2000      	movs	r0, #0
 8005ef4:	bdf8      	pop	{r3, r4, r5, r6, r7, pc}
 8005ef6:	f000 f857 	bl	8005fa8 <__malloc_lock>
 8005efa:	4921      	ldr	r1, [pc, #132]	; (8005f80 <_malloc_r+0xac>)
 8005efc:	680a      	ldr	r2, [r1, #0]
 8005efe:	4614      	mov	r4, r2
 8005f00:	b99c      	cbnz	r4, 8005f2a <_malloc_r+0x56>
 8005f02:	4f20      	ldr	r7, [pc, #128]	; (8005f84 <_malloc_r+0xb0>)
 8005f04:	683b      	ldr	r3, [r7, #0]
 8005f06:	b923      	cbnz	r3, 8005f12 <_malloc_r+0x3e>
 8005f08:	4621      	mov	r1, r4
 8005f0a:	4630      	mov	r0, r6
 8005f0c:	f000 f83c 	bl	8005f88 <_sbrk_r>
 8005f10:	6038      	str	r0, [r7, #0]
 8005f12:	4629      	mov	r1, r5
 8005f14:	4630      	mov	r0, r6
 8005f16:	f000 f837 	bl	8005f88 <_sbrk_r>
 8005f1a:	1c43      	adds	r3, r0, #1
 8005f1c:	d123      	bne.n	8005f66 <_malloc_r+0x92>
 8005f1e:	230c      	movs	r3, #12
 8005f20:	6033      	str	r3, [r6, #0]
 8005f22:	4630      	mov	r0, r6
 8005f24:	f000 f846 	bl	8005fb4 <__malloc_unlock>
 8005f28:	e7e3      	b.n	8005ef2 <_malloc_r+0x1e>
 8005f2a:	6823      	ldr	r3, [r4, #0]
 8005f2c:	1b5b      	subs	r3, r3, r5
 8005f2e:	d417      	bmi.n	8005f60 <_malloc_r+0x8c>
 8005f30:	2b0b      	cmp	r3, #11
 8005f32:	d903      	bls.n	8005f3c <_malloc_r+0x68>
 8005f34:	6023      	str	r3, [r4, #0]
 8005f36:	441c      	add	r4, r3
 8005f38:	6025      	str	r5, [r4, #0]
 8005f3a:	e004      	b.n	8005f46 <_malloc_r+0x72>
 8005f3c:	6863      	ldr	r3, [r4, #4]
 8005f3e:	42a2      	cmp	r2, r4
 8005f40:	bf0c      	ite	eq
 8005f42:	600b      	streq	r3, [r1, #0]
 8005f44:	6053      	strne	r3, [r2, #4]
 8005f46:	4630      	mov	r0, r6
 8005f48:	f000 f834 	bl	8005fb4 <__malloc_unlock>
 8005f4c:	f104 000b 	add.w	r0, r4, #11
 8005f50:	1d23      	adds	r3, r4, #4
 8005f52:	f020 0007 	bic.w	r0, r0, #7
 8005f56:	1ac2      	subs	r2, r0, r3
 8005f58:	d0cc      	beq.n	8005ef4 <_malloc_r+0x20>
 8005f5a:	1a1b      	subs	r3, r3, r0
 8005f5c:	50a3      	str	r3, [r4, r2]
 8005f5e:	e7c9      	b.n	8005ef4 <_malloc_r+0x20>
 8005f60:	4622      	mov	r2, r4
 8005f62:	6864      	ldr	r4, [r4, #4]
 8005f64:	e7cc      	b.n	8005f00 <_malloc_r+0x2c>
 8005f66:	1cc4      	adds	r4, r0, #3
 8005f68:	f024 0403 	bic.w	r4, r4, #3
 8005f6c:	42a0      	cmp	r0, r4
 8005f6e:	d0e3      	beq.n	8005f38 <_malloc_r+0x64>
 8005f70:	1a21      	subs	r1, r4, r0
 8005f72:	4630      	mov	r0, r6
 8005f74:	f000 f808 	bl	8005f88 <_sbrk_r>
 8005f78:	3001      	adds	r0, #1
 8005f7a:	d1dd      	bne.n	8005f38 <_malloc_r+0x64>
 8005f7c:	e7cf      	b.n	8005f1e <_malloc_r+0x4a>
 8005f7e:	bf00      	nop
 8005f80:	200000cc 	.word	0x200000cc
 8005f84:	200000d0 	.word	0x200000d0

08005f88 <_sbrk_r>:
 8005f88:	b538      	push	{r3, r4, r5, lr}
 8005f8a:	4d06      	ldr	r5, [pc, #24]	; (8005fa4 <_sbrk_r+0x1c>)
 8005f8c:	2300      	movs	r3, #0
 8005f8e:	4604      	mov	r4, r0
 8005f90:	4608      	mov	r0, r1
 8005f92:	602b      	str	r3, [r5, #0]
 8005f94:	f7fa feb8 	bl	8000d08 <_sbrk>
 8005f98:	1c43      	adds	r3, r0, #1
 8005f9a:	d102      	bne.n	8005fa2 <_sbrk_r+0x1a>
 8005f9c:	682b      	ldr	r3, [r5, #0]
 8005f9e:	b103      	cbz	r3, 8005fa2 <_sbrk_r+0x1a>
 8005fa0:	6023      	str	r3, [r4, #0]
 8005fa2:	bd38      	pop	{r3, r4, r5, pc}
 8005fa4:	200008d8 	.word	0x200008d8

08005fa8 <__malloc_lock>:
 8005fa8:	4801      	ldr	r0, [pc, #4]	; (8005fb0 <__malloc_lock+0x8>)
 8005faa:	f000 b809 	b.w	8005fc0 <__retarget_lock_acquire_recursive>
 8005fae:	bf00      	nop
 8005fb0:	200008e0 	.word	0x200008e0

08005fb4 <__malloc_unlock>:
 8005fb4:	4801      	ldr	r0, [pc, #4]	; (8005fbc <__malloc_unlock+0x8>)
 8005fb6:	f000 b804 	b.w	8005fc2 <__retarget_lock_release_recursive>
 8005fba:	bf00      	nop
 8005fbc:	200008e0 	.word	0x200008e0

08005fc0 <__retarget_lock_acquire_recursive>:
 8005fc0:	4770      	bx	lr

08005fc2 <__retarget_lock_release_recursive>:
 8005fc2:	4770      	bx	lr

08005fc4 <_init>:
 8005fc4:	b5f8      	push	{r3, r4, r5, r6, r7, lr}
 8005fc6:	bf00      	nop
 8005fc8:	bcf8      	pop	{r3, r4, r5, r6, r7}
 8005fca:	bc08      	pop	{r3}
 8005fcc:	469e      	mov	lr, r3
 8005fce:	4770      	bx	lr

08005fd0 <_fini>:
 8005fd0:	b5f8      	push	{r3, r4, r5, r6, r7, lr}
 8005fd2:	bf00      	nop
 8005fd4:	bcf8      	pop	{r3, r4, r5, r6, r7}
 8005fd6:	bc08      	pop	{r3}
 8005fd8:	469e      	mov	lr, r3
 8005fda:	4770      	bx	lr
